
exercise5.elf:     file format elf32-littlenios2
exercise5.elf
architecture: nios2, flags 0x00000112:
EXEC_P, HAS_SYMS, D_PAGED
start address 0x010001b4

Program Header:
    LOAD off    0x00001000 vaddr 0x01000000 paddr 0x01000000 align 2**12
         filesz 0x00000020 memsz 0x00000020 flags r-x
    LOAD off    0x00001020 vaddr 0x01000020 paddr 0x01000020 align 2**12
         filesz 0x00046a88 memsz 0x00046a88 flags r-x
    LOAD off    0x00047aa8 vaddr 0x01046aa8 paddr 0x010485a0 align 2**12
         filesz 0x00001af8 memsz 0x00001af8 flags rw-
    LOAD off    0x0004a098 vaddr 0x0104a098 paddr 0x0104a098 align 2**12
         filesz 0x00000000 memsz 0x00000300 flags rw-

Sections:
Idx Name          Size      VMA       LMA       File off  Algn
  0 .entry        00000020  01000000  01000000  00001000  2**5
                  CONTENTS, ALLOC, LOAD, READONLY, CODE
  1 .exceptions   00000194  01000020  01000020  00001020  2**2
                  CONTENTS, ALLOC, LOAD, READONLY, CODE
  2 .text         00012ae0  010001b4  010001b4  000011b4  2**2
                  CONTENTS, ALLOC, LOAD, READONLY, CODE
  3 .rodata       00033e14  01012c94  01012c94  00013c94  2**2
                  CONTENTS, ALLOC, LOAD, READONLY, DATA
  4 .rwdata       00001af8  01046aa8  010485a0  00047aa8  2**2
                  CONTENTS, ALLOC, LOAD, DATA, SMALL_DATA
  5 .bss          00000300  0104a098  0104a098  0004a098  2**2
                  ALLOC, SMALL_DATA
  6 .comment      00000026  00000000  00000000  000495a0  2**0
                  CONTENTS, READONLY
  7 .debug_aranges 00000ef8  00000000  00000000  000495c8  2**3
                  CONTENTS, READONLY, DEBUGGING
  8 .debug_pubnames 000019cb  00000000  00000000  0004a4c0  2**0
                  CONTENTS, READONLY, DEBUGGING
  9 .debug_info   0002ad8b  00000000  00000000  0004be8b  2**0
                  CONTENTS, READONLY, DEBUGGING
 10 .debug_abbrev 000092dc  00000000  00000000  00076c16  2**0
                  CONTENTS, READONLY, DEBUGGING
 11 .debug_line   00018c1a  00000000  00000000  0007fef2  2**0
                  CONTENTS, READONLY, DEBUGGING
 12 .debug_frame  00002004  00000000  00000000  00098b0c  2**2
                  CONTENTS, READONLY, DEBUGGING
 13 .debug_str    00002b32  00000000  00000000  0009ab10  2**0
                  CONTENTS, READONLY, DEBUGGING
 14 .debug_loc    0000dd98  00000000  00000000  0009d642  2**0
                  CONTENTS, READONLY, DEBUGGING
 15 .debug_alt_sim_info 00000010  00000000  00000000  000ab3dc  2**2
                  CONTENTS, READONLY, DEBUGGING
 16 .debug_ranges 00000a70  00000000  00000000  000ab3f0  2**3
                  CONTENTS, READONLY, DEBUGGING
 17 .thread_model 00000003  00000000  00000000  000afc61  2**0
                  CONTENTS, READONLY
 18 .cpu          0000000c  00000000  00000000  000afc64  2**0
                  CONTENTS, READONLY
 19 .qsys         00000001  00000000  00000000  000afc70  2**0
                  CONTENTS, READONLY
 20 .simulation_enabled 00000001  00000000  00000000  000afc71  2**0
                  CONTENTS, READONLY
 21 .stderr_dev   0000000b  00000000  00000000  000afc72  2**0
                  CONTENTS, READONLY
 22 .stdin_dev    0000000b  00000000  00000000  000afc7d  2**0
                  CONTENTS, READONLY
 23 .stdout_dev   0000000b  00000000  00000000  000afc88  2**0
                  CONTENTS, READONLY
 24 .sopc_system_name 0000000c  00000000  00000000  000afc93  2**0
                  CONTENTS, READONLY
 25 .quartus_project_dir 0000003e  00000000  00000000  000afc9f  2**0
                  CONTENTS, READONLY
 26 .sopcinfo     000657e1  00000000  00000000  000afcdd  2**0
                  CONTENTS, READONLY
SYMBOL TABLE:
01000000 l    d  .entry	00000000 .entry
01000020 l    d  .exceptions	00000000 .exceptions
010001b4 l    d  .text	00000000 .text
01012c94 l    d  .rodata	00000000 .rodata
01046aa8 l    d  .rwdata	00000000 .rwdata
0104a098 l    d  .bss	00000000 .bss
00000000 l    d  .comment	00000000 .comment
00000000 l    d  .debug_aranges	00000000 .debug_aranges
00000000 l    d  .debug_pubnames	00000000 .debug_pubnames
00000000 l    d  .debug_info	00000000 .debug_info
00000000 l    d  .debug_abbrev	00000000 .debug_abbrev
00000000 l    d  .debug_line	00000000 .debug_line
00000000 l    d  .debug_frame	00000000 .debug_frame
00000000 l    d  .debug_str	00000000 .debug_str
00000000 l    d  .debug_loc	00000000 .debug_loc
00000000 l    d  .debug_alt_sim_info	00000000 .debug_alt_sim_info
00000000 l    d  .debug_ranges	00000000 .debug_ranges
010001ec l       .text	00000000 alt_after_alt_main
00000000 l    df *ABS*	00000000 alt_irq_handler.c
00000000 l    df *ABS*	00000000 cannonman_animated.c
01012c94 l     O .rodata	00009601 GROUND_pixel_data
0101c298 l     O .rodata	000007d1 PLAYER_1_pixel_data
0101ca6c l     O .rodata	000007d1 PLAYER_2_pixel_data
0101d240 l     O .rodata	00000754 CANNON_1_pixel_data
0101d994 l     O .rodata	00000754 CANNON_1_FRAME2_pixel_data
0101e0e8 l     O .rodata	00000754 CANNON_1_FRAME3_pixel_data
0101e83c l     O .rodata	00000754 CANNON_2_pixel_data
0101ef90 l     O .rodata	00000754 CANNON_2_FRAME2_pixel_data
0101f6e4 l     O .rodata	00000754 CANNON_2_FRAME3_pixel_data
0101fe38 l     O .rodata	0000003d BOMB_pixel_data
0101fe78 l     O .rodata	00000f79 P1BOX_pixel_data
01020df4 l     O .rodata	00000f79 P2BOX_pixel_data
01021d70 l     O .rodata	00005461 P1WINS_pixel_data
010271d4 l     O .rodata	00005461 P2WINS_pixel_data
00000000 l    df *ABS*	00000000 cannonman_main.c
00000000 l    df *ABS*	00000000 bomb.c
0102c6c0 l     O .rodata	0000003d BOMB_pixel_data
00000000 l    df *ABS*	00000000 cannon1.c
0102c700 l     O .rodata	00000754 CANNON_1_pixel_data
0102ce54 l     O .rodata	00000754 CANNON_1_FRAME2_pixel_data
0102d5a8 l     O .rodata	00000754 CANNON_1_FRAME3_pixel_data
00000000 l    df *ABS*	00000000 cannon2.c
0102dcfc l     O .rodata	00000754 CANNON_2_pixel_data
0102e450 l     O .rodata	00000754 CANNON_2_FRAME2_pixel_data
0102eba4 l     O .rodata	00000754 CANNON_2_FRAME3_pixel_data
00000000 l    df *ABS*	00000000 ground.c
0102f2f8 l     O .rodata	00009601 GROUND_pixel_data
00000000 l    df *ABS*	00000000 p1box.c
010388fc l     O .rodata	00000f79 P1BOX_pixel_data
00000000 l    df *ABS*	00000000 p1wins.c
01039878 l     O .rodata	00005461 P1WINS_pixel_data
00000000 l    df *ABS*	00000000 p2box.c
0103ecdc l     O .rodata	00000f79 P2BOX_pixel_data
00000000 l    df *ABS*	00000000 p2wins.c
0103fc58 l     O .rodata	00005461 P2WINS_pixel_data
00000000 l    df *ABS*	00000000 player1.c
010450bc l     O .rodata	000007d1 PLAYER_1_pixel_data
00000000 l    df *ABS*	00000000 player2.c
01045890 l     O .rodata	000007d1 PLAYER_2_pixel_data
00000000 l    df *ABS*	00000000 VGA_Controller.c
00000000 l    df *ABS*	00000000 draw_bmp.c
00000000 l    df *ABS*	00000000 exercise5.c
00000000 l    df *ABS*	00000000 hello_world.c
00000000 l    df *ABS*	00000000 my_image.c
01046170 l     O .rodata	0000004c GIMP_IMAGE_pixel_data
00000000 l    df *ABS*	00000000 my_image7x7.c
010461bc l     O .rodata	0000024d GIMP_IMAGE_pixel_data
00000000 l    df *ABS*	00000000 power_bar.c
00000000 l    df *ABS*	00000000 rand_image.c
0104640c l     O .rodata	00000065 GIMP_IMAGE_pixel_data
00000000 l    df *ABS*	00000000 setup_graphics.c
00000000 l    df *ABS*	00000000 win_message.c
00000000 l    df *ABS*	00000000 s_cos.c
00000000 l    df *ABS*	00000000 s_sin.c
00000000 l    df *ABS*	00000000 e_rem_pio2.c
01046590 l     O .rodata	00000108 two_over_pi
01046510 l     O .rodata	00000080 npio2_hw
00000000 l    df *ABS*	00000000 k_cos.c
00000000 l    df *ABS*	00000000 k_rem_pio2.c
01046698 l     O .rodata	00000010 init_jk
010466a8 l     O .rodata	00000040 PIo2
00000000 l    df *ABS*	00000000 k_sin.c
00000000 l    df *ABS*	00000000 s_fabs.c
00000000 l    df *ABS*	00000000 s_floor.c
00000000 l    df *ABS*	00000000 s_scalbn.c
00000000 l    df *ABS*	00000000 s_copysign.c
00000000 l    df *ABS*	00000000 dp-bit.c
01004978 l     F .text	00000410 _fpadd_parts
00000000 l    df *ABS*	00000000 dp-bit.c
00000000 l    df *ABS*	00000000 dp-bit.c
00000000 l    df *ABS*	00000000 dp-bit.c
00000000 l    df *ABS*	00000000 dp-bit.c
00000000 l    df *ABS*	00000000 dp-bit.c
00000000 l    df *ABS*	00000000 dp-bit.c
00000000 l    df *ABS*	00000000 dp-bit.c
00000000 l    df *ABS*	00000000 dp-bit.c
00000000 l    df *ABS*	00000000 dp-bit.c
00000000 l    df *ABS*	00000000 dp-bit.c
00000000 l    df *ABS*	00000000 lib2-divmod.c
01005910 l     F .text	0000007c udivmodsi4
00000000 l    df *ABS*	00000000 lib2-mul.c
00000000 l    df *ABS*	00000000 libgcc2.c
00000000 l    df *ABS*	00000000 libgcc2.c
00000000 l    df *ABS*	00000000 dp-bit.c
00000000 l    df *ABS*	00000000 dp-bit.c
00000000 l    df *ABS*	00000000 dp-bit.c
00000000 l    df *ABS*	00000000 libgcc2.c
00000000 l    df *ABS*	00000000 malloc.c
00000000 l    df *ABS*	00000000 mallocr.c
00000000 l    df *ABS*	00000000 printf.c
00000000 l    df *ABS*	00000000 puts.c
00000000 l    df *ABS*	00000000 rand.c
00000000 l    df *ABS*	00000000 sbrkr.c
00000000 l    df *ABS*	00000000 strlen.c
00000000 l    df *ABS*	00000000 time.c
00000000 l    df *ABS*	00000000 vfprintf.c
01006bb4 l     F .text	00000058 __sprint_r
0104686e l     O .rodata	00000010 blanks.3452
0104685e l     O .rodata	00000010 zeroes.3453
00000000 l    df *ABS*	00000000 wsetup.c
00000000 l    df *ABS*	00000000 dtoa.c
01008c30 l     F .text	00000244 quorem
00000000 l    df *ABS*	00000000 fflush.c
00000000 l    df *ABS*	00000000 findfp.c
0100a658 l     F .text	00000058 std
0100a764 l     F .text	00000008 __fp_lock
0100a76c l     F .text	00000008 __fp_unlock
00000000 l    df *ABS*	00000000 mallocr.c
00000000 l    df *ABS*	00000000 fvwrite.c
00000000 l    df *ABS*	00000000 fwalk.c
00000000 l    df *ABS*	00000000 gettimeofdayr.c
00000000 l    df *ABS*	00000000 impure.c
01046eb0 l     O .rwdata	00000400 impure_data
00000000 l    df *ABS*	00000000 int_errno.c
00000000 l    df *ABS*	00000000 locale.c
01048574 l     O .rwdata	00000004 charset
010468a4 l     O .rodata	00000030 lconv
00000000 l    df *ABS*	00000000 makebuf.c
00000000 l    df *ABS*	00000000 memchr.c
00000000 l    df *ABS*	00000000 memcpy.c
00000000 l    df *ABS*	00000000 memmove.c
00000000 l    df *ABS*	00000000 memset.c
00000000 l    df *ABS*	00000000 mprec.c
010469ec l     O .rodata	0000000c p05.2458
00000000 l    df *ABS*	00000000 mallocr.c
00000000 l    df *ABS*	00000000 s_isinfd.c
00000000 l    df *ABS*	00000000 s_isnand.c
00000000 l    df *ABS*	00000000 stdio.c
00000000 l    df *ABS*	00000000 strcmp.c
00000000 l    df *ABS*	00000000 writer.c
00000000 l    df *ABS*	00000000 mallocr.c
00000000 l    df *ABS*	00000000 closer.c
00000000 l    df *ABS*	00000000 fclose.c
00000000 l    df *ABS*	00000000 fstatr.c
00000000 l    df *ABS*	00000000 isattyr.c
00000000 l    df *ABS*	00000000 lseekr.c
00000000 l    df *ABS*	00000000 readr.c
00000000 l    df *ABS*	00000000 libgcc2.c
00000000 l    df *ABS*	00000000 libgcc2.c
00000000 l    df *ABS*	00000000 dp-bit.c
00000000 l    df *ABS*	00000000 dp-bit.c
00000000 l    df *ABS*	00000000 alt_close.c
0100e6f8 l     F .text	00000060 alt_get_errno
00000000 l    df *ABS*	00000000 alt_dev.c
0100e758 l     F .text	0000002c alt_dev_null_write
00000000 l    df *ABS*	00000000 alt_errno.c
00000000 l    df *ABS*	00000000 alt_fstat.c
0100e85c l     F .text	00000060 alt_get_errno
00000000 l    df *ABS*	00000000 alt_gettod.c
00000000 l    df *ABS*	00000000 alt_isatty.c
0100eb9c l     F .text	00000060 alt_get_errno
00000000 l    df *ABS*	00000000 alt_load.c
0100ec7c l     F .text	0000006c alt_load_section
00000000 l    df *ABS*	00000000 alt_lseek.c
0100eddc l     F .text	00000060 alt_get_errno
00000000 l    df *ABS*	00000000 alt_main.c
00000000 l    df *ABS*	00000000 alt_malloc_lock.c
00000000 l    df *ABS*	00000000 alt_read.c
0100f00c l     F .text	00000060 alt_get_errno
00000000 l    df *ABS*	00000000 alt_release_fd.c
00000000 l    df *ABS*	00000000 alt_sbrk.c
01048590 l     O .rwdata	00000004 heap_end
00000000 l    df *ABS*	00000000 alt_tick.c
00000000 l    df *ABS*	00000000 alt_write.c
0100f468 l     F .text	00000060 alt_get_errno
00000000 l    df *ABS*	00000000 alt_sys_init.c
01047464 l     O .rwdata	00001060 jtag_uart_0
010484c4 l     O .rwdata	00000048 video_character_buffer_with_dma_0
0104850c l     O .rwdata	00000054 video_pixel_buffer_dma_0
0100f7f4 l     F .text	00000038 alt_dev_reg
00000000 l    df *ABS*	00000000 altera_avalon_jtag_uart_fd.c
00000000 l    df *ABS*	00000000 altera_avalon_jtag_uart_init.c
0100fa34 l     F .text	00000228 altera_avalon_jtag_uart_irq
0100fc5c l     F .text	000000b0 altera_avalon_jtag_uart_timeout
00000000 l    df *ABS*	00000000 altera_avalon_jtag_uart_ioctl.c
00000000 l    df *ABS*	00000000 altera_avalon_jtag_uart_read.c
00000000 l    df *ABS*	00000000 altera_avalon_jtag_uart_write.c
00000000 l    df *ABS*	00000000 altera_up_avalon_video_character_buffer_with_dma.c
00000000 l    df *ABS*	00000000 altera_up_avalon_video_pixel_buffer_dma.c
00000000 l    df *ABS*	00000000 alt_alarm_start.c
00000000 l    df *ABS*	00000000 alt_dcache_flush_all.c
00000000 l    df *ABS*	00000000 alt_dev_llist_insert.c
01011da0 l     F .text	00000060 alt_get_errno
00000000 l    df *ABS*	00000000 alt_do_ctors.c
00000000 l    df *ABS*	00000000 alt_do_dtors.c
00000000 l    df *ABS*	00000000 alt_find_dev.c
00000000 l    df *ABS*	00000000 alt_icache_flush_all.c
00000000 l    df *ABS*	00000000 alt_iic.c
00000000 l    df *ABS*	00000000 alt_iic_isr_register.c
00000000 l    df *ABS*	00000000 alt_io_redirect.c
01012244 l     F .text	000000d8 alt_open_fd
00000000 l    df *ABS*	00000000 alt_irq_vars.c
00000000 l    df *ABS*	00000000 alt_open.c
01012394 l     F .text	000000f8 alt_file_locked
01012618 l     F .text	00000060 alt_get_errno
00000000 l    df *ABS*	00000000 altera_nios2_qsys_irq.c
00000000 l    df *ABS*	00000000 alt_find_file.c
00000000 l    df *ABS*	00000000 alt_get_fd.c
00000000 l    df *ABS*	00000000 atexit.c
00000000 l    df *ABS*	00000000 exit.c
00000000 l    df *ABS*	00000000 memcmp.c
00000000 l    df *ABS*	00000000 __atexit.c
00000000 l    df *ABS*	00000000 __call_atexit.c
01012a7c l     F .text	00000004 register_fini
00000000 l    df *ABS*	00000000 alt_exit.c
01012c30 l     F .text	00000040 alt_sim_halt
0100bd7c g     F .text	00000094 _mprec_log10
0100be68 g     F .text	00000088 __any_on
0100d5b0 g     F .text	00000070 _isatty_r
010469c4 g     O .rodata	00000028 __mprec_tinytens
010013c0 g     F .text	0000010c draw_cannon2_frame2
0100ee3c g     F .text	0000006c alt_main
0101126c g     F .text	000003d8 alt_up_pixel_buffer_dma_draw_vline
0100692c g     F .text	000000a0 _puts_r
0104a108 g     O .bss	00000100 alt_irq
01004538 g     F .text	00000018 fabs
0100d620 g     F .text	00000078 _lseek_r
01000f0c g     F .text	0000010c draw_cannon1_frame2
010485a0 g       *ABS*	00000000 __flash_rwdata_start
01001fb8 g     F .text	00000140 draw_power_bar
01005498 g     F .text	00000088 __eqdf2
0100b3a8 g     F .text	00000074 _gettimeofday_r
0104a398 g       *ABS*	00000000 __alt_heap_start
010068b4 g     F .text	00000044 printf
0100d068 g     F .text	00000068 __sseek
0100a6c0 g     F .text	000000a4 __sinit
0101046c g     F .text	00000114 alt_up_char_buffer_string
0100b440 g     F .text	00000084 _setlocale_r
0100a7c0 g     F .text	0000009c __sfmoreglue
0100eec8 g     F .text	00000020 __malloc_unlock
010012b4 g     F .text	0000010c draw_cannon2
0101039c g     F .text	000000d0 alt_up_char_buffer_draw
0100b7f8 g     F .text	000000e0 memmove
0100a7b0 g     F .text	00000010 _cleanup
0100bef0 g     F .text	000000bc _Balloc
01000be8 g     F .text	0000010c draw_player1
0101061c g     F .text	000001ac alt_up_pixel_buffer_dma_draw
01005520 g     F .text	00000088 __gtdf2
00000000  w      *UND*	00000000 __errno
010105dc g     F .text	00000040 alt_up_pixel_buffer_dma_open_dev
01000000 g     F .entry	0000000c __reset
01000020 g       *ABS*	00000000 __flash_exceptions_start
0100d53c g     F .text	00000074 _fstat_r
01001018 g     F .text	0000010c draw_cannon1_frame3
0104a0a8 g     O .bss	00000004 errno
01000adc g     F .text	0000010c draw_ground
01004550 g     F .text	00000224 floor
0104a0cc g     O .bss	00000004 alt_argv
01050560 g       *ABS*	00000000 _gp
010107c8 g     F .text	00000058 alt_up_pixel_buffer_dma_change_back_buffer_address
010472e4 g     O .rwdata	00000180 alt_fd_list
01002648 g     F .text	00000828 __ieee754_rem_pio2
010014cc g     F .text	0000010c draw_cannon2_frame3
01011ec8 g     F .text	00000094 alt_find_dev
0100b758 g     F .text	000000a0 memcpy
01010580 g     F .text	0000005c alt_up_char_buffer_clear
0100a7a4 g     F .text	0000000c _cleanup_r
01005740 g     F .text	000000f8 __floatsidf
0101231c g     F .text	00000078 alt_io_redirect
01005630 g     F .text	00000088 __ltdf2
01012c94 g       *ABS*	00000000 __DTOR_END__
010069cc g     F .text	00000014 puts
0100bccc g     F .text	000000b0 __ratio
01010878 g     F .text	00000034 alt_up_pixel_buffer_dma_check_swap_buffers_status
0100fe74 g     F .text	00000224 altera_avalon_jtag_uart_read
01006160 g     F .text	00000014 malloc
010068f8 g     F .text	00000034 _printf_r
00000000 g       *ABS*	00000000 __alt_mem_onchip_memory2_0
01005a4c g     F .text	00000008 __udivsi3
0100ead8 g     F .text	000000c4 isatty
010468d4 g     O .rodata	000000c8 __mprec_tens
01010f14 g     F .text	00000358 alt_up_pixel_buffer_dma_draw_hline
0100b41c g     F .text	00000008 __locale_charset
01002e70 g     F .text	0000052c __kernel_cos
0104a0b8 g     O .bss	00000008 alt_timezone
0104a09c g     O .bss	00000004 __malloc_top_pad
01048570 g     O .rwdata	00000004 __mb_cur_max
0100b424 g     F .text	0000000c _localeconv_r
0100c654 g     F .text	0000003c __i2b
0100ad8c g     F .text	0000049c __sfvwrite_r
01006a74 g     F .text	00000070 _sbrk_r
01011708 g     F .text	000000d8 helper_plot_pixel
0100d698 g     F .text	00000078 _read_r
010472b0 g     O .rwdata	0000000c __lc_ctype
01048588 g     O .rwdata	00000004 alt_max_fd
01005f4c g     F .text	00000138 __unpack_d
0100d418 g     F .text	00000110 _fclose_r
010022d0 g     F .text	000000a4 draw_ball
0100a624 g     F .text	00000034 fflush
0104a0a0 g     O .bss	00000004 __malloc_max_sbrked_mem
01004220 g     F .text	00000318 __kernel_sin
01004e08 g     F .text	00000074 __adddf3
0100bbac g     F .text	00000120 __b2d
010108ac g     F .text	0000016c alt_up_pixel_buffer_dma_clear_screen
0100dd7c g     F .text	00000660 __umoddi3
0100ece8 g     F .text	000000f4 lseek
010008a8 g     F .text	00000084 draw_box_1
0104856c g     O .rwdata	00000004 _global_impure_ptr
0100c9fc g     F .text	000005f4 _realloc_r
0104a398 g       *ABS*	00000000 __bss_end
0101214c g     F .text	000000f8 alt_iic_isr_register
01010a18 g     F .text	000004fc alt_up_pixel_buffer_dma_draw_box
0100f238 g     F .text	0000010c alt_tick
0100d710 g     F .text	0000066c __udivdi3
0104699c g     O .rodata	00000028 __mprec_bigtens
0100c8dc g     F .text	00000120 __s2b
0100e464 g     F .text	00000194 __floatunsidf
0100bacc g     F .text	00000060 __mcmp
0100a78c g     F .text	00000018 __fp_lock_all
01012104 g     F .text	00000048 alt_ic_irq_enabled
0100f1a0 g     F .text	00000098 alt_alarm_stop
0104a0dc g     O .bss	00000004 alt_irq_active
010000ec g     F .exceptions	000000c8 alt_irq_handler
010472bc g     O .rwdata	00000028 alt_dev_null
0100339c g     F .text	00000e84 __kernel_rem_pio2
01001124 g     F .text	000000c8 animate_cannon1_shot
0104a098 g     O .bss	00000004 background_colour
01011cd0 g     F .text	0000001c alt_dcache_flush_all
0100b998 g     F .text	00000070 __hi0bits
01011644 g     F .text	000000c4 alt_up_pixel_buffer_dma_draw_rectangle
01005838 g     F .text	000000d8 __fixdfsi
010485a0 g       *ABS*	00000000 __ram_rwdata_end
01048580 g     O .rwdata	00000008 alt_dev_list
0100f344 g     F .text	00000124 write
010117e0 g     F .text	0000039c alt_up_pixel_buffer_dma_draw_line
01046aa8 g       *ABS*	00000000 __ram_rodata_end
0100e784 g     F .text	000000d8 fstat
010056b8 g     F .text	00000088 __ledf2
0100c7bc g     F .text	00000120 __pow5mult
0104a0ac g     O .bss	00000004 __nlocale_changed
01005a54 g     F .text	00000008 __umodsi3
0104a398 g       *ABS*	00000000 end
01001f54 g     F .text	00000064 clear_last_line
010102d8 g     F .text	00000084 alt_up_char_buffer_init
0100f974 g     F .text	000000c0 altera_avalon_jtag_uart_init
01012c90 g       *ABS*	00000000 __CTOR_LIST__
01800000 g       *ABS*	00000000 __alt_stack_pointer
01005bb8 g     F .text	00000080 __clzsi2
01010098 g     F .text	00000240 altera_avalon_jtag_uart_write
01002374 g     F .text	00000168 cos
0100a6b0 g     F .text	00000004 __sfp_lock_acquire
0100b674 g     F .text	000000e4 memchr
01006c0c g     F .text	00001ec4 ___vfprintf_internal_r
0100aa78 g     F .text	00000314 _free_r
01001c8c g     F .text	000002c8 show_angle
01000cf4 g     F .text	0000010c draw_player2
01012a80 g     F .text	000001b0 __call_exitprocs
0104a0b0 g     O .bss	00000004 __mlocale_changed
010017a0 g     F .text	000000c8 draw_p2box
01048564 g     O .rwdata	00000004 __malloc_sbrk_base
010001b4 g     F .text	0000003c _start
0104a0d4 g     O .bss	00000004 _alt_tick_rate
010024dc g     F .text	0000016c sin
010069fc g     F .text	00000078 rand
0100c2b4 g     F .text	0000014c __lshift
0104a0d8 g     O .bss	00000004 _alt_nticks
0100eee8 g     F .text	00000124 read
0100f4fc g     F .text	000002f8 alt_sys_init
01012948 g     F .text	00000134 __register_exitproc
0100c400 g     F .text	00000254 __multiply
0100fd0c g     F .text	00000074 altera_avalon_jtag_uart_close
01005a5c g     F .text	00000038 __mulsi3
01046aa8 g       *ABS*	00000000 __ram_rwdata_start
01012c94 g       *ABS*	00000000 __ram_rodata_start
0104a0e0 g     O .bss	00000028 __malloc_current_mallinfo
0100bfac g     F .text	0000017c __d2b
010016d8 g     F .text	000000c8 draw_p1box
0100f82c g     F .text	00000058 altera_avalon_jtag_uart_read_fd
010127b8 g     F .text	000000d0 alt_get_fd
01006084 g     F .text	000000c8 __fpcmp_parts_d
0100d3a8 g     F .text	00000070 _close_r
010128d4 g     F .text	00000074 memcmp
0100f8dc g     F .text	00000048 altera_avalon_jtag_uart_close_fd
0104a398 g       *ABS*	00000000 __alt_stack_base
0100f924 g     F .text	00000050 altera_avalon_jtag_uart_ioctl_fd
0100224c g     F .text	00000084 draw_box
01008af4 g     F .text	0000013c __swsetup_r
01005240 g     F .text	00000258 __divdf3
0100a85c g     F .text	000000f0 __sfp
0100be10 g     F .text	00000058 __copybits
01046aa8 g     O .rwdata	00000408 __malloc_av_
0100a6bc g     F .text	00000004 __sinit_lock_release
01004e7c g     F .text	000003c4 __muldf3
0100d14c g     F .text	00000060 __sread
01012698 g     F .text	00000120 alt_find_file
01011cec g     F .text	000000b4 alt_dev_llist_insert
0100eea8 g     F .text	00000020 __malloc_lock
0100f0e4 g     F .text	000000bc sbrk
01001bbc g     F .text	000000d0 main_setup
0100a428 g     F .text	000001fc _fflush_r
0100d2e0 g     F .text	000000c8 _calloc_r
0100e8bc g     F .text	0000021c gettimeofday
0104a098 g       *ABS*	00000000 __bss_start
0100b8d8 g     F .text	00000098 memset
010001f0 g     F .text	000006b8 main
0104a0d0 g     O .bss	00000004 alt_envp
0104a0a4 g     O .bss	00000004 __malloc_max_total_mem
01010820 g     F .text	00000058 alt_up_pixel_buffer_dma_swap_buffers
0101035c g     F .text	00000040 alt_up_char_buffer_open_dev
0100f884 g     F .text	00000058 altera_avalon_jtag_uart_write_fd
010069e0 g     F .text	0000001c srand
0100d060 g     F .text	00000008 __sclose
01800000 g       *ABS*	00000000 __alt_heap_limit
0100d528 g     F .text	00000014 fclose
0104a208 g     O .bss	00000190 _atexit0
01008e74 g     F .text	000015b4 _dtoa_r
01006174 g     F .text	00000740 _malloc_r
01006b58 g     F .text	0000005c time
0104858c g     O .rwdata	00000004 alt_errno
0100b2f0 g     F .text	000000b8 _fwalk
0100598c g     F .text	00000060 __divsi3
010466e8 g     O .rodata	00000014 __thenan_df
0100a94c g     F .text	0000012c _malloc_trim_r
01012c94 g       *ABS*	00000000 __CTOR_END__
0100d1ac g     F .text	000000bc strcmp
01012c94 g       *ABS*	00000000 __flash_rodata_start
01012c94 g       *ABS*	00000000 __DTOR_LIST__
01001868 g     F .text	000001f8 main_2
01004954 g     F .text	00000024 copysign
0100e3dc g     F .text	00000088 __nedf2
0100f4c8 g     F .text	00000034 alt_irq_init
0100f06c g     F .text	00000078 alt_release_fd
010020f8 g     F .text	00000154 update_power
010466fc g     O .rodata	00000100 __clz_tab
0104a0b4 g     O .bss	00000004 _PathLocale
01012888 g     F .text	00000014 atexit
0100d268 g     F .text	00000078 _write_r
0100b4c4 g     F .text	0000001c setlocale
01000e00 g     F .text	0000010c draw_cannon1
01048568 g     O .rwdata	00000004 _impure_ptr
0104a0c8 g     O .bss	00000004 alt_argc
01004774 g     F .text	000001e0 scalbn
01011e64 g     F .text	00000064 _do_dtors
01000020 g       .exceptions	00000000 alt_irq_entry
0100bb2c g     F .text	00000080 __ulp
0100cff0 g     F .text	00000040 __isinfd
0100a774 g     F .text	00000018 __fp_unlock_all
01048578 g     O .rwdata	00000008 alt_fs_list
0104a0c0 g     O .bss	00000008 alt_resettime
01000020 g       *ABS*	00000000 __ram_exceptions_start
0100b430 g     F .text	00000010 localeconv
01011f78 g     F .text	00000050 alt_ic_isr_register
010485a0 g       *ABS*	00000000 _edata
0104a398 g       *ABS*	00000000 _end
01001a60 g     F .text	0000015c main_ex5
0100092c g     F .text	000000a4 draw_ball_1
010001b4 g       *ABS*	00000000 __ram_exceptions_end
0100fd80 g     F .text	000000f4 altera_avalon_jtag_uart_ioctl
01012064 g     F .text	000000a0 alt_ic_irq_disable
0100d0d0 g     F .text	0000007c __swrite
01048560 g     O .rwdata	00000004 __malloc_trim_threshold
01012678 g     F .text	00000020 altera_nios2_qsys_irq_init
0101289c g     F .text	00000038 exit
0100b228 g     F .text	000000c8 _fwalk_reent
0100c128 g     F .text	0000018c __mdiff
010059ec g     F .text	00000060 __modsi3
01800000 g       *ABS*	00000000 __alt_data_end
01000020 g     F .exceptions	00000000 alt_exception
0100a6b4 g     F .text	00000004 __sfp_lock_release
01000000 g       *ABS*	00000000 __alt_mem_sdram
01012c70 g     F .text	00000020 _exit
0100d030 g     F .text	00000030 __isnand
01011b7c g     F .text	00000154 alt_alarm_start
01005a94 g     F .text	00000124 __muldi3
0100b4e0 g     F .text	00000194 __smakebuf_r
01006ae4 g     F .text	00000074 strlen
0101248c g     F .text	0000018c open
010055a8 g     F .text	00000088 __gedf2
010009d0 g     F .text	0000010c draw_bomb
01011f5c g     F .text	0000001c alt_icache_flush_all
010011ec g     F .text	000000c8 animate_cannon2_shot
0104859c g     O .rwdata	00000004 alt_priority_mask
010015d8 g     F .text	00000100 draw_bmp
01011fc8 g     F .text	0000009c alt_ic_irq_enable
01008ad0 g     F .text	00000024 __vfprintf_internal
01004d88 g     F .text	00000080 __subdf3
0100ba08 g     F .text	000000c4 __lo0bits
01048594 g     O .rwdata	00000008 alt_alarm_list
01011e00 g     F .text	00000064 _do_ctors
0100e5f8 g     F .text	00000100 close
0100ebfc g     F .text	00000080 alt_load
01005c38 g     F .text	00000314 __pack_d
0100614c g     F .text	00000014 free
0100a6b8 g     F .text	00000004 __sinit_lock_acquire
0100c690 g     F .text	0000012c __multadd
0100b970 g     F .text	00000028 _Bfree



Disassembly of section .entry:

01000000 <__reset>:
 * Jump to the _start entry point in the .text section if reset code
 * is allowed or if optimizing for RTL simulation.
 */
#if defined(ALT_ALLOW_CODE_AT_RESET) || defined(ALT_SIM_OPTIMIZE)
    /* Jump to the _start entry point in the .text section. */
    movhi r1, %hi(_start)
 1000000:	00404034 	movhi	at,256
    ori r1, r1, %lo(_start)
 1000004:	08406d14 	ori	at,at,436
    jmp r1
 1000008:	0800683a 	jmp	at
	...

Disassembly of section .exceptions:

01000020 <alt_exception>:
         * Process an exception.  For all exceptions we must preserve all
         * caller saved registers on the stack (See the Nios2 ABI
         * documentation for details).
         */

        addi  sp, sp, -76
 1000020:	deffed04 	addi	sp,sp,-76

#endif

#endif

        stw   ra,  0(sp)
 1000024:	dfc00015 	stw	ra,0(sp)
        /*
         * Leave a gap in the stack frame at 4(sp) for the muldiv handler to
         * store zero into.
         */

        stw   r1,   8(sp)
 1000028:	d8400215 	stw	at,8(sp)
        stw   r2,  12(sp)
 100002c:	d8800315 	stw	r2,12(sp)
        stw   r3,  16(sp)
 1000030:	d8c00415 	stw	r3,16(sp)
        stw   r4,  20(sp)
 1000034:	d9000515 	stw	r4,20(sp)
        stw   r5,  24(sp)
 1000038:	d9400615 	stw	r5,24(sp)
        stw   r6,  28(sp)
 100003c:	d9800715 	stw	r6,28(sp)
        stw   r7,  32(sp)
 1000040:	d9c00815 	stw	r7,32(sp)

        rdctl r5, estatus
 1000044:	000b307a 	rdctl	r5,estatus

        stw   r8,  36(sp)
 1000048:	da000915 	stw	r8,36(sp)
        stw   r9,  40(sp)
 100004c:	da400a15 	stw	r9,40(sp)
        stw   r10, 44(sp)
 1000050:	da800b15 	stw	r10,44(sp)
        stw   r11, 48(sp)
 1000054:	dac00c15 	stw	r11,48(sp)
        stw   r12, 52(sp)
 1000058:	db000d15 	stw	r12,52(sp)
        stw   r13, 56(sp)
 100005c:	db400e15 	stw	r13,56(sp)
        stw   r14, 60(sp)
 1000060:	db800f15 	stw	r14,60(sp)
        stw   r15, 64(sp)
 1000064:	dbc01015 	stw	r15,64(sp)
        /*
         * ea-4 contains the address of the instruction being executed
         * when the exception occured. For interrupt exceptions, we will
         * will be re-issue the isntruction. Store it in 72(sp)
         */
        stw   r5,  68(sp)  /* estatus */
 1000068:	d9401115 	stw	r5,68(sp)
        addi  r15, ea, -4  /* instruction that caused exception */
 100006c:	ebffff04 	addi	r15,ea,-4
        stw   r15,  72(sp)
 1000070:	dbc01215 	stw	r15,72(sp)
#else
        /*
         * Test to see if the exception was a software exception or caused 
         * by an external interrupt, and vector accordingly.
         */
        rdctl r4, ipending
 1000074:	0009313a 	rdctl	r4,ipending
        andi  r2, r5, 1
 1000078:	2880004c 	andi	r2,r5,1
        beq   r2, zero, .Lnot_irq
 100007c:	10000326 	beq	r2,zero,100008c <alt_exception+0x6c>
        beq   r4, zero, .Lnot_irq
 1000080:	20000226 	beq	r4,zero,100008c <alt_exception+0x6c>
        /*
         * Now that all necessary registers have been preserved, call 
         * alt_irq_handler() to process the interrupts.
         */

        call alt_irq_handler
 1000084:	10000ec0 	call	10000ec <alt_irq_handler>

        .section .exceptions.irqreturn, "xa"

        br    .Lexception_exit
 1000088:	00000306 	br	1000098 <alt_exception+0x78>
         * upon completion, so we write ea (address of instruction *after*
         * the one where the exception occured) into 72(sp). The actual
         * instruction that caused the exception is written in r2, which these
         * handlers will utilize.
         */
        stw   ea,  72(sp)  /* Don't re-issue */
 100008c:	df401215 	stw	ea,72(sp)
        ldw   r2, -4(ea)   /* Instruction that caused exception */
 1000090:	e8bfff17 	ldw	r2,-4(ea)
#ifdef NIOS2_HAS_DEBUG_STUB
       /*
        *  Either tell the user now (if there is a debugger attached) or go into
        *  the debug monitor which will loop until a debugger is attached.
        */
        break
 1000094:	003da03a 	break	0
        /* 
         * Restore the saved registers, so that all general purpose registers 
         * have been restored to their state at the time the interrupt occured.
         */

        ldw   r5,  68(sp)
 1000098:	d9401117 	ldw	r5,68(sp)
        ldw   ea,  72(sp)  /* This becomes the PC once eret is executed */
 100009c:	df401217 	ldw	ea,72(sp)
        ldw   ra,   0(sp)
 10000a0:	dfc00017 	ldw	ra,0(sp)

        wrctl estatus, r5
 10000a4:	2801707a 	wrctl	estatus,r5

        ldw   r1,   8(sp)
 10000a8:	d8400217 	ldw	at,8(sp)
        ldw   r2,  12(sp)
 10000ac:	d8800317 	ldw	r2,12(sp)
        ldw   r3,  16(sp)
 10000b0:	d8c00417 	ldw	r3,16(sp)
        ldw   r4,  20(sp)
 10000b4:	d9000517 	ldw	r4,20(sp)
        ldw   r5,  24(sp)
 10000b8:	d9400617 	ldw	r5,24(sp)
        ldw   r6,  28(sp)
 10000bc:	d9800717 	ldw	r6,28(sp)
        ldw   r7,  32(sp)
 10000c0:	d9c00817 	ldw	r7,32(sp)
#ifdef ALT_STACK_CHECK
        ldw   et, %gprel(alt_exception_old_stack_limit)(gp)
#endif
#endif

        ldw   r8,  36(sp)
 10000c4:	da000917 	ldw	r8,36(sp)
        ldw   r9,  40(sp)
 10000c8:	da400a17 	ldw	r9,40(sp)
        ldw   r10, 44(sp)
 10000cc:	da800b17 	ldw	r10,44(sp)
        ldw   r11, 48(sp)
 10000d0:	dac00c17 	ldw	r11,48(sp)
        ldw   r12, 52(sp)
 10000d4:	db000d17 	ldw	r12,52(sp)
        ldw   r13, 56(sp)
 10000d8:	db400e17 	ldw	r13,56(sp)
        ldw   r14, 60(sp)
 10000dc:	db800f17 	ldw	r14,60(sp)
        ldw   r15, 64(sp)
 10000e0:	dbc01017 	ldw	r15,64(sp)
#endif

        ldw   sp,  76(sp)

#else
        addi  sp, sp, 76
 10000e4:	dec01304 	addi	sp,sp,76

        /*
         * Return to the interrupted instruction.
         */

        eret
 10000e8:	ef80083a 	eret

010000ec <alt_irq_handler>:
 * instruction is present if the macro ALT_CI_INTERRUPT_VECTOR defined.
 */

void alt_irq_handler (void) __attribute__ ((section (".exceptions")));
void alt_irq_handler (void)
{
 10000ec:	defff904 	addi	sp,sp,-28
 10000f0:	dfc00615 	stw	ra,24(sp)
 10000f4:	df000515 	stw	fp,20(sp)
 10000f8:	df000504 	addi	fp,sp,20
#ifndef NIOS2_EIC_PRESENT
static ALT_INLINE alt_u32 ALT_ALWAYS_INLINE alt_irq_pending (void)
{
  alt_u32 active;

  NIOS2_READ_IPENDING (active);
 10000fc:	0005313a 	rdctl	r2,ipending
 1000100:	e0bffc15 	stw	r2,-16(fp)

  return active;
 1000104:	e0bffc17 	ldw	r2,-16(fp)
   * Consider the case where the high priority interupt is asserted during
   * the interrupt entry sequence for a lower priority interrupt to see why
   * this is the case.
   */

  active = alt_irq_pending ();
 1000108:	e0bfff15 	stw	r2,-4(fp)

  do
  {
    i = 0;
 100010c:	e03ffd15 	stw	zero,-12(fp)
    mask = 1;
 1000110:	00800044 	movi	r2,1
 1000114:	e0bffe15 	stw	r2,-8(fp)
     * called to clear the interrupt condition.
     */

    do
    {
      if (active & mask)
 1000118:	e0ffff17 	ldw	r3,-4(fp)
 100011c:	e0bffe17 	ldw	r2,-8(fp)
 1000120:	1884703a 	and	r2,r3,r2
 1000124:	1005003a 	cmpeq	r2,r2,zero
 1000128:	1000161e 	bne	r2,zero,1000184 <alt_irq_handler+0x98>
      { 
#ifdef ALT_ENHANCED_INTERRUPT_API_PRESENT
        alt_irq[i].handler(alt_irq[i].context); 
 100012c:	e0bffd17 	ldw	r2,-12(fp)
 1000130:	00c04174 	movhi	r3,261
 1000134:	18e84204 	addi	r3,r3,-24312
 1000138:	100490fa 	slli	r2,r2,3
 100013c:	10c5883a 	add	r2,r2,r3
 1000140:	11400017 	ldw	r5,0(r2)
 1000144:	e0bffd17 	ldw	r2,-12(fp)
 1000148:	00c04174 	movhi	r3,261
 100014c:	18e84204 	addi	r3,r3,-24312
 1000150:	100490fa 	slli	r2,r2,3
 1000154:	10c5883a 	add	r2,r2,r3
 1000158:	10800104 	addi	r2,r2,4
 100015c:	11000017 	ldw	r4,0(r2)
 1000160:	283ee83a 	callr	r5
#ifndef NIOS2_EIC_PRESENT
static ALT_INLINE alt_u32 ALT_ALWAYS_INLINE alt_irq_pending (void)
{
  alt_u32 active;

  NIOS2_READ_IPENDING (active);
 1000164:	0005313a 	rdctl	r2,ipending
 1000168:	e0bffb15 	stw	r2,-20(fp)

  return active;
 100016c:	e0bffb17 	ldw	r2,-20(fp)
      mask <<= 1;
      i++;

    } while (1);

    active = alt_irq_pending ();
 1000170:	e0bfff15 	stw	r2,-4(fp)
    
  } while (active);
 1000174:	e0bfff17 	ldw	r2,-4(fp)
 1000178:	1004c03a 	cmpne	r2,r2,zero
 100017c:	103fe31e 	bne	r2,zero,100010c <alt_irq_handler+0x20>
 1000180:	00000706 	br	10001a0 <alt_irq_handler+0xb4>
#else
        alt_irq[i].handler(alt_irq[i].context, i); 
#endif
        break;
      }
      mask <<= 1;
 1000184:	e0bffe17 	ldw	r2,-8(fp)
 1000188:	1085883a 	add	r2,r2,r2
 100018c:	e0bffe15 	stw	r2,-8(fp)
      i++;
 1000190:	e0bffd17 	ldw	r2,-12(fp)
 1000194:	10800044 	addi	r2,r2,1
 1000198:	e0bffd15 	stw	r2,-12(fp)

    } while (1);
 100019c:	003fde06 	br	1000118 <alt_irq_handler+0x2c>
  /*
   * Notify the operating system that interrupt processing is complete.
   */ 

  ALT_OS_INT_EXIT();
}
 10001a0:	e037883a 	mov	sp,fp
 10001a4:	dfc00117 	ldw	ra,4(sp)
 10001a8:	df000017 	ldw	fp,0(sp)
 10001ac:	dec00204 	addi	sp,sp,8
 10001b0:	f800283a 	ret

Disassembly of section .text:

010001b4 <_start>:
#if (NIOS2_NUM_OF_SHADOW_REG_SETS == 0)    
    /*
     * Now that the caches are initialized, set up the stack pointer.
     * The value provided by the linker is assumed to be correctly aligned.
     */
    movhi sp, %hi(__alt_stack_pointer)
 10001b4:	06c06034 	movhi	sp,384
    ori sp, sp, %lo(__alt_stack_pointer)
 10001b8:	dec00014 	ori	sp,sp,0

    /* Set up the global pointer. */
    movhi gp, %hi(_gp)
 10001bc:	06804174 	movhi	gp,261
    ori gp, gp, %lo(_gp)
 10001c0:	d6815814 	ori	gp,gp,1376
 */
#ifndef ALT_SIM_OPTIMIZE
    /* Log that the BSS is about to be cleared. */
    ALT_LOG_PUTS(alt_log_msg_bss)

    movhi r2, %hi(__bss_start)
 10001c4:	00804134 	movhi	r2,260
    ori r2, r2, %lo(__bss_start)
 10001c8:	10a82614 	ori	r2,r2,41112

    movhi r3, %hi(__bss_end)
 10001cc:	00c04134 	movhi	r3,260
    ori r3, r3, %lo(__bss_end)
 10001d0:	18e8e614 	ori	r3,r3,41880

    beq r2, r3, 1f
 10001d4:	10c00326 	beq	r2,r3,10001e4 <_start+0x30>

0:
    stw zero, (r2)
 10001d8:	10000015 	stw	zero,0(r2)
    addi r2, r2, 4
 10001dc:	10800104 	addi	r2,r2,4
    bltu r2, r3, 0b
 10001e0:	10fffd36 	bltu	r2,r3,10001d8 <_start+0x24>
     * section aren't defined until alt_load() has been called).
     */
    mov   et, zero
#endif

    call alt_load
 10001e4:	100ebfc0 	call	100ebfc <alt_load>

    /* Log that alt_main is about to be called. */
    ALT_LOG_PUTS(alt_log_msg_alt_main)

    /* Call the C entry point. It should never return. */
    call alt_main
 10001e8:	100ee3c0 	call	100ee3c <alt_main>

010001ec <alt_after_alt_main>:

    /* Wait in infinite loop in case alt_main does return. */
alt_after_alt_main:
    br alt_after_alt_main
 10001ec:	003fff06 	br	10001ec <alt_after_alt_main>

010001f0 <main>:
void draw_player2(alt_up_pixel_buffer_dma_dev* pixel_buffer, int x, int y );
void draw_bmp(alt_up_pixel_buffer_dma_dev* pixel_buffer, unsigned short *pixel_data, int image_width, int image_height, int x, int y);
void animate_cannon1_shot(alt_up_pixel_buffer_dma_dev* pixel_buffer);

int main(void)
{
 10001f0:	deffdc04 	addi	sp,sp,-144
 10001f4:	dfc02315 	stw	ra,140(sp)
 10001f8:	df002215 	stw	fp,136(sp)
 10001fc:	dc802115 	stw	r18,132(sp)
 1000200:	dc402015 	stw	r17,128(sp)
 1000204:	dc001f15 	stw	r16,124(sp)
 1000208:	df001f04 	addi	fp,sp,124
	//set up pixel buffer
	alt_up_pixel_buffer_dma_dev* pixel_buffer;
	pixel_buffer = alt_up_pixel_buffer_dma_open_dev("/dev/video_pixel_buffer_dma_0");
 100020c:	010040f4 	movhi	r4,259
 1000210:	21318e04 	addi	r4,r4,-14792
 1000214:	10105dc0 	call	10105dc <alt_up_pixel_buffer_dma_open_dev>
 1000218:	e0bfff15 	stw	r2,-4(fp)
	if (pixel_buffer == 0) {
 100021c:	e0bfff17 	ldw	r2,-4(fp)
 1000220:	1004c03a 	cmpne	r2,r2,zero
 1000224:	1000031e 	bne	r2,zero,1000234 <main+0x44>
		printf("error initializing pixel buffer (check name in alt_up_pixel_buffer_dma_open_dev)\n");
 1000228:	010040f4 	movhi	r4,259
 100022c:	21319604 	addi	r4,r4,-14760
 1000230:	10069cc0 	call	10069cc <puts>
	}
	alt_up_pixel_buffer_dma_change_back_buffer_address(pixel_buffer, SRAM_0_BASE);
 1000234:	e13fff17 	ldw	r4,-4(fp)
 1000238:	01400234 	movhi	r5,8
 100023c:	10107c80 	call	10107c8 <alt_up_pixel_buffer_dma_change_back_buffer_address>
	alt_up_pixel_buffer_dma_swap_buffers(pixel_buffer);
 1000240:	e13fff17 	ldw	r4,-4(fp)
 1000244:	10108200 	call	1010820 <alt_up_pixel_buffer_dma_swap_buffers>
	while (alt_up_pixel_buffer_dma_check_swap_buffers_status(pixel_buffer));
 1000248:	e13fff17 	ldw	r4,-4(fp)
 100024c:	10108780 	call	1010878 <alt_up_pixel_buffer_dma_check_swap_buffers_status>
 1000250:	1004c03a 	cmpne	r2,r2,zero
 1000254:	103ffc1e 	bne	r2,zero,1000248 <main+0x58>
	alt_up_pixel_buffer_dma_clear_screen(pixel_buffer, 0);
 1000258:	e13fff17 	ldw	r4,-4(fp)
 100025c:	000b883a 	mov	r5,zero
 1000260:	10108ac0 	call	10108ac <alt_up_pixel_buffer_dma_clear_screen>
	srand(time(NULL));
 1000264:	0009883a 	mov	r4,zero
 1000268:	1006b580 	call	1006b58 <time>
 100026c:	1009883a 	mov	r4,r2
 1000270:	10069e00 	call	10069e0 <srand>

	draw_box_1(0, 0, 320, 240, BACKGROUND); //draw white background
 1000274:	00b3ffd4 	movui	r2,53247
 1000278:	d8800015 	stw	r2,0(sp)
 100027c:	0009883a 	mov	r4,zero
 1000280:	000b883a 	mov	r5,zero
 1000284:	01805004 	movi	r6,320
 1000288:	01c03c04 	movi	r7,240
 100028c:	10008a80 	call	10008a8 <draw_box_1>
	draw_ground(pixel_buffer, 0, 240-GROUND_HEIGHT);
 1000290:	e13fff17 	ldw	r4,-4(fp)
 1000294:	000b883a 	mov	r5,zero
 1000298:	01803484 	movi	r6,210
 100029c:	1000adc0 	call	1000adc <draw_ground>

	draw_player1(pixel_buffer, 0, 240-GROUND_HEIGHT-PLAYER_1_HEIGHT);
 10002a0:	e13fff17 	ldw	r4,-4(fp)
 10002a4:	000b883a 	mov	r5,zero
 10002a8:	01802e44 	movi	r6,185
 10002ac:	1000be80 	call	1000be8 <draw_player1>
	draw_player2(pixel_buffer, 320-PLAYER_2_WIDTH, 240-GROUND_HEIGHT-PLAYER_2_HEIGHT);
 10002b0:	e13fff17 	ldw	r4,-4(fp)
 10002b4:	01404b04 	movi	r5,300
 10002b8:	01802e44 	movi	r6,185
 10002bc:	1000cf40 	call	1000cf4 <draw_player2>
	draw_cannon1(pixel_buffer, PLAYER_1_WIDTH, 240-GROUND_HEIGHT-CANNON_1_HEIGHT);
 10002c0:	e13fff17 	ldw	r4,-4(fp)
 10002c4:	01400504 	movi	r5,20
 10002c8:	01802e44 	movi	r6,185
 10002cc:	1000e000 	call	1000e00 <draw_cannon1>
	draw_cannon2(pixel_buffer, 320-PLAYER_2_WIDTH-CANNON_2_WIDTH, 240-GROUND_HEIGHT-CANNON_1_HEIGHT);
 10002d0:	e13fff17 	ldw	r4,-4(fp)
 10002d4:	014044c4 	movi	r5,275
 10002d8:	01802e44 	movi	r6,185
 10002dc:	10012b40 	call	10012b4 <draw_cannon2>

	draw_p1box(pixel_buffer, 5, 240-P1BOX_HEIGHT-5);
 10002e0:	e13fff17 	ldw	r4,-4(fp)
 10002e4:	01400144 	movi	r5,5
 10002e8:	01803704 	movi	r6,220
 10002ec:	10016d80 	call	10016d8 <draw_p1box>
	draw_p2box(pixel_buffer, 320-5-P2BOX_WIDTH, 240-P1BOX_HEIGHT-5);
 10002f0:	e13fff17 	ldw	r4,-4(fp)
 10002f4:	014038c4 	movi	r5,227
 10002f8:	01803704 	movi	r6,220
 10002fc:	10017a00 	call	10017a0 <draw_p2box>

	double velocity = 60;
 1000300:	e03ffd15 	stw	zero,-12(fp)
 1000304:	009013b4 	movhi	r2,16462
 1000308:	e0bffe15 	stw	r2,-8(fp)
	double angle = 50;
 100030c:	e03ffb15 	stw	zero,-20(fp)
 1000310:	00901274 	movhi	r2,16457
 1000314:	e0bffc15 	stw	r2,-16(fp)
	double theta = angle*3.14/180;
 1000318:	e13ffb17 	ldw	r4,-20(fp)
 100031c:	e17ffc17 	ldw	r5,-16(fp)
 1000320:	01947b34 	movhi	r6,20972
 1000324:	31a147c4 	addi	r6,r6,-31457
 1000328:	01d00274 	movhi	r7,16393
 100032c:	39c7ae04 	addi	r7,r7,7864
 1000330:	1004e7c0 	call	1004e7c <__muldf3>
 1000334:	1009883a 	mov	r4,r2
 1000338:	180b883a 	mov	r5,r3
 100033c:	2005883a 	mov	r2,r4
 1000340:	2807883a 	mov	r3,r5
 1000344:	1009883a 	mov	r4,r2
 1000348:	180b883a 	mov	r5,r3
 100034c:	000d883a 	mov	r6,zero
 1000350:	01d019f4 	movhi	r7,16487
 1000354:	39e00004 	addi	r7,r7,-32768
 1000358:	10052400 	call	1005240 <__divdf3>
 100035c:	1009883a 	mov	r4,r2
 1000360:	180b883a 	mov	r5,r3
 1000364:	e13ff915 	stw	r4,-28(fp)
 1000368:	e17ffa15 	stw	r5,-24(fp)
	double x;
	double y;
	double cannonX;
	double cannonY = 240-GROUND_HEIGHT-CANNON_1_HEIGHT-5;
 100036c:	e03ff115 	stw	zero,-60(fp)
 1000370:	009019f4 	movhi	r2,16487
 1000374:	10a00004 	addi	r2,r2,-32768
 1000378:	e0bff215 	stw	r2,-56(fp)
	int player = 1;
 100037c:	00800044 	movi	r2,1
 1000380:	e0bff015 	stw	r2,-64(fp)

	double x1_old,y1_old,x2_old,y2_old;
	double timeScale=0.2;
 1000384:	00a666b4 	movhi	r2,39322
 1000388:	10a66684 	addi	r2,r2,-26214
 100038c:	e0bfe615 	stw	r2,-104(fp)
 1000390:	008ff2b4 	movhi	r2,16330
 1000394:	10a66644 	addi	r2,r2,-26215
 1000398:	e0bfe715 	stw	r2,-100(fp)
	double totalTime = 2*velocity*sin(theta)/9.8;
 100039c:	e0bffd17 	ldw	r2,-12(fp)
 10003a0:	e0fffe17 	ldw	r3,-8(fp)
 10003a4:	1009883a 	mov	r4,r2
 10003a8:	180b883a 	mov	r5,r3
 10003ac:	100d883a 	mov	r6,r2
 10003b0:	180f883a 	mov	r7,r3
 10003b4:	1004e080 	call	1004e08 <__adddf3>
 10003b8:	1009883a 	mov	r4,r2
 10003bc:	180b883a 	mov	r5,r3
 10003c0:	2021883a 	mov	r16,r4
 10003c4:	2823883a 	mov	r17,r5
 10003c8:	e13ff917 	ldw	r4,-28(fp)
 10003cc:	e17ffa17 	ldw	r5,-24(fp)
 10003d0:	10024dc0 	call	10024dc <sin>
 10003d4:	100f883a 	mov	r7,r2
 10003d8:	1811883a 	mov	r8,r3
 10003dc:	8009883a 	mov	r4,r16
 10003e0:	880b883a 	mov	r5,r17
 10003e4:	380d883a 	mov	r6,r7
 10003e8:	400f883a 	mov	r7,r8
 10003ec:	1004e7c0 	call	1004e7c <__muldf3>
 10003f0:	1009883a 	mov	r4,r2
 10003f4:	180b883a 	mov	r5,r3
 10003f8:	2005883a 	mov	r2,r4
 10003fc:	2807883a 	mov	r3,r5
 1000400:	1009883a 	mov	r4,r2
 1000404:	180b883a 	mov	r5,r3
 1000408:	01a666b4 	movhi	r6,39322
 100040c:	31a66684 	addi	r6,r6,-26214
 1000410:	01d00934 	movhi	r7,16420
 1000414:	39e66644 	addi	r7,r7,-26215
 1000418:	10052400 	call	1005240 <__divdf3>
 100041c:	1009883a 	mov	r4,r2
 1000420:	180b883a 	mov	r5,r3
 1000424:	e13fe415 	stw	r4,-112(fp)
 1000428:	e17fe515 	stw	r5,-108(fp)
	printf("Total Time = %f\n",totalTime);
 100042c:	010040f4 	movhi	r4,259
 1000430:	2131ab04 	addi	r4,r4,-14676
 1000434:	e17fe417 	ldw	r5,-112(fp)
 1000438:	e1bfe517 	ldw	r6,-108(fp)
 100043c:	10068b40 	call	10068b4 <printf>
	double t = 0;
 1000440:	e03fe215 	stw	zero,-120(fp)
 1000444:	e03fe315 	stw	zero,-116(fp)
	while(1){

		t=0;
 1000448:	e03fe215 	stw	zero,-120(fp)
 100044c:	e03fe315 	stw	zero,-116(fp)
		if(player==1){
 1000450:	e0bff017 	ldw	r2,-64(fp)
 1000454:	10800058 	cmpnei	r2,r2,1
 1000458:	1000071e 	bne	r2,zero,1000478 <main+0x288>
				animate_cannon1_shot(pixel_buffer);
 100045c:	e13fff17 	ldw	r4,-4(fp)
 1000460:	10011240 	call	1001124 <animate_cannon1_shot>
				cannonX = PLAYER_1_WIDTH + CANNON_1_WIDTH;
 1000464:	e03ff315 	stw	zero,-52(fp)
 1000468:	009011f4 	movhi	r2,16455
 100046c:	10a00004 	addi	r2,r2,-32768
 1000470:	e0bff415 	stw	r2,-48(fp)
 1000474:	00010006 	br	1000878 <main+0x688>
			}else{
				animate_cannon2_shot(pixel_buffer);
 1000478:	e13fff17 	ldw	r4,-4(fp)
 100047c:	10011ec0 	call	10011ec <animate_cannon2_shot>
				cannonX=320-PLAYER_2_WIDTH - CANNON_2_WIDTH;;
 1000480:	e03ff315 	stw	zero,-52(fp)
 1000484:	00901c74 	movhi	r2,16497
 1000488:	108c0004 	addi	r2,r2,12288
 100048c:	e0bff415 	stw	r2,-48(fp)
			}

		while(t<totalTime){
 1000490:	0000f906 	br	1000878 <main+0x688>
			if(player==1){
 1000494:	e0bff017 	ldw	r2,-64(fp)
 1000498:	10800058 	cmpnei	r2,r2,1
 100049c:	1000211e 	bne	r2,zero,1000524 <main+0x334>
				x = cannonX+velocity*t*cos(theta);
 10004a0:	e13ffd17 	ldw	r4,-12(fp)
 10004a4:	e17ffe17 	ldw	r5,-8(fp)
 10004a8:	e1bfe217 	ldw	r6,-120(fp)
 10004ac:	e1ffe317 	ldw	r7,-116(fp)
 10004b0:	1004e7c0 	call	1004e7c <__muldf3>
 10004b4:	1009883a 	mov	r4,r2
 10004b8:	180b883a 	mov	r5,r3
 10004bc:	2021883a 	mov	r16,r4
 10004c0:	2823883a 	mov	r17,r5
 10004c4:	e13ff917 	ldw	r4,-28(fp)
 10004c8:	e17ffa17 	ldw	r5,-24(fp)
 10004cc:	10023740 	call	1002374 <cos>
 10004d0:	100f883a 	mov	r7,r2
 10004d4:	1811883a 	mov	r8,r3
 10004d8:	8009883a 	mov	r4,r16
 10004dc:	880b883a 	mov	r5,r17
 10004e0:	380d883a 	mov	r6,r7
 10004e4:	400f883a 	mov	r7,r8
 10004e8:	1004e7c0 	call	1004e7c <__muldf3>
 10004ec:	1009883a 	mov	r4,r2
 10004f0:	180b883a 	mov	r5,r3
 10004f4:	2005883a 	mov	r2,r4
 10004f8:	2807883a 	mov	r3,r5
 10004fc:	1009883a 	mov	r4,r2
 1000500:	180b883a 	mov	r5,r3
 1000504:	e1bff317 	ldw	r6,-52(fp)
 1000508:	e1fff417 	ldw	r7,-48(fp)
 100050c:	1004e080 	call	1004e08 <__adddf3>
 1000510:	1009883a 	mov	r4,r2
 1000514:	180b883a 	mov	r5,r3
 1000518:	e13ff715 	stw	r4,-36(fp)
 100051c:	e17ff815 	stw	r5,-32(fp)
 1000520:	00002006 	br	10005a4 <main+0x3b4>
			}else{
				x = cannonX-velocity*t*cos(theta);
 1000524:	e13ffd17 	ldw	r4,-12(fp)
 1000528:	e17ffe17 	ldw	r5,-8(fp)
 100052c:	e1bfe217 	ldw	r6,-120(fp)
 1000530:	e1ffe317 	ldw	r7,-116(fp)
 1000534:	1004e7c0 	call	1004e7c <__muldf3>
 1000538:	1009883a 	mov	r4,r2
 100053c:	180b883a 	mov	r5,r3
 1000540:	2021883a 	mov	r16,r4
 1000544:	2823883a 	mov	r17,r5
 1000548:	e13ff917 	ldw	r4,-28(fp)
 100054c:	e17ffa17 	ldw	r5,-24(fp)
 1000550:	10023740 	call	1002374 <cos>
 1000554:	100f883a 	mov	r7,r2
 1000558:	1811883a 	mov	r8,r3
 100055c:	8009883a 	mov	r4,r16
 1000560:	880b883a 	mov	r5,r17
 1000564:	380d883a 	mov	r6,r7
 1000568:	400f883a 	mov	r7,r8
 100056c:	1004e7c0 	call	1004e7c <__muldf3>
 1000570:	1009883a 	mov	r4,r2
 1000574:	180b883a 	mov	r5,r3
 1000578:	2005883a 	mov	r2,r4
 100057c:	2807883a 	mov	r3,r5
 1000580:	e13ff317 	ldw	r4,-52(fp)
 1000584:	e17ff417 	ldw	r5,-48(fp)
 1000588:	100d883a 	mov	r6,r2
 100058c:	180f883a 	mov	r7,r3
 1000590:	1004d880 	call	1004d88 <__subdf3>
 1000594:	1009883a 	mov	r4,r2
 1000598:	180b883a 	mov	r5,r3
 100059c:	e13ff715 	stw	r4,-36(fp)
 10005a0:	e17ff815 	stw	r5,-32(fp)
			}
			y = cannonY-(velocity*t*sin(theta) - 4.9*t*t);
 10005a4:	e13ffd17 	ldw	r4,-12(fp)
 10005a8:	e17ffe17 	ldw	r5,-8(fp)
 10005ac:	e1bfe217 	ldw	r6,-120(fp)
 10005b0:	e1ffe317 	ldw	r7,-116(fp)
 10005b4:	1004e7c0 	call	1004e7c <__muldf3>
 10005b8:	1009883a 	mov	r4,r2
 10005bc:	180b883a 	mov	r5,r3
 10005c0:	2021883a 	mov	r16,r4
 10005c4:	2823883a 	mov	r17,r5
 10005c8:	e13ff917 	ldw	r4,-28(fp)
 10005cc:	e17ffa17 	ldw	r5,-24(fp)
 10005d0:	10024dc0 	call	10024dc <sin>
 10005d4:	100f883a 	mov	r7,r2
 10005d8:	1811883a 	mov	r8,r3
 10005dc:	8009883a 	mov	r4,r16
 10005e0:	880b883a 	mov	r5,r17
 10005e4:	380d883a 	mov	r6,r7
 10005e8:	400f883a 	mov	r7,r8
 10005ec:	1004e7c0 	call	1004e7c <__muldf3>
 10005f0:	1009883a 	mov	r4,r2
 10005f4:	180b883a 	mov	r5,r3
 10005f8:	2021883a 	mov	r16,r4
 10005fc:	2823883a 	mov	r17,r5
 1000600:	e13fe217 	ldw	r4,-120(fp)
 1000604:	e17fe317 	ldw	r5,-116(fp)
 1000608:	01a666b4 	movhi	r6,39322
 100060c:	31a66684 	addi	r6,r6,-26214
 1000610:	01f00534 	movhi	r7,49172
 1000614:	39e66644 	addi	r7,r7,-26215
 1000618:	1004e7c0 	call	1004e7c <__muldf3>
 100061c:	1009883a 	mov	r4,r2
 1000620:	180b883a 	mov	r5,r3
 1000624:	2005883a 	mov	r2,r4
 1000628:	2807883a 	mov	r3,r5
 100062c:	1009883a 	mov	r4,r2
 1000630:	180b883a 	mov	r5,r3
 1000634:	e1bfe217 	ldw	r6,-120(fp)
 1000638:	e1ffe317 	ldw	r7,-116(fp)
 100063c:	1004e7c0 	call	1004e7c <__muldf3>
 1000640:	1009883a 	mov	r4,r2
 1000644:	180b883a 	mov	r5,r3
 1000648:	2005883a 	mov	r2,r4
 100064c:	2807883a 	mov	r3,r5
 1000650:	8009883a 	mov	r4,r16
 1000654:	880b883a 	mov	r5,r17
 1000658:	100d883a 	mov	r6,r2
 100065c:	180f883a 	mov	r7,r3
 1000660:	1004e080 	call	1004e08 <__adddf3>
 1000664:	1009883a 	mov	r4,r2
 1000668:	180b883a 	mov	r5,r3
 100066c:	2005883a 	mov	r2,r4
 1000670:	2807883a 	mov	r3,r5
 1000674:	e13ff117 	ldw	r4,-60(fp)
 1000678:	e17ff217 	ldw	r5,-56(fp)
 100067c:	100d883a 	mov	r6,r2
 1000680:	180f883a 	mov	r7,r3
 1000684:	1004d880 	call	1004d88 <__subdf3>
 1000688:	1009883a 	mov	r4,r2
 100068c:	180b883a 	mov	r5,r3
 1000690:	e13ff515 	stw	r4,-44(fp)
 1000694:	e17ff615 	stw	r5,-40(fp)
			t+=timeScale;
 1000698:	e13fe217 	ldw	r4,-120(fp)
 100069c:	e17fe317 	ldw	r5,-116(fp)
 10006a0:	e1bfe617 	ldw	r6,-104(fp)
 10006a4:	e1ffe717 	ldw	r7,-100(fp)
 10006a8:	1004e080 	call	1004e08 <__adddf3>
 10006ac:	1009883a 	mov	r4,r2
 10006b0:	180b883a 	mov	r5,r3
 10006b4:	e13fe215 	stw	r4,-120(fp)
 10006b8:	e17fe315 	stw	r5,-116(fp)
			//alt_up_pixel_buffer_dma_clear_screen(pixel_buffer, 0);

			if(y<=187 && x >= 0){
 10006bc:	e13ff517 	ldw	r4,-44(fp)
 10006c0:	e17ff617 	ldw	r5,-40(fp)
 10006c4:	000d883a 	mov	r6,zero
 10006c8:	01d019f4 	movhi	r7,16487
 10006cc:	39d80004 	addi	r7,r7,24576
 10006d0:	10056b80 	call	10056b8 <__ledf2>
 10006d4:	10800050 	cmplti	r2,r2,1
 10006d8:	1000011e 	bne	r2,zero,10006e0 <main+0x4f0>
 10006dc:	00001306 	br	100072c <main+0x53c>
 10006e0:	e13ff717 	ldw	r4,-36(fp)
 10006e4:	e17ff817 	ldw	r5,-32(fp)
 10006e8:	000d883a 	mov	r6,zero
 10006ec:	000f883a 	mov	r7,zero
 10006f0:	10055a80 	call	10055a8 <__gedf2>
 10006f4:	1004403a 	cmpge	r2,r2,zero
 10006f8:	1000011e 	bne	r2,zero,1000700 <main+0x510>
 10006fc:	00000b06 	br	100072c <main+0x53c>
				draw_bomb(pixel_buffer, x, y );
 1000700:	e13ff717 	ldw	r4,-36(fp)
 1000704:	e17ff817 	ldw	r5,-32(fp)
 1000708:	10058380 	call	1005838 <__fixdfsi>
 100070c:	1021883a 	mov	r16,r2
 1000710:	e13ff517 	ldw	r4,-44(fp)
 1000714:	e17ff617 	ldw	r5,-40(fp)
 1000718:	10058380 	call	1005838 <__fixdfsi>
 100071c:	100d883a 	mov	r6,r2
 1000720:	e13fff17 	ldw	r4,-4(fp)
 1000724:	800b883a 	mov	r5,r16
 1000728:	10009d00 	call	10009d0 <draw_bomb>
			}
			if(t>0 && y<=187){
 100072c:	e13fe217 	ldw	r4,-120(fp)
 1000730:	e17fe317 	ldw	r5,-116(fp)
 1000734:	000d883a 	mov	r6,zero
 1000738:	000f883a 	mov	r7,zero
 100073c:	10055200 	call	1005520 <__gtdf2>
 1000740:	10800048 	cmpgei	r2,r2,1
 1000744:	1000011e 	bne	r2,zero,100074c <main+0x55c>
 1000748:	00003106 	br	1000810 <main+0x620>
 100074c:	e13ff517 	ldw	r4,-44(fp)
 1000750:	e17ff617 	ldw	r5,-40(fp)
 1000754:	000d883a 	mov	r6,zero
 1000758:	01d019f4 	movhi	r7,16487
 100075c:	39d80004 	addi	r7,r7,24576
 1000760:	10056b80 	call	10056b8 <__ledf2>
 1000764:	10800050 	cmplti	r2,r2,1
 1000768:	1000011e 	bne	r2,zero,1000770 <main+0x580>
 100076c:	00002806 	br	1000810 <main+0x620>
				draw_box_1(x1_old, y1_old, x1_old+BOMB_WIDTH, y1_old+BOMB_HEIGHT, BACKGROUND);
 1000770:	e13fee17 	ldw	r4,-72(fp)
 1000774:	e17fef17 	ldw	r5,-68(fp)
 1000778:	10058380 	call	1005838 <__fixdfsi>
 100077c:	1021883a 	mov	r16,r2
 1000780:	e13fec17 	ldw	r4,-80(fp)
 1000784:	e17fed17 	ldw	r5,-76(fp)
 1000788:	10058380 	call	1005838 <__fixdfsi>
 100078c:	1023883a 	mov	r17,r2
 1000790:	e13fee17 	ldw	r4,-72(fp)
 1000794:	e17fef17 	ldw	r5,-68(fp)
 1000798:	000d883a 	mov	r6,zero
 100079c:	01d00534 	movhi	r7,16404
 10007a0:	1004e080 	call	1004e08 <__adddf3>
 10007a4:	1009883a 	mov	r4,r2
 10007a8:	180b883a 	mov	r5,r3
 10007ac:	2005883a 	mov	r2,r4
 10007b0:	2807883a 	mov	r3,r5
 10007b4:	1009883a 	mov	r4,r2
 10007b8:	180b883a 	mov	r5,r3
 10007bc:	10058380 	call	1005838 <__fixdfsi>
 10007c0:	1025883a 	mov	r18,r2
 10007c4:	e13fec17 	ldw	r4,-80(fp)
 10007c8:	e17fed17 	ldw	r5,-76(fp)
 10007cc:	000d883a 	mov	r6,zero
 10007d0:	01d00434 	movhi	r7,16400
 10007d4:	1004e080 	call	1004e08 <__adddf3>
 10007d8:	1009883a 	mov	r4,r2
 10007dc:	180b883a 	mov	r5,r3
 10007e0:	2005883a 	mov	r2,r4
 10007e4:	2807883a 	mov	r3,r5
 10007e8:	1009883a 	mov	r4,r2
 10007ec:	180b883a 	mov	r5,r3
 10007f0:	10058380 	call	1005838 <__fixdfsi>
 10007f4:	100f883a 	mov	r7,r2
 10007f8:	00b3ffd4 	movui	r2,53247
 10007fc:	d8800015 	stw	r2,0(sp)
 1000800:	8009883a 	mov	r4,r16
 1000804:	880b883a 	mov	r5,r17
 1000808:	900d883a 	mov	r6,r18
 100080c:	10008a80 	call	10008a8 <draw_box_1>
			}
			x1_old = x;
 1000810:	e0bff717 	ldw	r2,-36(fp)
 1000814:	e0bfee15 	stw	r2,-72(fp)
 1000818:	e0bff817 	ldw	r2,-32(fp)
 100081c:	e0bfef15 	stw	r2,-68(fp)
			y1_old = y;
 1000820:	e0bff517 	ldw	r2,-44(fp)
 1000824:	e0bfec15 	stw	r2,-80(fp)
 1000828:	e0bff617 	ldw	r2,-40(fp)
 100082c:	e0bfed15 	stw	r2,-76(fp)
			x2_old = x+3;
 1000830:	e13ff717 	ldw	r4,-36(fp)
 1000834:	e17ff817 	ldw	r5,-32(fp)
 1000838:	000d883a 	mov	r6,zero
 100083c:	01d00234 	movhi	r7,16392
 1000840:	1004e080 	call	1004e08 <__adddf3>
 1000844:	1009883a 	mov	r4,r2
 1000848:	180b883a 	mov	r5,r3
 100084c:	e13fea15 	stw	r4,-88(fp)
 1000850:	e17feb15 	stw	r5,-84(fp)
			y2_old = y-3;
 1000854:	e13ff517 	ldw	r4,-44(fp)
 1000858:	e17ff617 	ldw	r5,-40(fp)
 100085c:	000d883a 	mov	r6,zero
 1000860:	01d00234 	movhi	r7,16392
 1000864:	1004d880 	call	1004d88 <__subdf3>
 1000868:	1009883a 	mov	r4,r2
 100086c:	180b883a 	mov	r5,r3
 1000870:	e13fe815 	stw	r4,-96(fp)
 1000874:	e17fe915 	stw	r5,-92(fp)
			}else{
				animate_cannon2_shot(pixel_buffer);
				cannonX=320-PLAYER_2_WIDTH - CANNON_2_WIDTH;;
			}

		while(t<totalTime){
 1000878:	e13fe217 	ldw	r4,-120(fp)
 100087c:	e17fe317 	ldw	r5,-116(fp)
 1000880:	e1bfe417 	ldw	r6,-112(fp)
 1000884:	e1ffe517 	ldw	r7,-108(fp)
 1000888:	10056300 	call	1005630 <__ltdf2>
 100088c:	1004803a 	cmplt	r2,r2,zero
 1000890:	103f001e 	bne	r2,zero,1000494 <main+0x2a4>
			y1_old = y;
			x2_old = x+3;
			y2_old = y-3;

		}
		player=1-player;
 1000894:	00800044 	movi	r2,1
 1000898:	e0fff017 	ldw	r3,-64(fp)
 100089c:	10c5c83a 	sub	r2,r2,r3
 10008a0:	e0bff015 	stw	r2,-64(fp)

		//draw_bmp(pixel_buffer, &P1WINS_pixel_data, 90, 60, 50, 10);
	}
 10008a4:	003ee806 	br	1000448 <main+0x258>

010008a8 <draw_box_1>:
    return 0;
}

void draw_box_1(int x_1, int y_1, int x_2, int y_2, unsigned int colour){
 10008a8:	defffb04 	addi	sp,sp,-20
 10008ac:	df000415 	stw	fp,16(sp)
 10008b0:	df000404 	addi	fp,sp,16
 10008b4:	e13ffc15 	stw	r4,-16(fp)
 10008b8:	e17ffd15 	stw	r5,-12(fp)
 10008bc:	e1bffe15 	stw	r6,-8(fp)
 10008c0:	e1ffff15 	stw	r7,-4(fp)
	IOWR_32DIRECT(drawer_base,0,x_1);
 10008c4:	00d80004 	movi	r3,24576
 10008c8:	e0bffc17 	ldw	r2,-16(fp)
 10008cc:	18800035 	stwio	r2,0(r3)
	IOWR_32DIRECT(drawer_base,4,y_1);
 10008d0:	00d80104 	movi	r3,24580
 10008d4:	e0bffd17 	ldw	r2,-12(fp)
 10008d8:	18800035 	stwio	r2,0(r3)
	IOWR_32DIRECT(drawer_base,8,x_2);
 10008dc:	00d80204 	movi	r3,24584
 10008e0:	e0bffe17 	ldw	r2,-8(fp)
 10008e4:	18800035 	stwio	r2,0(r3)
	IOWR_32DIRECT(drawer_base,12,y_2);
 10008e8:	00d80304 	movi	r3,24588
 10008ec:	e0bfff17 	ldw	r2,-4(fp)
 10008f0:	18800035 	stwio	r2,0(r3)
	IOWR_32DIRECT(drawer_base,16,colour);
 10008f4:	e0c00117 	ldw	r3,4(fp)
 10008f8:	00980404 	movi	r2,24592
 10008fc:	10c00035 	stwio	r3,0(r2)
	IOWR_32DIRECT(drawer_base,20,1);
 1000900:	00d80504 	movi	r3,24596
 1000904:	00800044 	movi	r2,1
 1000908:	18800035 	stwio	r2,0(r3)
	while(IORD_32DIRECT(drawer_base,20)==0);
 100090c:	00980504 	movi	r2,24596
 1000910:	10800037 	ldwio	r2,0(r2)
 1000914:	1005003a 	cmpeq	r2,r2,zero
 1000918:	103ffc1e 	bne	r2,zero,100090c <draw_box_1+0x64>
}
 100091c:	e037883a 	mov	sp,fp
 1000920:	df000017 	ldw	fp,0(sp)
 1000924:	dec00104 	addi	sp,sp,4
 1000928:	f800283a 	ret

0100092c <draw_ball_1>:

void draw_ball_1(int x, int y, unsigned int colour){
 100092c:	defffa04 	addi	sp,sp,-24
 1000930:	dfc00515 	stw	ra,20(sp)
 1000934:	df000415 	stw	fp,16(sp)
 1000938:	df000404 	addi	fp,sp,16
 100093c:	e13ffd15 	stw	r4,-12(fp)
 1000940:	e17ffe15 	stw	r5,-8(fp)
 1000944:	e1bfff15 	stw	r6,-4(fp)
	draw_box_1(x-2, y, x+2, y, colour);
 1000948:	e0bffd17 	ldw	r2,-12(fp)
 100094c:	113fff84 	addi	r4,r2,-2
 1000950:	e0bffd17 	ldw	r2,-12(fp)
 1000954:	11800084 	addi	r6,r2,2
 1000958:	e0bfff17 	ldw	r2,-4(fp)
 100095c:	d8800015 	stw	r2,0(sp)
 1000960:	e17ffe17 	ldw	r5,-8(fp)
 1000964:	e1fffe17 	ldw	r7,-8(fp)
 1000968:	10008a80 	call	10008a8 <draw_box_1>
	draw_box_1(x, y-2, x, y+2, colour);
 100096c:	e0bffe17 	ldw	r2,-8(fp)
 1000970:	117fff84 	addi	r5,r2,-2
 1000974:	e0bffe17 	ldw	r2,-8(fp)
 1000978:	11c00084 	addi	r7,r2,2
 100097c:	e0bfff17 	ldw	r2,-4(fp)
 1000980:	d8800015 	stw	r2,0(sp)
 1000984:	e13ffd17 	ldw	r4,-12(fp)
 1000988:	e1bffd17 	ldw	r6,-12(fp)
 100098c:	10008a80 	call	10008a8 <draw_box_1>
	draw_box_1(x-1, y-1, x+1, y+1, colour);
 1000990:	e0bffd17 	ldw	r2,-12(fp)
 1000994:	113fffc4 	addi	r4,r2,-1
 1000998:	e0bffe17 	ldw	r2,-8(fp)
 100099c:	117fffc4 	addi	r5,r2,-1
 10009a0:	e0bffd17 	ldw	r2,-12(fp)
 10009a4:	11800044 	addi	r6,r2,1
 10009a8:	e0bffe17 	ldw	r2,-8(fp)
 10009ac:	11c00044 	addi	r7,r2,1
 10009b0:	e0bfff17 	ldw	r2,-4(fp)
 10009b4:	d8800015 	stw	r2,0(sp)
 10009b8:	10008a80 	call	10008a8 <draw_box_1>
}
 10009bc:	e037883a 	mov	sp,fp
 10009c0:	dfc00117 	ldw	ra,4(sp)
 10009c4:	df000017 	ldw	fp,0(sp)
 10009c8:	dec00204 	addi	sp,sp,8
 10009cc:	f800283a 	ret

010009d0 <draw_bomb>:

void draw_bomb(alt_up_pixel_buffer_dma_dev* pixel_buffer, int x, int y ){
 10009d0:	defff804 	addi	sp,sp,-32
 10009d4:	dfc00715 	stw	ra,28(sp)
 10009d8:	df000615 	stw	fp,24(sp)
 10009dc:	df000604 	addi	fp,sp,24
 10009e0:	e13ffd15 	stw	r4,-12(fp)
 10009e4:	e17ffe15 	stw	r5,-8(fp)
 10009e8:	e1bfff15 	stw	r6,-4(fp)
	unsigned short * pixel_offset = malloc(sizeof(short)); //2 bytes
 10009ec:	01000084 	movi	r4,2
 10009f0:	10061600 	call	1006160 <malloc>
 10009f4:	e0bffc15 	stw	r2,-16(fp)
	pixel_offset = &BOMB_pixel_data; //set pointer to start of image data
 10009f8:	008040b4 	movhi	r2,258
 10009fc:	10bf8e04 	addi	r2,r2,-456
 1000a00:	e0bffc15 	stw	r2,-16(fp)
	int i, j;
	for(j=0; j <= BOMB_HEIGHT-1; j++){
 1000a04:	e03ffa15 	stw	zero,-24(fp)
 1000a08:	00002c06 	br	1000abc <draw_bomb+0xec>
		for(i=0; i <= BOMB_WIDTH-1; i++){
 1000a0c:	e03ffb15 	stw	zero,-20(fp)
 1000a10:	00002406 	br	1000aa4 <draw_bomb+0xd4>
			if(*pixel_offset == 0xFFFF){
 1000a14:	e0bffc17 	ldw	r2,-16(fp)
 1000a18:	1080000b 	ldhu	r2,0(r2)
 1000a1c:	10ffffcc 	andi	r3,r2,65535
 1000a20:	00bfffd4 	movui	r2,65535
 1000a24:	18800c1e 	bne	r3,r2,1000a58 <draw_bomb+0x88>
				alt_up_pixel_buffer_dma_draw(pixel_buffer, BACKGROUND, x+i, y+j); //if pixel is white, color it the backgroud color instead
 1000a28:	e0fffe17 	ldw	r3,-8(fp)
 1000a2c:	e0bffb17 	ldw	r2,-20(fp)
 1000a30:	1885883a 	add	r2,r3,r2
 1000a34:	100d883a 	mov	r6,r2
 1000a38:	e0ffff17 	ldw	r3,-4(fp)
 1000a3c:	e0bffa17 	ldw	r2,-24(fp)
 1000a40:	1885883a 	add	r2,r3,r2
 1000a44:	100f883a 	mov	r7,r2
 1000a48:	e13ffd17 	ldw	r4,-12(fp)
 1000a4c:	0173ffd4 	movui	r5,53247
 1000a50:	101061c0 	call	101061c <alt_up_pixel_buffer_dma_draw>
 1000a54:	00000d06 	br	1000a8c <draw_bomb+0xbc>
			}
			else{
				alt_up_pixel_buffer_dma_draw(pixel_buffer, *pixel_offset, x+i, y+j);
 1000a58:	e0bffc17 	ldw	r2,-16(fp)
 1000a5c:	1080000b 	ldhu	r2,0(r2)
 1000a60:	117fffcc 	andi	r5,r2,65535
 1000a64:	e0fffe17 	ldw	r3,-8(fp)
 1000a68:	e0bffb17 	ldw	r2,-20(fp)
 1000a6c:	1885883a 	add	r2,r3,r2
 1000a70:	100d883a 	mov	r6,r2
 1000a74:	e0ffff17 	ldw	r3,-4(fp)
 1000a78:	e0bffa17 	ldw	r2,-24(fp)
 1000a7c:	1885883a 	add	r2,r3,r2
 1000a80:	100f883a 	mov	r7,r2
 1000a84:	e13ffd17 	ldw	r4,-12(fp)
 1000a88:	101061c0 	call	101061c <alt_up_pixel_buffer_dma_draw>
			}
			pixel_offset++;
 1000a8c:	e0bffc17 	ldw	r2,-16(fp)
 1000a90:	10800084 	addi	r2,r2,2
 1000a94:	e0bffc15 	stw	r2,-16(fp)
void draw_bomb(alt_up_pixel_buffer_dma_dev* pixel_buffer, int x, int y ){
	unsigned short * pixel_offset = malloc(sizeof(short)); //2 bytes
	pixel_offset = &BOMB_pixel_data; //set pointer to start of image data
	int i, j;
	for(j=0; j <= BOMB_HEIGHT-1; j++){
		for(i=0; i <= BOMB_WIDTH-1; i++){
 1000a98:	e0bffb17 	ldw	r2,-20(fp)
 1000a9c:	10800044 	addi	r2,r2,1
 1000aa0:	e0bffb15 	stw	r2,-20(fp)
 1000aa4:	e0bffb17 	ldw	r2,-20(fp)
 1000aa8:	10800150 	cmplti	r2,r2,5
 1000aac:	103fd91e 	bne	r2,zero,1000a14 <draw_bomb+0x44>

void draw_bomb(alt_up_pixel_buffer_dma_dev* pixel_buffer, int x, int y ){
	unsigned short * pixel_offset = malloc(sizeof(short)); //2 bytes
	pixel_offset = &BOMB_pixel_data; //set pointer to start of image data
	int i, j;
	for(j=0; j <= BOMB_HEIGHT-1; j++){
 1000ab0:	e0bffa17 	ldw	r2,-24(fp)
 1000ab4:	10800044 	addi	r2,r2,1
 1000ab8:	e0bffa15 	stw	r2,-24(fp)
 1000abc:	e0bffa17 	ldw	r2,-24(fp)
 1000ac0:	10800110 	cmplti	r2,r2,4
 1000ac4:	103fd11e 	bne	r2,zero,1000a0c <draw_bomb+0x3c>
				alt_up_pixel_buffer_dma_draw(pixel_buffer, *pixel_offset, x+i, y+j);
			}
			pixel_offset++;
		}
	}
}
 1000ac8:	e037883a 	mov	sp,fp
 1000acc:	dfc00117 	ldw	ra,4(sp)
 1000ad0:	df000017 	ldw	fp,0(sp)
 1000ad4:	dec00204 	addi	sp,sp,8
 1000ad8:	f800283a 	ret

01000adc <draw_ground>:

void draw_ground(alt_up_pixel_buffer_dma_dev* pixel_buffer, int x, int y ){
 1000adc:	defff804 	addi	sp,sp,-32
 1000ae0:	dfc00715 	stw	ra,28(sp)
 1000ae4:	df000615 	stw	fp,24(sp)
 1000ae8:	df000604 	addi	fp,sp,24
 1000aec:	e13ffd15 	stw	r4,-12(fp)
 1000af0:	e17ffe15 	stw	r5,-8(fp)
 1000af4:	e1bfff15 	stw	r6,-4(fp)
	unsigned short * pixel_offset = malloc(sizeof(short)); //2 bytes
 1000af8:	01000084 	movi	r4,2
 1000afc:	10061600 	call	1006160 <malloc>
 1000b00:	e0bffc15 	stw	r2,-16(fp)
	pixel_offset = &GROUND_pixel_data; //set pointer to start of image data
 1000b04:	00804074 	movhi	r2,257
 1000b08:	108b2504 	addi	r2,r2,11412
 1000b0c:	e0bffc15 	stw	r2,-16(fp)
	int i, j;
	for(j=0; j <= GROUND_HEIGHT-1; j++){
 1000b10:	e03ffa15 	stw	zero,-24(fp)
 1000b14:	00002c06 	br	1000bc8 <draw_ground+0xec>
		for(i=0; i <= GROUND_WIDTH-1; i++){
 1000b18:	e03ffb15 	stw	zero,-20(fp)
 1000b1c:	00002406 	br	1000bb0 <draw_ground+0xd4>
			if(*pixel_offset == 0xFFFF){
 1000b20:	e0bffc17 	ldw	r2,-16(fp)
 1000b24:	1080000b 	ldhu	r2,0(r2)
 1000b28:	10ffffcc 	andi	r3,r2,65535
 1000b2c:	00bfffd4 	movui	r2,65535
 1000b30:	18800c1e 	bne	r3,r2,1000b64 <draw_ground+0x88>
				alt_up_pixel_buffer_dma_draw(pixel_buffer, BACKGROUND, x+i, y+j);
 1000b34:	e0fffe17 	ldw	r3,-8(fp)
 1000b38:	e0bffb17 	ldw	r2,-20(fp)
 1000b3c:	1885883a 	add	r2,r3,r2
 1000b40:	100d883a 	mov	r6,r2
 1000b44:	e0ffff17 	ldw	r3,-4(fp)
 1000b48:	e0bffa17 	ldw	r2,-24(fp)
 1000b4c:	1885883a 	add	r2,r3,r2
 1000b50:	100f883a 	mov	r7,r2
 1000b54:	e13ffd17 	ldw	r4,-12(fp)
 1000b58:	0173ffd4 	movui	r5,53247
 1000b5c:	101061c0 	call	101061c <alt_up_pixel_buffer_dma_draw>
 1000b60:	00000d06 	br	1000b98 <draw_ground+0xbc>
			}
			else{
				alt_up_pixel_buffer_dma_draw(pixel_buffer, *pixel_offset, x+i, y+j);
 1000b64:	e0bffc17 	ldw	r2,-16(fp)
 1000b68:	1080000b 	ldhu	r2,0(r2)
 1000b6c:	117fffcc 	andi	r5,r2,65535
 1000b70:	e0fffe17 	ldw	r3,-8(fp)
 1000b74:	e0bffb17 	ldw	r2,-20(fp)
 1000b78:	1885883a 	add	r2,r3,r2
 1000b7c:	100d883a 	mov	r6,r2
 1000b80:	e0ffff17 	ldw	r3,-4(fp)
 1000b84:	e0bffa17 	ldw	r2,-24(fp)
 1000b88:	1885883a 	add	r2,r3,r2
 1000b8c:	100f883a 	mov	r7,r2
 1000b90:	e13ffd17 	ldw	r4,-12(fp)
 1000b94:	101061c0 	call	101061c <alt_up_pixel_buffer_dma_draw>
			}
			pixel_offset++;
 1000b98:	e0bffc17 	ldw	r2,-16(fp)
 1000b9c:	10800084 	addi	r2,r2,2
 1000ba0:	e0bffc15 	stw	r2,-16(fp)
void draw_ground(alt_up_pixel_buffer_dma_dev* pixel_buffer, int x, int y ){
	unsigned short * pixel_offset = malloc(sizeof(short)); //2 bytes
	pixel_offset = &GROUND_pixel_data; //set pointer to start of image data
	int i, j;
	for(j=0; j <= GROUND_HEIGHT-1; j++){
		for(i=0; i <= GROUND_WIDTH-1; i++){
 1000ba4:	e0bffb17 	ldw	r2,-20(fp)
 1000ba8:	10800044 	addi	r2,r2,1
 1000bac:	e0bffb15 	stw	r2,-20(fp)
 1000bb0:	e0bffb17 	ldw	r2,-20(fp)
 1000bb4:	10805010 	cmplti	r2,r2,320
 1000bb8:	103fd91e 	bne	r2,zero,1000b20 <draw_ground+0x44>

void draw_ground(alt_up_pixel_buffer_dma_dev* pixel_buffer, int x, int y ){
	unsigned short * pixel_offset = malloc(sizeof(short)); //2 bytes
	pixel_offset = &GROUND_pixel_data; //set pointer to start of image data
	int i, j;
	for(j=0; j <= GROUND_HEIGHT-1; j++){
 1000bbc:	e0bffa17 	ldw	r2,-24(fp)
 1000bc0:	10800044 	addi	r2,r2,1
 1000bc4:	e0bffa15 	stw	r2,-24(fp)
 1000bc8:	e0bffa17 	ldw	r2,-24(fp)
 1000bcc:	10800790 	cmplti	r2,r2,30
 1000bd0:	103fd11e 	bne	r2,zero,1000b18 <draw_ground+0x3c>
				alt_up_pixel_buffer_dma_draw(pixel_buffer, *pixel_offset, x+i, y+j);
			}
			pixel_offset++;
		}
	}
}
 1000bd4:	e037883a 	mov	sp,fp
 1000bd8:	dfc00117 	ldw	ra,4(sp)
 1000bdc:	df000017 	ldw	fp,0(sp)
 1000be0:	dec00204 	addi	sp,sp,8
 1000be4:	f800283a 	ret

01000be8 <draw_player1>:


void draw_player1(alt_up_pixel_buffer_dma_dev* pixel_buffer, int x, int y ){
 1000be8:	defff804 	addi	sp,sp,-32
 1000bec:	dfc00715 	stw	ra,28(sp)
 1000bf0:	df000615 	stw	fp,24(sp)
 1000bf4:	df000604 	addi	fp,sp,24
 1000bf8:	e13ffd15 	stw	r4,-12(fp)
 1000bfc:	e17ffe15 	stw	r5,-8(fp)
 1000c00:	e1bfff15 	stw	r6,-4(fp)
	unsigned short * pixel_offset = malloc(sizeof(short)); //2 bytes
 1000c04:	01000084 	movi	r4,2
 1000c08:	10061600 	call	1006160 <malloc>
 1000c0c:	e0bffc15 	stw	r2,-16(fp)
	pixel_offset = &PLAYER_1_pixel_data; //set pointer to start of image data
 1000c10:	008040b4 	movhi	r2,258
 1000c14:	10b0a604 	addi	r2,r2,-15720
 1000c18:	e0bffc15 	stw	r2,-16(fp)
	int i, j;
	for(j=0; j <= PLAYER_1_HEIGHT-1; j++){
 1000c1c:	e03ffa15 	stw	zero,-24(fp)
 1000c20:	00002c06 	br	1000cd4 <draw_player1+0xec>
		for(i=0; i <= PLAYER_1_WIDTH-1; i++){
 1000c24:	e03ffb15 	stw	zero,-20(fp)
 1000c28:	00002406 	br	1000cbc <draw_player1+0xd4>
			if(*pixel_offset == 0xFFFF){
 1000c2c:	e0bffc17 	ldw	r2,-16(fp)
 1000c30:	1080000b 	ldhu	r2,0(r2)
 1000c34:	10ffffcc 	andi	r3,r2,65535
 1000c38:	00bfffd4 	movui	r2,65535
 1000c3c:	18800c1e 	bne	r3,r2,1000c70 <draw_player1+0x88>
				alt_up_pixel_buffer_dma_draw(pixel_buffer, BACKGROUND, x+i, y+j);
 1000c40:	e0fffe17 	ldw	r3,-8(fp)
 1000c44:	e0bffb17 	ldw	r2,-20(fp)
 1000c48:	1885883a 	add	r2,r3,r2
 1000c4c:	100d883a 	mov	r6,r2
 1000c50:	e0ffff17 	ldw	r3,-4(fp)
 1000c54:	e0bffa17 	ldw	r2,-24(fp)
 1000c58:	1885883a 	add	r2,r3,r2
 1000c5c:	100f883a 	mov	r7,r2
 1000c60:	e13ffd17 	ldw	r4,-12(fp)
 1000c64:	0173ffd4 	movui	r5,53247
 1000c68:	101061c0 	call	101061c <alt_up_pixel_buffer_dma_draw>
 1000c6c:	00000d06 	br	1000ca4 <draw_player1+0xbc>
			}
			else{
				alt_up_pixel_buffer_dma_draw(pixel_buffer, *pixel_offset, x+i, y+j);
 1000c70:	e0bffc17 	ldw	r2,-16(fp)
 1000c74:	1080000b 	ldhu	r2,0(r2)
 1000c78:	117fffcc 	andi	r5,r2,65535
 1000c7c:	e0fffe17 	ldw	r3,-8(fp)
 1000c80:	e0bffb17 	ldw	r2,-20(fp)
 1000c84:	1885883a 	add	r2,r3,r2
 1000c88:	100d883a 	mov	r6,r2
 1000c8c:	e0ffff17 	ldw	r3,-4(fp)
 1000c90:	e0bffa17 	ldw	r2,-24(fp)
 1000c94:	1885883a 	add	r2,r3,r2
 1000c98:	100f883a 	mov	r7,r2
 1000c9c:	e13ffd17 	ldw	r4,-12(fp)
 1000ca0:	101061c0 	call	101061c <alt_up_pixel_buffer_dma_draw>
			}
			pixel_offset++;
 1000ca4:	e0bffc17 	ldw	r2,-16(fp)
 1000ca8:	10800084 	addi	r2,r2,2
 1000cac:	e0bffc15 	stw	r2,-16(fp)
void draw_player1(alt_up_pixel_buffer_dma_dev* pixel_buffer, int x, int y ){
	unsigned short * pixel_offset = malloc(sizeof(short)); //2 bytes
	pixel_offset = &PLAYER_1_pixel_data; //set pointer to start of image data
	int i, j;
	for(j=0; j <= PLAYER_1_HEIGHT-1; j++){
		for(i=0; i <= PLAYER_1_WIDTH-1; i++){
 1000cb0:	e0bffb17 	ldw	r2,-20(fp)
 1000cb4:	10800044 	addi	r2,r2,1
 1000cb8:	e0bffb15 	stw	r2,-20(fp)
 1000cbc:	e0bffb17 	ldw	r2,-20(fp)
 1000cc0:	10800510 	cmplti	r2,r2,20
 1000cc4:	103fd91e 	bne	r2,zero,1000c2c <draw_player1+0x44>

void draw_player1(alt_up_pixel_buffer_dma_dev* pixel_buffer, int x, int y ){
	unsigned short * pixel_offset = malloc(sizeof(short)); //2 bytes
	pixel_offset = &PLAYER_1_pixel_data; //set pointer to start of image data
	int i, j;
	for(j=0; j <= PLAYER_1_HEIGHT-1; j++){
 1000cc8:	e0bffa17 	ldw	r2,-24(fp)
 1000ccc:	10800044 	addi	r2,r2,1
 1000cd0:	e0bffa15 	stw	r2,-24(fp)
 1000cd4:	e0bffa17 	ldw	r2,-24(fp)
 1000cd8:	10800650 	cmplti	r2,r2,25
 1000cdc:	103fd11e 	bne	r2,zero,1000c24 <draw_player1+0x3c>
				alt_up_pixel_buffer_dma_draw(pixel_buffer, *pixel_offset, x+i, y+j);
			}
			pixel_offset++;
		}
	}
}
 1000ce0:	e037883a 	mov	sp,fp
 1000ce4:	dfc00117 	ldw	ra,4(sp)
 1000ce8:	df000017 	ldw	fp,0(sp)
 1000cec:	dec00204 	addi	sp,sp,8
 1000cf0:	f800283a 	ret

01000cf4 <draw_player2>:

void draw_player2(alt_up_pixel_buffer_dma_dev* pixel_buffer, int x, int y ){
 1000cf4:	defff804 	addi	sp,sp,-32
 1000cf8:	dfc00715 	stw	ra,28(sp)
 1000cfc:	df000615 	stw	fp,24(sp)
 1000d00:	df000604 	addi	fp,sp,24
 1000d04:	e13ffd15 	stw	r4,-12(fp)
 1000d08:	e17ffe15 	stw	r5,-8(fp)
 1000d0c:	e1bfff15 	stw	r6,-4(fp)
	unsigned short * pixel_offset = malloc(sizeof(short)); //2 bytes
 1000d10:	01000084 	movi	r4,2
 1000d14:	10061600 	call	1006160 <malloc>
 1000d18:	e0bffc15 	stw	r2,-16(fp)
	pixel_offset = &PLAYER_2_pixel_data; //set pointer to start of image data
 1000d1c:	008040b4 	movhi	r2,258
 1000d20:	10b29b04 	addi	r2,r2,-13716
 1000d24:	e0bffc15 	stw	r2,-16(fp)
	int i, j;
	for(j=0; j <= PLAYER_2_HEIGHT-1; j++){
 1000d28:	e03ffa15 	stw	zero,-24(fp)
 1000d2c:	00002c06 	br	1000de0 <draw_player2+0xec>
		for(i=0; i <= PLAYER_2_WIDTH-1; i++){
 1000d30:	e03ffb15 	stw	zero,-20(fp)
 1000d34:	00002406 	br	1000dc8 <draw_player2+0xd4>
			if(*pixel_offset == 0xFFFF){
 1000d38:	e0bffc17 	ldw	r2,-16(fp)
 1000d3c:	1080000b 	ldhu	r2,0(r2)
 1000d40:	10ffffcc 	andi	r3,r2,65535
 1000d44:	00bfffd4 	movui	r2,65535
 1000d48:	18800c1e 	bne	r3,r2,1000d7c <draw_player2+0x88>
				alt_up_pixel_buffer_dma_draw(pixel_buffer, BACKGROUND, x+i, y+j);
 1000d4c:	e0fffe17 	ldw	r3,-8(fp)
 1000d50:	e0bffb17 	ldw	r2,-20(fp)
 1000d54:	1885883a 	add	r2,r3,r2
 1000d58:	100d883a 	mov	r6,r2
 1000d5c:	e0ffff17 	ldw	r3,-4(fp)
 1000d60:	e0bffa17 	ldw	r2,-24(fp)
 1000d64:	1885883a 	add	r2,r3,r2
 1000d68:	100f883a 	mov	r7,r2
 1000d6c:	e13ffd17 	ldw	r4,-12(fp)
 1000d70:	0173ffd4 	movui	r5,53247
 1000d74:	101061c0 	call	101061c <alt_up_pixel_buffer_dma_draw>
 1000d78:	00000d06 	br	1000db0 <draw_player2+0xbc>
			}
			else{
				alt_up_pixel_buffer_dma_draw(pixel_buffer, *pixel_offset, x+i, y+j);
 1000d7c:	e0bffc17 	ldw	r2,-16(fp)
 1000d80:	1080000b 	ldhu	r2,0(r2)
 1000d84:	117fffcc 	andi	r5,r2,65535
 1000d88:	e0fffe17 	ldw	r3,-8(fp)
 1000d8c:	e0bffb17 	ldw	r2,-20(fp)
 1000d90:	1885883a 	add	r2,r3,r2
 1000d94:	100d883a 	mov	r6,r2
 1000d98:	e0ffff17 	ldw	r3,-4(fp)
 1000d9c:	e0bffa17 	ldw	r2,-24(fp)
 1000da0:	1885883a 	add	r2,r3,r2
 1000da4:	100f883a 	mov	r7,r2
 1000da8:	e13ffd17 	ldw	r4,-12(fp)
 1000dac:	101061c0 	call	101061c <alt_up_pixel_buffer_dma_draw>
			}
			pixel_offset++;
 1000db0:	e0bffc17 	ldw	r2,-16(fp)
 1000db4:	10800084 	addi	r2,r2,2
 1000db8:	e0bffc15 	stw	r2,-16(fp)
void draw_player2(alt_up_pixel_buffer_dma_dev* pixel_buffer, int x, int y ){
	unsigned short * pixel_offset = malloc(sizeof(short)); //2 bytes
	pixel_offset = &PLAYER_2_pixel_data; //set pointer to start of image data
	int i, j;
	for(j=0; j <= PLAYER_2_HEIGHT-1; j++){
		for(i=0; i <= PLAYER_2_WIDTH-1; i++){
 1000dbc:	e0bffb17 	ldw	r2,-20(fp)
 1000dc0:	10800044 	addi	r2,r2,1
 1000dc4:	e0bffb15 	stw	r2,-20(fp)
 1000dc8:	e0bffb17 	ldw	r2,-20(fp)
 1000dcc:	10800510 	cmplti	r2,r2,20
 1000dd0:	103fd91e 	bne	r2,zero,1000d38 <draw_player2+0x44>

void draw_player2(alt_up_pixel_buffer_dma_dev* pixel_buffer, int x, int y ){
	unsigned short * pixel_offset = malloc(sizeof(short)); //2 bytes
	pixel_offset = &PLAYER_2_pixel_data; //set pointer to start of image data
	int i, j;
	for(j=0; j <= PLAYER_2_HEIGHT-1; j++){
 1000dd4:	e0bffa17 	ldw	r2,-24(fp)
 1000dd8:	10800044 	addi	r2,r2,1
 1000ddc:	e0bffa15 	stw	r2,-24(fp)
 1000de0:	e0bffa17 	ldw	r2,-24(fp)
 1000de4:	10800650 	cmplti	r2,r2,25
 1000de8:	103fd11e 	bne	r2,zero,1000d30 <draw_player2+0x3c>
				alt_up_pixel_buffer_dma_draw(pixel_buffer, *pixel_offset, x+i, y+j);
			}
			pixel_offset++;
		}
	}
}
 1000dec:	e037883a 	mov	sp,fp
 1000df0:	dfc00117 	ldw	ra,4(sp)
 1000df4:	df000017 	ldw	fp,0(sp)
 1000df8:	dec00204 	addi	sp,sp,8
 1000dfc:	f800283a 	ret

01000e00 <draw_cannon1>:

void draw_cannon1(alt_up_pixel_buffer_dma_dev* pixel_buffer, int x, int y ){
 1000e00:	defff804 	addi	sp,sp,-32
 1000e04:	dfc00715 	stw	ra,28(sp)
 1000e08:	df000615 	stw	fp,24(sp)
 1000e0c:	df000604 	addi	fp,sp,24
 1000e10:	e13ffd15 	stw	r4,-12(fp)
 1000e14:	e17ffe15 	stw	r5,-8(fp)
 1000e18:	e1bfff15 	stw	r6,-4(fp)
	unsigned short * pixel_offset = malloc(sizeof(short)); //2 bytes
 1000e1c:	01000084 	movi	r4,2
 1000e20:	10061600 	call	1006160 <malloc>
 1000e24:	e0bffc15 	stw	r2,-16(fp)
	pixel_offset = &CANNON_1_pixel_data; //set pointer to start of image data
 1000e28:	008040b4 	movhi	r2,258
 1000e2c:	10b49004 	addi	r2,r2,-11712
 1000e30:	e0bffc15 	stw	r2,-16(fp)
	int i, j;
	for(j=0; j <= CANNON_1_HEIGHT-1; j++){
 1000e34:	e03ffa15 	stw	zero,-24(fp)
 1000e38:	00002c06 	br	1000eec <draw_cannon1+0xec>
		for(i=0; i <= CANNON_1_WIDTH-1; i++){
 1000e3c:	e03ffb15 	stw	zero,-20(fp)
 1000e40:	00002406 	br	1000ed4 <draw_cannon1+0xd4>
			if(*pixel_offset == 0xFFFF){
 1000e44:	e0bffc17 	ldw	r2,-16(fp)
 1000e48:	1080000b 	ldhu	r2,0(r2)
 1000e4c:	10ffffcc 	andi	r3,r2,65535
 1000e50:	00bfffd4 	movui	r2,65535
 1000e54:	18800c1e 	bne	r3,r2,1000e88 <draw_cannon1+0x88>
				alt_up_pixel_buffer_dma_draw(pixel_buffer, BACKGROUND, x+i, y+j);
 1000e58:	e0fffe17 	ldw	r3,-8(fp)
 1000e5c:	e0bffb17 	ldw	r2,-20(fp)
 1000e60:	1885883a 	add	r2,r3,r2
 1000e64:	100d883a 	mov	r6,r2
 1000e68:	e0ffff17 	ldw	r3,-4(fp)
 1000e6c:	e0bffa17 	ldw	r2,-24(fp)
 1000e70:	1885883a 	add	r2,r3,r2
 1000e74:	100f883a 	mov	r7,r2
 1000e78:	e13ffd17 	ldw	r4,-12(fp)
 1000e7c:	0173ffd4 	movui	r5,53247
 1000e80:	101061c0 	call	101061c <alt_up_pixel_buffer_dma_draw>
 1000e84:	00000d06 	br	1000ebc <draw_cannon1+0xbc>
			}
			else{
				alt_up_pixel_buffer_dma_draw(pixel_buffer, *pixel_offset, x+i, y+j);
 1000e88:	e0bffc17 	ldw	r2,-16(fp)
 1000e8c:	1080000b 	ldhu	r2,0(r2)
 1000e90:	117fffcc 	andi	r5,r2,65535
 1000e94:	e0fffe17 	ldw	r3,-8(fp)
 1000e98:	e0bffb17 	ldw	r2,-20(fp)
 1000e9c:	1885883a 	add	r2,r3,r2
 1000ea0:	100d883a 	mov	r6,r2
 1000ea4:	e0ffff17 	ldw	r3,-4(fp)
 1000ea8:	e0bffa17 	ldw	r2,-24(fp)
 1000eac:	1885883a 	add	r2,r3,r2
 1000eb0:	100f883a 	mov	r7,r2
 1000eb4:	e13ffd17 	ldw	r4,-12(fp)
 1000eb8:	101061c0 	call	101061c <alt_up_pixel_buffer_dma_draw>
			}
			pixel_offset++;
 1000ebc:	e0bffc17 	ldw	r2,-16(fp)
 1000ec0:	10800084 	addi	r2,r2,2
 1000ec4:	e0bffc15 	stw	r2,-16(fp)
void draw_cannon1(alt_up_pixel_buffer_dma_dev* pixel_buffer, int x, int y ){
	unsigned short * pixel_offset = malloc(sizeof(short)); //2 bytes
	pixel_offset = &CANNON_1_pixel_data; //set pointer to start of image data
	int i, j;
	for(j=0; j <= CANNON_1_HEIGHT-1; j++){
		for(i=0; i <= CANNON_1_WIDTH-1; i++){
 1000ec8:	e0bffb17 	ldw	r2,-20(fp)
 1000ecc:	10800044 	addi	r2,r2,1
 1000ed0:	e0bffb15 	stw	r2,-20(fp)
 1000ed4:	e0bffb17 	ldw	r2,-20(fp)
 1000ed8:	10800650 	cmplti	r2,r2,25
 1000edc:	103fd91e 	bne	r2,zero,1000e44 <draw_cannon1+0x44>

void draw_cannon1(alt_up_pixel_buffer_dma_dev* pixel_buffer, int x, int y ){
	unsigned short * pixel_offset = malloc(sizeof(short)); //2 bytes
	pixel_offset = &CANNON_1_pixel_data; //set pointer to start of image data
	int i, j;
	for(j=0; j <= CANNON_1_HEIGHT-1; j++){
 1000ee0:	e0bffa17 	ldw	r2,-24(fp)
 1000ee4:	10800044 	addi	r2,r2,1
 1000ee8:	e0bffa15 	stw	r2,-24(fp)
 1000eec:	e0bffa17 	ldw	r2,-24(fp)
 1000ef0:	10800650 	cmplti	r2,r2,25
 1000ef4:	103fd11e 	bne	r2,zero,1000e3c <draw_cannon1+0x3c>
				alt_up_pixel_buffer_dma_draw(pixel_buffer, *pixel_offset, x+i, y+j);
			}
			pixel_offset++;
		}
	}
}
 1000ef8:	e037883a 	mov	sp,fp
 1000efc:	dfc00117 	ldw	ra,4(sp)
 1000f00:	df000017 	ldw	fp,0(sp)
 1000f04:	dec00204 	addi	sp,sp,8
 1000f08:	f800283a 	ret

01000f0c <draw_cannon1_frame2>:

void draw_cannon1_frame2(alt_up_pixel_buffer_dma_dev* pixel_buffer, int x, int y ){
 1000f0c:	defff804 	addi	sp,sp,-32
 1000f10:	dfc00715 	stw	ra,28(sp)
 1000f14:	df000615 	stw	fp,24(sp)
 1000f18:	df000604 	addi	fp,sp,24
 1000f1c:	e13ffd15 	stw	r4,-12(fp)
 1000f20:	e17ffe15 	stw	r5,-8(fp)
 1000f24:	e1bfff15 	stw	r6,-4(fp)
	unsigned short * pixel_offset = malloc(sizeof(short)); //2 bytes
 1000f28:	01000084 	movi	r4,2
 1000f2c:	10061600 	call	1006160 <malloc>
 1000f30:	e0bffc15 	stw	r2,-16(fp)
	pixel_offset = &CANNON_1_FRAME2_pixel_data; //set pointer to start of image data
 1000f34:	008040b4 	movhi	r2,258
 1000f38:	10b66504 	addi	r2,r2,-9836
 1000f3c:	e0bffc15 	stw	r2,-16(fp)
	int i, j;
	for(j=0; j <= CANNON_1_HEIGHT-1; j++){
 1000f40:	e03ffa15 	stw	zero,-24(fp)
 1000f44:	00002c06 	br	1000ff8 <draw_cannon1_frame2+0xec>
		for(i=0; i <= CANNON_1_WIDTH-1; i++){
 1000f48:	e03ffb15 	stw	zero,-20(fp)
 1000f4c:	00002406 	br	1000fe0 <draw_cannon1_frame2+0xd4>
			if(*pixel_offset == 0xFFFF){
 1000f50:	e0bffc17 	ldw	r2,-16(fp)
 1000f54:	1080000b 	ldhu	r2,0(r2)
 1000f58:	10ffffcc 	andi	r3,r2,65535
 1000f5c:	00bfffd4 	movui	r2,65535
 1000f60:	18800c1e 	bne	r3,r2,1000f94 <draw_cannon1_frame2+0x88>
				alt_up_pixel_buffer_dma_draw(pixel_buffer, BACKGROUND, x+i, y+j);
 1000f64:	e0fffe17 	ldw	r3,-8(fp)
 1000f68:	e0bffb17 	ldw	r2,-20(fp)
 1000f6c:	1885883a 	add	r2,r3,r2
 1000f70:	100d883a 	mov	r6,r2
 1000f74:	e0ffff17 	ldw	r3,-4(fp)
 1000f78:	e0bffa17 	ldw	r2,-24(fp)
 1000f7c:	1885883a 	add	r2,r3,r2
 1000f80:	100f883a 	mov	r7,r2
 1000f84:	e13ffd17 	ldw	r4,-12(fp)
 1000f88:	0173ffd4 	movui	r5,53247
 1000f8c:	101061c0 	call	101061c <alt_up_pixel_buffer_dma_draw>
 1000f90:	00000d06 	br	1000fc8 <draw_cannon1_frame2+0xbc>
			}
			else{
				alt_up_pixel_buffer_dma_draw(pixel_buffer, *pixel_offset, x+i, y+j);
 1000f94:	e0bffc17 	ldw	r2,-16(fp)
 1000f98:	1080000b 	ldhu	r2,0(r2)
 1000f9c:	117fffcc 	andi	r5,r2,65535
 1000fa0:	e0fffe17 	ldw	r3,-8(fp)
 1000fa4:	e0bffb17 	ldw	r2,-20(fp)
 1000fa8:	1885883a 	add	r2,r3,r2
 1000fac:	100d883a 	mov	r6,r2
 1000fb0:	e0ffff17 	ldw	r3,-4(fp)
 1000fb4:	e0bffa17 	ldw	r2,-24(fp)
 1000fb8:	1885883a 	add	r2,r3,r2
 1000fbc:	100f883a 	mov	r7,r2
 1000fc0:	e13ffd17 	ldw	r4,-12(fp)
 1000fc4:	101061c0 	call	101061c <alt_up_pixel_buffer_dma_draw>
			}
			pixel_offset++;
 1000fc8:	e0bffc17 	ldw	r2,-16(fp)
 1000fcc:	10800084 	addi	r2,r2,2
 1000fd0:	e0bffc15 	stw	r2,-16(fp)
void draw_cannon1_frame2(alt_up_pixel_buffer_dma_dev* pixel_buffer, int x, int y ){
	unsigned short * pixel_offset = malloc(sizeof(short)); //2 bytes
	pixel_offset = &CANNON_1_FRAME2_pixel_data; //set pointer to start of image data
	int i, j;
	for(j=0; j <= CANNON_1_HEIGHT-1; j++){
		for(i=0; i <= CANNON_1_WIDTH-1; i++){
 1000fd4:	e0bffb17 	ldw	r2,-20(fp)
 1000fd8:	10800044 	addi	r2,r2,1
 1000fdc:	e0bffb15 	stw	r2,-20(fp)
 1000fe0:	e0bffb17 	ldw	r2,-20(fp)
 1000fe4:	10800650 	cmplti	r2,r2,25
 1000fe8:	103fd91e 	bne	r2,zero,1000f50 <draw_cannon1_frame2+0x44>

void draw_cannon1_frame2(alt_up_pixel_buffer_dma_dev* pixel_buffer, int x, int y ){
	unsigned short * pixel_offset = malloc(sizeof(short)); //2 bytes
	pixel_offset = &CANNON_1_FRAME2_pixel_data; //set pointer to start of image data
	int i, j;
	for(j=0; j <= CANNON_1_HEIGHT-1; j++){
 1000fec:	e0bffa17 	ldw	r2,-24(fp)
 1000ff0:	10800044 	addi	r2,r2,1
 1000ff4:	e0bffa15 	stw	r2,-24(fp)
 1000ff8:	e0bffa17 	ldw	r2,-24(fp)
 1000ffc:	10800650 	cmplti	r2,r2,25
 1001000:	103fd11e 	bne	r2,zero,1000f48 <draw_cannon1_frame2+0x3c>
				alt_up_pixel_buffer_dma_draw(pixel_buffer, *pixel_offset, x+i, y+j);
			}
			pixel_offset++;
		}
	}
}
 1001004:	e037883a 	mov	sp,fp
 1001008:	dfc00117 	ldw	ra,4(sp)
 100100c:	df000017 	ldw	fp,0(sp)
 1001010:	dec00204 	addi	sp,sp,8
 1001014:	f800283a 	ret

01001018 <draw_cannon1_frame3>:

void draw_cannon1_frame3(alt_up_pixel_buffer_dma_dev* pixel_buffer, int x, int y ){
 1001018:	defff804 	addi	sp,sp,-32
 100101c:	dfc00715 	stw	ra,28(sp)
 1001020:	df000615 	stw	fp,24(sp)
 1001024:	df000604 	addi	fp,sp,24
 1001028:	e13ffd15 	stw	r4,-12(fp)
 100102c:	e17ffe15 	stw	r5,-8(fp)
 1001030:	e1bfff15 	stw	r6,-4(fp)
	unsigned short * pixel_offset = malloc(sizeof(short)); //2 bytes
 1001034:	01000084 	movi	r4,2
 1001038:	10061600 	call	1006160 <malloc>
 100103c:	e0bffc15 	stw	r2,-16(fp)
	pixel_offset = &CANNON_1_FRAME3_pixel_data; //set pointer to start of image data
 1001040:	008040b4 	movhi	r2,258
 1001044:	10b83a04 	addi	r2,r2,-7960
 1001048:	e0bffc15 	stw	r2,-16(fp)
	int i, j;
	for(j=0; j <= CANNON_1_HEIGHT-1; j++){
 100104c:	e03ffa15 	stw	zero,-24(fp)
 1001050:	00002c06 	br	1001104 <draw_cannon1_frame3+0xec>
		for(i=0; i <= CANNON_1_WIDTH-1; i++){
 1001054:	e03ffb15 	stw	zero,-20(fp)
 1001058:	00002406 	br	10010ec <draw_cannon1_frame3+0xd4>
			if(*pixel_offset == 0xFFFF){
 100105c:	e0bffc17 	ldw	r2,-16(fp)
 1001060:	1080000b 	ldhu	r2,0(r2)
 1001064:	10ffffcc 	andi	r3,r2,65535
 1001068:	00bfffd4 	movui	r2,65535
 100106c:	18800c1e 	bne	r3,r2,10010a0 <draw_cannon1_frame3+0x88>
				alt_up_pixel_buffer_dma_draw(pixel_buffer, BACKGROUND, x+i, y+j);
 1001070:	e0fffe17 	ldw	r3,-8(fp)
 1001074:	e0bffb17 	ldw	r2,-20(fp)
 1001078:	1885883a 	add	r2,r3,r2
 100107c:	100d883a 	mov	r6,r2
 1001080:	e0ffff17 	ldw	r3,-4(fp)
 1001084:	e0bffa17 	ldw	r2,-24(fp)
 1001088:	1885883a 	add	r2,r3,r2
 100108c:	100f883a 	mov	r7,r2
 1001090:	e13ffd17 	ldw	r4,-12(fp)
 1001094:	0173ffd4 	movui	r5,53247
 1001098:	101061c0 	call	101061c <alt_up_pixel_buffer_dma_draw>
 100109c:	00000d06 	br	10010d4 <draw_cannon1_frame3+0xbc>
			}
			else{
				alt_up_pixel_buffer_dma_draw(pixel_buffer, *pixel_offset, x+i, y+j);
 10010a0:	e0bffc17 	ldw	r2,-16(fp)
 10010a4:	1080000b 	ldhu	r2,0(r2)
 10010a8:	117fffcc 	andi	r5,r2,65535
 10010ac:	e0fffe17 	ldw	r3,-8(fp)
 10010b0:	e0bffb17 	ldw	r2,-20(fp)
 10010b4:	1885883a 	add	r2,r3,r2
 10010b8:	100d883a 	mov	r6,r2
 10010bc:	e0ffff17 	ldw	r3,-4(fp)
 10010c0:	e0bffa17 	ldw	r2,-24(fp)
 10010c4:	1885883a 	add	r2,r3,r2
 10010c8:	100f883a 	mov	r7,r2
 10010cc:	e13ffd17 	ldw	r4,-12(fp)
 10010d0:	101061c0 	call	101061c <alt_up_pixel_buffer_dma_draw>
			}
			pixel_offset++;
 10010d4:	e0bffc17 	ldw	r2,-16(fp)
 10010d8:	10800084 	addi	r2,r2,2
 10010dc:	e0bffc15 	stw	r2,-16(fp)
void draw_cannon1_frame3(alt_up_pixel_buffer_dma_dev* pixel_buffer, int x, int y ){
	unsigned short * pixel_offset = malloc(sizeof(short)); //2 bytes
	pixel_offset = &CANNON_1_FRAME3_pixel_data; //set pointer to start of image data
	int i, j;
	for(j=0; j <= CANNON_1_HEIGHT-1; j++){
		for(i=0; i <= CANNON_1_WIDTH-1; i++){
 10010e0:	e0bffb17 	ldw	r2,-20(fp)
 10010e4:	10800044 	addi	r2,r2,1
 10010e8:	e0bffb15 	stw	r2,-20(fp)
 10010ec:	e0bffb17 	ldw	r2,-20(fp)
 10010f0:	10800650 	cmplti	r2,r2,25
 10010f4:	103fd91e 	bne	r2,zero,100105c <draw_cannon1_frame3+0x44>

void draw_cannon1_frame3(alt_up_pixel_buffer_dma_dev* pixel_buffer, int x, int y ){
	unsigned short * pixel_offset = malloc(sizeof(short)); //2 bytes
	pixel_offset = &CANNON_1_FRAME3_pixel_data; //set pointer to start of image data
	int i, j;
	for(j=0; j <= CANNON_1_HEIGHT-1; j++){
 10010f8:	e0bffa17 	ldw	r2,-24(fp)
 10010fc:	10800044 	addi	r2,r2,1
 1001100:	e0bffa15 	stw	r2,-24(fp)
 1001104:	e0bffa17 	ldw	r2,-24(fp)
 1001108:	10800650 	cmplti	r2,r2,25
 100110c:	103fd11e 	bne	r2,zero,1001054 <draw_cannon1_frame3+0x3c>
				alt_up_pixel_buffer_dma_draw(pixel_buffer, *pixel_offset, x+i, y+j);
			}
			pixel_offset++;
		}
	}
}
 1001110:	e037883a 	mov	sp,fp
 1001114:	dfc00117 	ldw	ra,4(sp)
 1001118:	df000017 	ldw	fp,0(sp)
 100111c:	dec00204 	addi	sp,sp,8
 1001120:	f800283a 	ret

01001124 <animate_cannon1_shot>:


void animate_cannon1_shot(alt_up_pixel_buffer_dma_dev* pixel_buffer){
 1001124:	defffc04 	addi	sp,sp,-16
 1001128:	dfc00315 	stw	ra,12(sp)
 100112c:	df000215 	stw	fp,8(sp)
 1001130:	df000204 	addi	fp,sp,8
 1001134:	e13fff15 	stw	r4,-4(fp)
	int t;
	for(t = 40; t >= 0; t--){
 1001138:	00800a04 	movi	r2,40
 100113c:	e0bffe15 	stw	r2,-8(fp)
 1001140:	00001106 	br	1001188 <animate_cannon1_shot+0x64>
		if(t%5 == 0)
 1001144:	e13ffe17 	ldw	r4,-8(fp)
 1001148:	01400144 	movi	r5,5
 100114c:	10059ec0 	call	10059ec <__modsi3>
 1001150:	1004c03a 	cmpne	r2,r2,zero
 1001154:	1000051e 	bne	r2,zero,100116c <animate_cannon1_shot+0x48>
			draw_cannon1(pixel_buffer, PLAYER_1_WIDTH, 240-GROUND_HEIGHT-CANNON_1_HEIGHT);
 1001158:	e13fff17 	ldw	r4,-4(fp)
 100115c:	01400504 	movi	r5,20
 1001160:	01802e44 	movi	r6,185
 1001164:	1000e000 	call	1000e00 <draw_cannon1>
 1001168:	00000406 	br	100117c <animate_cannon1_shot+0x58>
		else
			draw_cannon1_frame2(pixel_buffer, PLAYER_1_WIDTH, 240-GROUND_HEIGHT-CANNON_1_HEIGHT);
 100116c:	e13fff17 	ldw	r4,-4(fp)
 1001170:	01400504 	movi	r5,20
 1001174:	01802e44 	movi	r6,185
 1001178:	1000f0c0 	call	1000f0c <draw_cannon1_frame2>
}


void animate_cannon1_shot(alt_up_pixel_buffer_dma_dev* pixel_buffer){
	int t;
	for(t = 40; t >= 0; t--){
 100117c:	e0bffe17 	ldw	r2,-8(fp)
 1001180:	10bfffc4 	addi	r2,r2,-1
 1001184:	e0bffe15 	stw	r2,-8(fp)
 1001188:	e0bffe17 	ldw	r2,-8(fp)
 100118c:	1004403a 	cmpge	r2,r2,zero
 1001190:	103fec1e 	bne	r2,zero,1001144 <animate_cannon1_shot+0x20>
		if(t%5 == 0)
			draw_cannon1(pixel_buffer, PLAYER_1_WIDTH, 240-GROUND_HEIGHT-CANNON_1_HEIGHT);
		else
			draw_cannon1_frame2(pixel_buffer, PLAYER_1_WIDTH, 240-GROUND_HEIGHT-CANNON_1_HEIGHT);
	}
	draw_cannon1_frame3(pixel_buffer, PLAYER_1_WIDTH, 240-GROUND_HEIGHT-CANNON_1_HEIGHT);
 1001194:	e13fff17 	ldw	r4,-4(fp)
 1001198:	01400504 	movi	r5,20
 100119c:	01802e44 	movi	r6,185
 10011a0:	10010180 	call	1001018 <draw_cannon1_frame3>
	for(t = 55; t >=0; t--); //wait
 10011a4:	00800dc4 	movi	r2,55
 10011a8:	e0bffe15 	stw	r2,-8(fp)
 10011ac:	00000306 	br	10011bc <animate_cannon1_shot+0x98>
 10011b0:	e0bffe17 	ldw	r2,-8(fp)
 10011b4:	10bfffc4 	addi	r2,r2,-1
 10011b8:	e0bffe15 	stw	r2,-8(fp)
 10011bc:	e0bffe17 	ldw	r2,-8(fp)
 10011c0:	1004403a 	cmpge	r2,r2,zero
 10011c4:	103ffa1e 	bne	r2,zero,10011b0 <animate_cannon1_shot+0x8c>
	draw_cannon1(pixel_buffer, PLAYER_1_WIDTH, 240-GROUND_HEIGHT-CANNON_1_HEIGHT);
 10011c8:	e13fff17 	ldw	r4,-4(fp)
 10011cc:	01400504 	movi	r5,20
 10011d0:	01802e44 	movi	r6,185
 10011d4:	1000e000 	call	1000e00 <draw_cannon1>
}
 10011d8:	e037883a 	mov	sp,fp
 10011dc:	dfc00117 	ldw	ra,4(sp)
 10011e0:	df000017 	ldw	fp,0(sp)
 10011e4:	dec00204 	addi	sp,sp,8
 10011e8:	f800283a 	ret

010011ec <animate_cannon2_shot>:

void animate_cannon2_shot(alt_up_pixel_buffer_dma_dev* pixel_buffer){
 10011ec:	defffc04 	addi	sp,sp,-16
 10011f0:	dfc00315 	stw	ra,12(sp)
 10011f4:	df000215 	stw	fp,8(sp)
 10011f8:	df000204 	addi	fp,sp,8
 10011fc:	e13fff15 	stw	r4,-4(fp)
	int t;
	for(t = 40; t >= 0; t--){
 1001200:	00800a04 	movi	r2,40
 1001204:	e0bffe15 	stw	r2,-8(fp)
 1001208:	00001106 	br	1001250 <animate_cannon2_shot+0x64>
		if(t%5 == 0)
 100120c:	e13ffe17 	ldw	r4,-8(fp)
 1001210:	01400144 	movi	r5,5
 1001214:	10059ec0 	call	10059ec <__modsi3>
 1001218:	1004c03a 	cmpne	r2,r2,zero
 100121c:	1000051e 	bne	r2,zero,1001234 <animate_cannon2_shot+0x48>
			draw_cannon2(pixel_buffer, 320-PLAYER_2_WIDTH-CANNON_2_WIDTH, 240-GROUND_HEIGHT-CANNON_1_HEIGHT);
 1001220:	e13fff17 	ldw	r4,-4(fp)
 1001224:	014044c4 	movi	r5,275
 1001228:	01802e44 	movi	r6,185
 100122c:	10012b40 	call	10012b4 <draw_cannon2>
 1001230:	00000406 	br	1001244 <animate_cannon2_shot+0x58>
		else
			draw_cannon2_frame2(pixel_buffer, 320-PLAYER_2_WIDTH-CANNON_2_WIDTH, 240-GROUND_HEIGHT-CANNON_1_HEIGHT);
 1001234:	e13fff17 	ldw	r4,-4(fp)
 1001238:	014044c4 	movi	r5,275
 100123c:	01802e44 	movi	r6,185
 1001240:	10013c00 	call	10013c0 <draw_cannon2_frame2>
	draw_cannon1(pixel_buffer, PLAYER_1_WIDTH, 240-GROUND_HEIGHT-CANNON_1_HEIGHT);
}

void animate_cannon2_shot(alt_up_pixel_buffer_dma_dev* pixel_buffer){
	int t;
	for(t = 40; t >= 0; t--){
 1001244:	e0bffe17 	ldw	r2,-8(fp)
 1001248:	10bfffc4 	addi	r2,r2,-1
 100124c:	e0bffe15 	stw	r2,-8(fp)
 1001250:	e0bffe17 	ldw	r2,-8(fp)
 1001254:	1004403a 	cmpge	r2,r2,zero
 1001258:	103fec1e 	bne	r2,zero,100120c <animate_cannon2_shot+0x20>
		if(t%5 == 0)
			draw_cannon2(pixel_buffer, 320-PLAYER_2_WIDTH-CANNON_2_WIDTH, 240-GROUND_HEIGHT-CANNON_1_HEIGHT);
		else
			draw_cannon2_frame2(pixel_buffer, 320-PLAYER_2_WIDTH-CANNON_2_WIDTH, 240-GROUND_HEIGHT-CANNON_1_HEIGHT);
	}
	draw_cannon2_frame3(pixel_buffer, 320-PLAYER_2_WIDTH-CANNON_2_WIDTH, 240-GROUND_HEIGHT-CANNON_1_HEIGHT);
 100125c:	e13fff17 	ldw	r4,-4(fp)
 1001260:	014044c4 	movi	r5,275
 1001264:	01802e44 	movi	r6,185
 1001268:	10014cc0 	call	10014cc <draw_cannon2_frame3>
	for(t = 55; t >=0; t--); //wait
 100126c:	00800dc4 	movi	r2,55
 1001270:	e0bffe15 	stw	r2,-8(fp)
 1001274:	00000306 	br	1001284 <animate_cannon2_shot+0x98>
 1001278:	e0bffe17 	ldw	r2,-8(fp)
 100127c:	10bfffc4 	addi	r2,r2,-1
 1001280:	e0bffe15 	stw	r2,-8(fp)
 1001284:	e0bffe17 	ldw	r2,-8(fp)
 1001288:	1004403a 	cmpge	r2,r2,zero
 100128c:	103ffa1e 	bne	r2,zero,1001278 <animate_cannon2_shot+0x8c>
	draw_cannon2(pixel_buffer, 320-PLAYER_2_WIDTH-CANNON_2_WIDTH, 240-GROUND_HEIGHT-CANNON_1_HEIGHT);
 1001290:	e13fff17 	ldw	r4,-4(fp)
 1001294:	014044c4 	movi	r5,275
 1001298:	01802e44 	movi	r6,185
 100129c:	10012b40 	call	10012b4 <draw_cannon2>
}
 10012a0:	e037883a 	mov	sp,fp
 10012a4:	dfc00117 	ldw	ra,4(sp)
 10012a8:	df000017 	ldw	fp,0(sp)
 10012ac:	dec00204 	addi	sp,sp,8
 10012b0:	f800283a 	ret

010012b4 <draw_cannon2>:

void draw_cannon2(alt_up_pixel_buffer_dma_dev* pixel_buffer, int x, int y ){
 10012b4:	defff804 	addi	sp,sp,-32
 10012b8:	dfc00715 	stw	ra,28(sp)
 10012bc:	df000615 	stw	fp,24(sp)
 10012c0:	df000604 	addi	fp,sp,24
 10012c4:	e13ffd15 	stw	r4,-12(fp)
 10012c8:	e17ffe15 	stw	r5,-8(fp)
 10012cc:	e1bfff15 	stw	r6,-4(fp)
	unsigned short * pixel_offset = malloc(sizeof(short)); //2 bytes
 10012d0:	01000084 	movi	r4,2
 10012d4:	10061600 	call	1006160 <malloc>
 10012d8:	e0bffc15 	stw	r2,-16(fp)
	pixel_offset = &CANNON_2_pixel_data; //set pointer to start of image data
 10012dc:	008040b4 	movhi	r2,258
 10012e0:	10ba0f04 	addi	r2,r2,-6084
 10012e4:	e0bffc15 	stw	r2,-16(fp)
	int i, j;
	for(j=0; j <= CANNON_2_HEIGHT-1; j++){
 10012e8:	e03ffa15 	stw	zero,-24(fp)
 10012ec:	00002c06 	br	10013a0 <draw_cannon2+0xec>
		for(i=0; i <= CANNON_2_WIDTH-1; i++){
 10012f0:	e03ffb15 	stw	zero,-20(fp)
 10012f4:	00002406 	br	1001388 <draw_cannon2+0xd4>
			if(*pixel_offset == 0xFFFF){
 10012f8:	e0bffc17 	ldw	r2,-16(fp)
 10012fc:	1080000b 	ldhu	r2,0(r2)
 1001300:	10ffffcc 	andi	r3,r2,65535
 1001304:	00bfffd4 	movui	r2,65535
 1001308:	18800c1e 	bne	r3,r2,100133c <draw_cannon2+0x88>
				alt_up_pixel_buffer_dma_draw(pixel_buffer, BACKGROUND, x+i, y+j);
 100130c:	e0fffe17 	ldw	r3,-8(fp)
 1001310:	e0bffb17 	ldw	r2,-20(fp)
 1001314:	1885883a 	add	r2,r3,r2
 1001318:	100d883a 	mov	r6,r2
 100131c:	e0ffff17 	ldw	r3,-4(fp)
 1001320:	e0bffa17 	ldw	r2,-24(fp)
 1001324:	1885883a 	add	r2,r3,r2
 1001328:	100f883a 	mov	r7,r2
 100132c:	e13ffd17 	ldw	r4,-12(fp)
 1001330:	0173ffd4 	movui	r5,53247
 1001334:	101061c0 	call	101061c <alt_up_pixel_buffer_dma_draw>
 1001338:	00000d06 	br	1001370 <draw_cannon2+0xbc>
			}
			else{
				alt_up_pixel_buffer_dma_draw(pixel_buffer, *pixel_offset, x+i, y+j);
 100133c:	e0bffc17 	ldw	r2,-16(fp)
 1001340:	1080000b 	ldhu	r2,0(r2)
 1001344:	117fffcc 	andi	r5,r2,65535
 1001348:	e0fffe17 	ldw	r3,-8(fp)
 100134c:	e0bffb17 	ldw	r2,-20(fp)
 1001350:	1885883a 	add	r2,r3,r2
 1001354:	100d883a 	mov	r6,r2
 1001358:	e0ffff17 	ldw	r3,-4(fp)
 100135c:	e0bffa17 	ldw	r2,-24(fp)
 1001360:	1885883a 	add	r2,r3,r2
 1001364:	100f883a 	mov	r7,r2
 1001368:	e13ffd17 	ldw	r4,-12(fp)
 100136c:	101061c0 	call	101061c <alt_up_pixel_buffer_dma_draw>
			}
			pixel_offset++;
 1001370:	e0bffc17 	ldw	r2,-16(fp)
 1001374:	10800084 	addi	r2,r2,2
 1001378:	e0bffc15 	stw	r2,-16(fp)
void draw_cannon2(alt_up_pixel_buffer_dma_dev* pixel_buffer, int x, int y ){
	unsigned short * pixel_offset = malloc(sizeof(short)); //2 bytes
	pixel_offset = &CANNON_2_pixel_data; //set pointer to start of image data
	int i, j;
	for(j=0; j <= CANNON_2_HEIGHT-1; j++){
		for(i=0; i <= CANNON_2_WIDTH-1; i++){
 100137c:	e0bffb17 	ldw	r2,-20(fp)
 1001380:	10800044 	addi	r2,r2,1
 1001384:	e0bffb15 	stw	r2,-20(fp)
 1001388:	e0bffb17 	ldw	r2,-20(fp)
 100138c:	10800650 	cmplti	r2,r2,25
 1001390:	103fd91e 	bne	r2,zero,10012f8 <draw_cannon2+0x44>

void draw_cannon2(alt_up_pixel_buffer_dma_dev* pixel_buffer, int x, int y ){
	unsigned short * pixel_offset = malloc(sizeof(short)); //2 bytes
	pixel_offset = &CANNON_2_pixel_data; //set pointer to start of image data
	int i, j;
	for(j=0; j <= CANNON_2_HEIGHT-1; j++){
 1001394:	e0bffa17 	ldw	r2,-24(fp)
 1001398:	10800044 	addi	r2,r2,1
 100139c:	e0bffa15 	stw	r2,-24(fp)
 10013a0:	e0bffa17 	ldw	r2,-24(fp)
 10013a4:	10800650 	cmplti	r2,r2,25
 10013a8:	103fd11e 	bne	r2,zero,10012f0 <draw_cannon2+0x3c>
				alt_up_pixel_buffer_dma_draw(pixel_buffer, *pixel_offset, x+i, y+j);
			}
			pixel_offset++;
		}
	}
}
 10013ac:	e037883a 	mov	sp,fp
 10013b0:	dfc00117 	ldw	ra,4(sp)
 10013b4:	df000017 	ldw	fp,0(sp)
 10013b8:	dec00204 	addi	sp,sp,8
 10013bc:	f800283a 	ret

010013c0 <draw_cannon2_frame2>:

void draw_cannon2_frame2(alt_up_pixel_buffer_dma_dev* pixel_buffer, int x, int y ){
 10013c0:	defff804 	addi	sp,sp,-32
 10013c4:	dfc00715 	stw	ra,28(sp)
 10013c8:	df000615 	stw	fp,24(sp)
 10013cc:	df000604 	addi	fp,sp,24
 10013d0:	e13ffd15 	stw	r4,-12(fp)
 10013d4:	e17ffe15 	stw	r5,-8(fp)
 10013d8:	e1bfff15 	stw	r6,-4(fp)
	unsigned short * pixel_offset = malloc(sizeof(short)); //2 bytes
 10013dc:	01000084 	movi	r4,2
 10013e0:	10061600 	call	1006160 <malloc>
 10013e4:	e0bffc15 	stw	r2,-16(fp)
	//unsigned short number = (unsigned short) strtoul(name, NULL, 0);
	pixel_offset = &CANNON_2_FRAME2_pixel_data; //set pointer to start of image data
 10013e8:	008040b4 	movhi	r2,258
 10013ec:	10bbe404 	addi	r2,r2,-4208
 10013f0:	e0bffc15 	stw	r2,-16(fp)
	int i, j;
	for(j=0; j <= CANNON_2_HEIGHT-1; j++){
 10013f4:	e03ffa15 	stw	zero,-24(fp)
 10013f8:	00002c06 	br	10014ac <draw_cannon2_frame2+0xec>
		for(i=0; i <= CANNON_2_WIDTH-1; i++){
 10013fc:	e03ffb15 	stw	zero,-20(fp)
 1001400:	00002406 	br	1001494 <draw_cannon2_frame2+0xd4>
			if(*pixel_offset == 0xFFFF){
 1001404:	e0bffc17 	ldw	r2,-16(fp)
 1001408:	1080000b 	ldhu	r2,0(r2)
 100140c:	10ffffcc 	andi	r3,r2,65535
 1001410:	00bfffd4 	movui	r2,65535
 1001414:	18800c1e 	bne	r3,r2,1001448 <draw_cannon2_frame2+0x88>
				alt_up_pixel_buffer_dma_draw(pixel_buffer, BACKGROUND, x+i, y+j);
 1001418:	e0fffe17 	ldw	r3,-8(fp)
 100141c:	e0bffb17 	ldw	r2,-20(fp)
 1001420:	1885883a 	add	r2,r3,r2
 1001424:	100d883a 	mov	r6,r2
 1001428:	e0ffff17 	ldw	r3,-4(fp)
 100142c:	e0bffa17 	ldw	r2,-24(fp)
 1001430:	1885883a 	add	r2,r3,r2
 1001434:	100f883a 	mov	r7,r2
 1001438:	e13ffd17 	ldw	r4,-12(fp)
 100143c:	0173ffd4 	movui	r5,53247
 1001440:	101061c0 	call	101061c <alt_up_pixel_buffer_dma_draw>
 1001444:	00000d06 	br	100147c <draw_cannon2_frame2+0xbc>
			}
			else{
				alt_up_pixel_buffer_dma_draw(pixel_buffer, *pixel_offset, x+i, y+j);
 1001448:	e0bffc17 	ldw	r2,-16(fp)
 100144c:	1080000b 	ldhu	r2,0(r2)
 1001450:	117fffcc 	andi	r5,r2,65535
 1001454:	e0fffe17 	ldw	r3,-8(fp)
 1001458:	e0bffb17 	ldw	r2,-20(fp)
 100145c:	1885883a 	add	r2,r3,r2
 1001460:	100d883a 	mov	r6,r2
 1001464:	e0ffff17 	ldw	r3,-4(fp)
 1001468:	e0bffa17 	ldw	r2,-24(fp)
 100146c:	1885883a 	add	r2,r3,r2
 1001470:	100f883a 	mov	r7,r2
 1001474:	e13ffd17 	ldw	r4,-12(fp)
 1001478:	101061c0 	call	101061c <alt_up_pixel_buffer_dma_draw>
			}
			pixel_offset++;
 100147c:	e0bffc17 	ldw	r2,-16(fp)
 1001480:	10800084 	addi	r2,r2,2
 1001484:	e0bffc15 	stw	r2,-16(fp)
	unsigned short * pixel_offset = malloc(sizeof(short)); //2 bytes
	//unsigned short number = (unsigned short) strtoul(name, NULL, 0);
	pixel_offset = &CANNON_2_FRAME2_pixel_data; //set pointer to start of image data
	int i, j;
	for(j=0; j <= CANNON_2_HEIGHT-1; j++){
		for(i=0; i <= CANNON_2_WIDTH-1; i++){
 1001488:	e0bffb17 	ldw	r2,-20(fp)
 100148c:	10800044 	addi	r2,r2,1
 1001490:	e0bffb15 	stw	r2,-20(fp)
 1001494:	e0bffb17 	ldw	r2,-20(fp)
 1001498:	10800650 	cmplti	r2,r2,25
 100149c:	103fd91e 	bne	r2,zero,1001404 <draw_cannon2_frame2+0x44>
void draw_cannon2_frame2(alt_up_pixel_buffer_dma_dev* pixel_buffer, int x, int y ){
	unsigned short * pixel_offset = malloc(sizeof(short)); //2 bytes
	//unsigned short number = (unsigned short) strtoul(name, NULL, 0);
	pixel_offset = &CANNON_2_FRAME2_pixel_data; //set pointer to start of image data
	int i, j;
	for(j=0; j <= CANNON_2_HEIGHT-1; j++){
 10014a0:	e0bffa17 	ldw	r2,-24(fp)
 10014a4:	10800044 	addi	r2,r2,1
 10014a8:	e0bffa15 	stw	r2,-24(fp)
 10014ac:	e0bffa17 	ldw	r2,-24(fp)
 10014b0:	10800650 	cmplti	r2,r2,25
 10014b4:	103fd11e 	bne	r2,zero,10013fc <draw_cannon2_frame2+0x3c>
				alt_up_pixel_buffer_dma_draw(pixel_buffer, *pixel_offset, x+i, y+j);
			}
			pixel_offset++;
		}
	}
}
 10014b8:	e037883a 	mov	sp,fp
 10014bc:	dfc00117 	ldw	ra,4(sp)
 10014c0:	df000017 	ldw	fp,0(sp)
 10014c4:	dec00204 	addi	sp,sp,8
 10014c8:	f800283a 	ret

010014cc <draw_cannon2_frame3>:

void draw_cannon2_frame3(alt_up_pixel_buffer_dma_dev* pixel_buffer, int x, int y ){
 10014cc:	defff804 	addi	sp,sp,-32
 10014d0:	dfc00715 	stw	ra,28(sp)
 10014d4:	df000615 	stw	fp,24(sp)
 10014d8:	df000604 	addi	fp,sp,24
 10014dc:	e13ffd15 	stw	r4,-12(fp)
 10014e0:	e17ffe15 	stw	r5,-8(fp)
 10014e4:	e1bfff15 	stw	r6,-4(fp)
	unsigned short * pixel_offset = malloc(sizeof(short)); //2 bytes
 10014e8:	01000084 	movi	r4,2
 10014ec:	10061600 	call	1006160 <malloc>
 10014f0:	e0bffc15 	stw	r2,-16(fp)
	//unsigned short number = (unsigned short) strtoul(name, NULL, 0);
	pixel_offset = &CANNON_2_FRAME3_pixel_data; //set pointer to start of image data
 10014f4:	008040b4 	movhi	r2,258
 10014f8:	10bdb904 	addi	r2,r2,-2332
 10014fc:	e0bffc15 	stw	r2,-16(fp)
	int i, j;
	for(j=0; j <= CANNON_2_HEIGHT-1; j++){
 1001500:	e03ffa15 	stw	zero,-24(fp)
 1001504:	00002c06 	br	10015b8 <draw_cannon2_frame3+0xec>
		for(i=0; i <= CANNON_2_WIDTH-1; i++){
 1001508:	e03ffb15 	stw	zero,-20(fp)
 100150c:	00002406 	br	10015a0 <draw_cannon2_frame3+0xd4>
			if(*pixel_offset == 0xFFFF){
 1001510:	e0bffc17 	ldw	r2,-16(fp)
 1001514:	1080000b 	ldhu	r2,0(r2)
 1001518:	10ffffcc 	andi	r3,r2,65535
 100151c:	00bfffd4 	movui	r2,65535
 1001520:	18800c1e 	bne	r3,r2,1001554 <draw_cannon2_frame3+0x88>
				alt_up_pixel_buffer_dma_draw(pixel_buffer, BACKGROUND, x+i, y+j);
 1001524:	e0fffe17 	ldw	r3,-8(fp)
 1001528:	e0bffb17 	ldw	r2,-20(fp)
 100152c:	1885883a 	add	r2,r3,r2
 1001530:	100d883a 	mov	r6,r2
 1001534:	e0ffff17 	ldw	r3,-4(fp)
 1001538:	e0bffa17 	ldw	r2,-24(fp)
 100153c:	1885883a 	add	r2,r3,r2
 1001540:	100f883a 	mov	r7,r2
 1001544:	e13ffd17 	ldw	r4,-12(fp)
 1001548:	0173ffd4 	movui	r5,53247
 100154c:	101061c0 	call	101061c <alt_up_pixel_buffer_dma_draw>
 1001550:	00000d06 	br	1001588 <draw_cannon2_frame3+0xbc>
			}
			else{
				alt_up_pixel_buffer_dma_draw(pixel_buffer, *pixel_offset, x+i, y+j);
 1001554:	e0bffc17 	ldw	r2,-16(fp)
 1001558:	1080000b 	ldhu	r2,0(r2)
 100155c:	117fffcc 	andi	r5,r2,65535
 1001560:	e0fffe17 	ldw	r3,-8(fp)
 1001564:	e0bffb17 	ldw	r2,-20(fp)
 1001568:	1885883a 	add	r2,r3,r2
 100156c:	100d883a 	mov	r6,r2
 1001570:	e0ffff17 	ldw	r3,-4(fp)
 1001574:	e0bffa17 	ldw	r2,-24(fp)
 1001578:	1885883a 	add	r2,r3,r2
 100157c:	100f883a 	mov	r7,r2
 1001580:	e13ffd17 	ldw	r4,-12(fp)
 1001584:	101061c0 	call	101061c <alt_up_pixel_buffer_dma_draw>
			}
			pixel_offset++;
 1001588:	e0bffc17 	ldw	r2,-16(fp)
 100158c:	10800084 	addi	r2,r2,2
 1001590:	e0bffc15 	stw	r2,-16(fp)
	unsigned short * pixel_offset = malloc(sizeof(short)); //2 bytes
	//unsigned short number = (unsigned short) strtoul(name, NULL, 0);
	pixel_offset = &CANNON_2_FRAME3_pixel_data; //set pointer to start of image data
	int i, j;
	for(j=0; j <= CANNON_2_HEIGHT-1; j++){
		for(i=0; i <= CANNON_2_WIDTH-1; i++){
 1001594:	e0bffb17 	ldw	r2,-20(fp)
 1001598:	10800044 	addi	r2,r2,1
 100159c:	e0bffb15 	stw	r2,-20(fp)
 10015a0:	e0bffb17 	ldw	r2,-20(fp)
 10015a4:	10800650 	cmplti	r2,r2,25
 10015a8:	103fd91e 	bne	r2,zero,1001510 <draw_cannon2_frame3+0x44>
void draw_cannon2_frame3(alt_up_pixel_buffer_dma_dev* pixel_buffer, int x, int y ){
	unsigned short * pixel_offset = malloc(sizeof(short)); //2 bytes
	//unsigned short number = (unsigned short) strtoul(name, NULL, 0);
	pixel_offset = &CANNON_2_FRAME3_pixel_data; //set pointer to start of image data
	int i, j;
	for(j=0; j <= CANNON_2_HEIGHT-1; j++){
 10015ac:	e0bffa17 	ldw	r2,-24(fp)
 10015b0:	10800044 	addi	r2,r2,1
 10015b4:	e0bffa15 	stw	r2,-24(fp)
 10015b8:	e0bffa17 	ldw	r2,-24(fp)
 10015bc:	10800650 	cmplti	r2,r2,25
 10015c0:	103fd11e 	bne	r2,zero,1001508 <draw_cannon2_frame3+0x3c>
				alt_up_pixel_buffer_dma_draw(pixel_buffer, *pixel_offset, x+i, y+j);
			}
			pixel_offset++;
		}
	}
}
 10015c4:	e037883a 	mov	sp,fp
 10015c8:	dfc00117 	ldw	ra,4(sp)
 10015cc:	df000017 	ldw	fp,0(sp)
 10015d0:	dec00204 	addi	sp,sp,8
 10015d4:	f800283a 	ret

010015d8 <draw_bmp>:
 * 	image_width, image_height 	: width and height of image to draw
 * 	x, y						: starting location (top left pixel) of drawing
 * Optional: replace all draw_X() calls with this function instead.
 *
 */
void draw_bmp(alt_up_pixel_buffer_dma_dev* pixel_buffer, unsigned short *pixel_data, int image_width, int image_height, int x, int y){
 10015d8:	defff804 	addi	sp,sp,-32
 10015dc:	dfc00715 	stw	ra,28(sp)
 10015e0:	df000615 	stw	fp,24(sp)
 10015e4:	df000604 	addi	fp,sp,24
 10015e8:	e13ffc15 	stw	r4,-16(fp)
 10015ec:	e17ffd15 	stw	r5,-12(fp)
 10015f0:	e1bffe15 	stw	r6,-8(fp)
 10015f4:	e1ffff15 	stw	r7,-4(fp)
	int i, j;
	for(j=0; j <= image_height-1; j++){
 10015f8:	e03ffa15 	stw	zero,-24(fp)
 10015fc:	00002d06 	br	10016b4 <draw_bmp+0xdc>
		for(i=0; i <= image_width-1; i++){
 1001600:	e03ffb15 	stw	zero,-20(fp)
 1001604:	00002406 	br	1001698 <draw_bmp+0xc0>
			if(*pixel_data == 0xFFFF){
 1001608:	e0bffd17 	ldw	r2,-12(fp)
 100160c:	1080000b 	ldhu	r2,0(r2)
 1001610:	10ffffcc 	andi	r3,r2,65535
 1001614:	00bfffd4 	movui	r2,65535
 1001618:	18800c1e 	bne	r3,r2,100164c <draw_bmp+0x74>
				alt_up_pixel_buffer_dma_draw(pixel_buffer, BACKGROUND, x+i, y+j);
 100161c:	e0c00217 	ldw	r3,8(fp)
 1001620:	e0bffb17 	ldw	r2,-20(fp)
 1001624:	1885883a 	add	r2,r3,r2
 1001628:	100d883a 	mov	r6,r2
 100162c:	e0c00317 	ldw	r3,12(fp)
 1001630:	e0bffa17 	ldw	r2,-24(fp)
 1001634:	1885883a 	add	r2,r3,r2
 1001638:	100f883a 	mov	r7,r2
 100163c:	e13ffc17 	ldw	r4,-16(fp)
 1001640:	0173ffd4 	movui	r5,53247
 1001644:	101061c0 	call	101061c <alt_up_pixel_buffer_dma_draw>
 1001648:	00000d06 	br	1001680 <draw_bmp+0xa8>
			}
			else{
				alt_up_pixel_buffer_dma_draw(pixel_buffer, *pixel_data, x+i, y+j);
 100164c:	e0bffd17 	ldw	r2,-12(fp)
 1001650:	1080000b 	ldhu	r2,0(r2)
 1001654:	117fffcc 	andi	r5,r2,65535
 1001658:	e0c00217 	ldw	r3,8(fp)
 100165c:	e0bffb17 	ldw	r2,-20(fp)
 1001660:	1885883a 	add	r2,r3,r2
 1001664:	100d883a 	mov	r6,r2
 1001668:	e0c00317 	ldw	r3,12(fp)
 100166c:	e0bffa17 	ldw	r2,-24(fp)
 1001670:	1885883a 	add	r2,r3,r2
 1001674:	100f883a 	mov	r7,r2
 1001678:	e13ffc17 	ldw	r4,-16(fp)
 100167c:	101061c0 	call	101061c <alt_up_pixel_buffer_dma_draw>
			}
			pixel_data++;
 1001680:	e0bffd17 	ldw	r2,-12(fp)
 1001684:	10800084 	addi	r2,r2,2
 1001688:	e0bffd15 	stw	r2,-12(fp)
 *
 */
void draw_bmp(alt_up_pixel_buffer_dma_dev* pixel_buffer, unsigned short *pixel_data, int image_width, int image_height, int x, int y){
	int i, j;
	for(j=0; j <= image_height-1; j++){
		for(i=0; i <= image_width-1; i++){
 100168c:	e0bffb17 	ldw	r2,-20(fp)
 1001690:	10800044 	addi	r2,r2,1
 1001694:	e0bffb15 	stw	r2,-20(fp)
 1001698:	e0bffe17 	ldw	r2,-8(fp)
 100169c:	10ffffc4 	addi	r3,r2,-1
 10016a0:	e0bffb17 	ldw	r2,-20(fp)
 10016a4:	18bfd80e 	bge	r3,r2,1001608 <draw_bmp+0x30>
 * Optional: replace all draw_X() calls with this function instead.
 *
 */
void draw_bmp(alt_up_pixel_buffer_dma_dev* pixel_buffer, unsigned short *pixel_data, int image_width, int image_height, int x, int y){
	int i, j;
	for(j=0; j <= image_height-1; j++){
 10016a8:	e0bffa17 	ldw	r2,-24(fp)
 10016ac:	10800044 	addi	r2,r2,1
 10016b0:	e0bffa15 	stw	r2,-24(fp)
 10016b4:	e0bfff17 	ldw	r2,-4(fp)
 10016b8:	10ffffc4 	addi	r3,r2,-1
 10016bc:	e0bffa17 	ldw	r2,-24(fp)
 10016c0:	18bfcf0e 	bge	r3,r2,1001600 <draw_bmp+0x28>
				alt_up_pixel_buffer_dma_draw(pixel_buffer, *pixel_data, x+i, y+j);
			}
			pixel_data++;
		}
	}
}
 10016c4:	e037883a 	mov	sp,fp
 10016c8:	dfc00117 	ldw	ra,4(sp)
 10016cc:	df000017 	ldw	fp,0(sp)
 10016d0:	dec00204 	addi	sp,sp,8
 10016d4:	f800283a 	ret

010016d8 <draw_p1box>:

void draw_p1box(alt_up_pixel_buffer_dma_dev* pixel_buffer, int x, int y ){
 10016d8:	defff804 	addi	sp,sp,-32
 10016dc:	dfc00715 	stw	ra,28(sp)
 10016e0:	df000615 	stw	fp,24(sp)
 10016e4:	df000604 	addi	fp,sp,24
 10016e8:	e13ffd15 	stw	r4,-12(fp)
 10016ec:	e17ffe15 	stw	r5,-8(fp)
 10016f0:	e1bfff15 	stw	r6,-4(fp)
	unsigned short * pixel_offset = malloc(sizeof(short)); //2 bytes
 10016f4:	01000084 	movi	r4,2
 10016f8:	10061600 	call	1006160 <malloc>
 10016fc:	e0bffc15 	stw	r2,-16(fp)
	pixel_offset = &P1BOX_pixel_data; //set pointer to start of image data
 1001700:	008040b4 	movhi	r2,258
 1001704:	10bf9e04 	addi	r2,r2,-392
 1001708:	e0bffc15 	stw	r2,-16(fp)
	int i, j;
	for(j=0; j <= P1BOX_HEIGHT-1; j++){
 100170c:	e03ffa15 	stw	zero,-24(fp)
 1001710:	00001b06 	br	1001780 <draw_p1box+0xa8>
		for(i=0; i <= P1BOX_WIDTH-1; i++){
 1001714:	e03ffb15 	stw	zero,-20(fp)
 1001718:	00001306 	br	1001768 <draw_p1box+0x90>
			alt_up_pixel_buffer_dma_draw(pixel_buffer, *pixel_offset, x+i, y+j);
 100171c:	e0bffc17 	ldw	r2,-16(fp)
 1001720:	1080000b 	ldhu	r2,0(r2)
 1001724:	117fffcc 	andi	r5,r2,65535
 1001728:	e0fffe17 	ldw	r3,-8(fp)
 100172c:	e0bffb17 	ldw	r2,-20(fp)
 1001730:	1885883a 	add	r2,r3,r2
 1001734:	100d883a 	mov	r6,r2
 1001738:	e0ffff17 	ldw	r3,-4(fp)
 100173c:	e0bffa17 	ldw	r2,-24(fp)
 1001740:	1885883a 	add	r2,r3,r2
 1001744:	100f883a 	mov	r7,r2
 1001748:	e13ffd17 	ldw	r4,-12(fp)
 100174c:	101061c0 	call	101061c <alt_up_pixel_buffer_dma_draw>
			pixel_offset++;
 1001750:	e0bffc17 	ldw	r2,-16(fp)
 1001754:	10800084 	addi	r2,r2,2
 1001758:	e0bffc15 	stw	r2,-16(fp)
void draw_p1box(alt_up_pixel_buffer_dma_dev* pixel_buffer, int x, int y ){
	unsigned short * pixel_offset = malloc(sizeof(short)); //2 bytes
	pixel_offset = &P1BOX_pixel_data; //set pointer to start of image data
	int i, j;
	for(j=0; j <= P1BOX_HEIGHT-1; j++){
		for(i=0; i <= P1BOX_WIDTH-1; i++){
 100175c:	e0bffb17 	ldw	r2,-20(fp)
 1001760:	10800044 	addi	r2,r2,1
 1001764:	e0bffb15 	stw	r2,-20(fp)
 1001768:	e0bffb17 	ldw	r2,-20(fp)
 100176c:	10801610 	cmplti	r2,r2,88
 1001770:	103fea1e 	bne	r2,zero,100171c <draw_p1box+0x44>

void draw_p1box(alt_up_pixel_buffer_dma_dev* pixel_buffer, int x, int y ){
	unsigned short * pixel_offset = malloc(sizeof(short)); //2 bytes
	pixel_offset = &P1BOX_pixel_data; //set pointer to start of image data
	int i, j;
	for(j=0; j <= P1BOX_HEIGHT-1; j++){
 1001774:	e0bffa17 	ldw	r2,-24(fp)
 1001778:	10800044 	addi	r2,r2,1
 100177c:	e0bffa15 	stw	r2,-24(fp)
 1001780:	e0bffa17 	ldw	r2,-24(fp)
 1001784:	108003d0 	cmplti	r2,r2,15
 1001788:	103fe21e 	bne	r2,zero,1001714 <draw_p1box+0x3c>
		for(i=0; i <= P1BOX_WIDTH-1; i++){
			alt_up_pixel_buffer_dma_draw(pixel_buffer, *pixel_offset, x+i, y+j);
			pixel_offset++;
		}
	}
}
 100178c:	e037883a 	mov	sp,fp
 1001790:	dfc00117 	ldw	ra,4(sp)
 1001794:	df000017 	ldw	fp,0(sp)
 1001798:	dec00204 	addi	sp,sp,8
 100179c:	f800283a 	ret

010017a0 <draw_p2box>:

void draw_p2box(alt_up_pixel_buffer_dma_dev* pixel_buffer, int x, int y ){
 10017a0:	defff804 	addi	sp,sp,-32
 10017a4:	dfc00715 	stw	ra,28(sp)
 10017a8:	df000615 	stw	fp,24(sp)
 10017ac:	df000604 	addi	fp,sp,24
 10017b0:	e13ffd15 	stw	r4,-12(fp)
 10017b4:	e17ffe15 	stw	r5,-8(fp)
 10017b8:	e1bfff15 	stw	r6,-4(fp)
	unsigned short * pixel_offset = malloc(sizeof(short)); //2 bytes
 10017bc:	01000084 	movi	r4,2
 10017c0:	10061600 	call	1006160 <malloc>
 10017c4:	e0bffc15 	stw	r2,-16(fp)
	pixel_offset = &P2BOX_pixel_data; //set pointer to start of image data
 10017c8:	008040b4 	movhi	r2,258
 10017cc:	10837d04 	addi	r2,r2,3572
 10017d0:	e0bffc15 	stw	r2,-16(fp)
	int i, j;
	for(j=0; j <= P2BOX_HEIGHT-1; j++){
 10017d4:	e03ffa15 	stw	zero,-24(fp)
 10017d8:	00001b06 	br	1001848 <draw_p2box+0xa8>
		for(i=0; i <= P2BOX_WIDTH-1; i++){
 10017dc:	e03ffb15 	stw	zero,-20(fp)
 10017e0:	00001306 	br	1001830 <draw_p2box+0x90>
			alt_up_pixel_buffer_dma_draw(pixel_buffer, *pixel_offset, x+i, y+j);
 10017e4:	e0bffc17 	ldw	r2,-16(fp)
 10017e8:	1080000b 	ldhu	r2,0(r2)
 10017ec:	117fffcc 	andi	r5,r2,65535
 10017f0:	e0fffe17 	ldw	r3,-8(fp)
 10017f4:	e0bffb17 	ldw	r2,-20(fp)
 10017f8:	1885883a 	add	r2,r3,r2
 10017fc:	100d883a 	mov	r6,r2
 1001800:	e0ffff17 	ldw	r3,-4(fp)
 1001804:	e0bffa17 	ldw	r2,-24(fp)
 1001808:	1885883a 	add	r2,r3,r2
 100180c:	100f883a 	mov	r7,r2
 1001810:	e13ffd17 	ldw	r4,-12(fp)
 1001814:	101061c0 	call	101061c <alt_up_pixel_buffer_dma_draw>
			pixel_offset++;
 1001818:	e0bffc17 	ldw	r2,-16(fp)
 100181c:	10800084 	addi	r2,r2,2
 1001820:	e0bffc15 	stw	r2,-16(fp)
void draw_p2box(alt_up_pixel_buffer_dma_dev* pixel_buffer, int x, int y ){
	unsigned short * pixel_offset = malloc(sizeof(short)); //2 bytes
	pixel_offset = &P2BOX_pixel_data; //set pointer to start of image data
	int i, j;
	for(j=0; j <= P2BOX_HEIGHT-1; j++){
		for(i=0; i <= P2BOX_WIDTH-1; i++){
 1001824:	e0bffb17 	ldw	r2,-20(fp)
 1001828:	10800044 	addi	r2,r2,1
 100182c:	e0bffb15 	stw	r2,-20(fp)
 1001830:	e0bffb17 	ldw	r2,-20(fp)
 1001834:	10801610 	cmplti	r2,r2,88
 1001838:	103fea1e 	bne	r2,zero,10017e4 <draw_p2box+0x44>

void draw_p2box(alt_up_pixel_buffer_dma_dev* pixel_buffer, int x, int y ){
	unsigned short * pixel_offset = malloc(sizeof(short)); //2 bytes
	pixel_offset = &P2BOX_pixel_data; //set pointer to start of image data
	int i, j;
	for(j=0; j <= P2BOX_HEIGHT-1; j++){
 100183c:	e0bffa17 	ldw	r2,-24(fp)
 1001840:	10800044 	addi	r2,r2,1
 1001844:	e0bffa15 	stw	r2,-24(fp)
 1001848:	e0bffa17 	ldw	r2,-24(fp)
 100184c:	108003d0 	cmplti	r2,r2,15
 1001850:	103fe21e 	bne	r2,zero,10017dc <draw_p2box+0x3c>
		for(i=0; i <= P2BOX_WIDTH-1; i++){
			alt_up_pixel_buffer_dma_draw(pixel_buffer, *pixel_offset, x+i, y+j);
			pixel_offset++;
		}
	}
}
 1001854:	e037883a 	mov	sp,fp
 1001858:	dfc00117 	ldw	ra,4(sp)
 100185c:	df000017 	ldw	fp,0(sp)
 1001860:	dec00204 	addi	sp,sp,8
 1001864:	f800283a 	ret

01001868 <main_2>:
#include <stdio.h>
#include "altera_up_avalon_video_pixel_buffer_dma.h"
#include "altera_up_avalon_video_character_buffer_with_dma.h"
int main_2(void);
int main_2(void)
{
 1001868:	defff604 	addi	sp,sp,-40
 100186c:	dfc00915 	stw	ra,36(sp)
 1001870:	df000815 	stw	fp,32(sp)
 1001874:	df000804 	addi	fp,sp,32
	printf("Hello from Nios II! Starting program...\n");
 1001878:	01004134 	movhi	r4,260
 100187c:	21181904 	addi	r4,r4,24676
 1001880:	10069cc0 	call	10069cc <puts>

	alt_up_pixel_buffer_dma_dev* pixel_buffer;
	pixel_buffer = alt_up_pixel_buffer_dma_open_dev("/dev/video_pixel_buffer_dma_0"); 	// Use the name of your pixel buffer DMA core
 1001884:	01004134 	movhi	r4,260
 1001888:	21182304 	addi	r4,r4,24716
 100188c:	10105dc0 	call	10105dc <alt_up_pixel_buffer_dma_open_dev>
 1001890:	e0bfff15 	stw	r2,-4(fp)

	// Set the background buffer address  Although we dont use the background,
	// they only provide a function to change the background buffer address, so we must set that, and then swap it to the foreground.
	alt_up_pixel_buffer_dma_change_back_buffer_address(pixel_buffer,SRAM_0_BASE);
 1001894:	e13fff17 	ldw	r4,-4(fp)
 1001898:	01400234 	movhi	r5,8
 100189c:	10107c80 	call	10107c8 <alt_up_pixel_buffer_dma_change_back_buffer_address>

	alt_up_pixel_buffer_dma_swap_buffers(pixel_buffer); // Swap background and foreground buffers
 10018a0:	e13fff17 	ldw	r4,-4(fp)
 10018a4:	10108200 	call	1010820 <alt_up_pixel_buffer_dma_swap_buffers>
	while (alt_up_pixel_buffer_dma_check_swap_buffers_status(pixel_buffer)); // Wait for the swap to complete
 10018a8:	e13fff17 	ldw	r4,-4(fp)
 10018ac:	10108780 	call	1010878 <alt_up_pixel_buffer_dma_check_swap_buffers_status>
 10018b0:	1004c03a 	cmpne	r2,r2,zero
 10018b4:	103ffc1e 	bne	r2,zero,10018a8 <main_2+0x40>
	alt_up_pixel_buffer_dma_clear_screen(pixel_buffer, 0); 	// Clear the screen
 10018b8:	e13fff17 	ldw	r4,-4(fp)
 10018bc:	000b883a 	mov	r5,zero
 10018c0:	10108ac0 	call	10108ac <alt_up_pixel_buffer_dma_clear_screen>
	alt_up_pixel_buffer_dma_draw_line(pixel_buffer, 0, 50, 50, 50, 0xFFFF, 0); // Draw a white line to the foreground buffer
 10018c4:	00800c84 	movi	r2,50
 10018c8:	d8800015 	stw	r2,0(sp)
 10018cc:	00bfffd4 	movui	r2,65535
 10018d0:	d8800115 	stw	r2,4(sp)
 10018d4:	d8000215 	stw	zero,8(sp)
 10018d8:	e13fff17 	ldw	r4,-4(fp)
 10018dc:	000b883a 	mov	r5,zero
 10018e0:	01800c84 	movi	r6,50
 10018e4:	01c00c84 	movi	r7,50
 10018e8:	10117e00 	call	10117e0 <alt_up_pixel_buffer_dma_draw_line>
	alt_up_pixel_buffer_dma_draw_line(pixel_buffer, 50, 100, 100, 100, 0xFFFF, 0);
 10018ec:	00801904 	movi	r2,100
 10018f0:	d8800015 	stw	r2,0(sp)
 10018f4:	00bfffd4 	movui	r2,65535
 10018f8:	d8800115 	stw	r2,4(sp)
 10018fc:	d8000215 	stw	zero,8(sp)
 1001900:	e13fff17 	ldw	r4,-4(fp)
 1001904:	01400c84 	movi	r5,50
 1001908:	01801904 	movi	r6,100
 100190c:	01c01904 	movi	r7,100
 1001910:	10117e00 	call	10117e0 <alt_up_pixel_buffer_dma_draw_line>
	alt_up_pixel_buffer_dma_draw_line(pixel_buffer, 100, 50, 150, 50, 0xFFFF, 0);
 1001914:	00800c84 	movi	r2,50
 1001918:	d8800015 	stw	r2,0(sp)
 100191c:	00bfffd4 	movui	r2,65535
 1001920:	d8800115 	stw	r2,4(sp)
 1001924:	d8000215 	stw	zero,8(sp)
 1001928:	e13fff17 	ldw	r4,-4(fp)
 100192c:	01401904 	movi	r5,100
 1001930:	01800c84 	movi	r6,50
 1001934:	01c02584 	movi	r7,150
 1001938:	10117e00 	call	10117e0 <alt_up_pixel_buffer_dma_draw_line>

	alt_up_pixel_buffer_dma_draw_line(pixel_buffer, 200, 100, 200, 150, 0xFFFF, 0);
 100193c:	00802584 	movi	r2,150
 1001940:	d8800015 	stw	r2,0(sp)
 1001944:	00bfffd4 	movui	r2,65535
 1001948:	d8800115 	stw	r2,4(sp)
 100194c:	d8000215 	stw	zero,8(sp)
 1001950:	e13fff17 	ldw	r4,-4(fp)
 1001954:	01403204 	movi	r5,200
 1001958:	01801904 	movi	r6,100
 100195c:	01c03204 	movi	r7,200
 1001960:	10117e00 	call	10117e0 <alt_up_pixel_buffer_dma_draw_line>
	alt_up_pixel_buffer_dma_draw_line(pixel_buffer, 250, 100, 250, 150, 0xFFFF, 0);
 1001964:	00802584 	movi	r2,150
 1001968:	d8800015 	stw	r2,0(sp)
 100196c:	00bfffd4 	movui	r2,65535
 1001970:	d8800115 	stw	r2,4(sp)
 1001974:	d8000215 	stw	zero,8(sp)
 1001978:	e13fff17 	ldw	r4,-4(fp)
 100197c:	01403e84 	movi	r5,250
 1001980:	01801904 	movi	r6,100
 1001984:	01c03e84 	movi	r7,250
 1001988:	10117e00 	call	10117e0 <alt_up_pixel_buffer_dma_draw_line>
	alt_up_pixel_buffer_dma_draw_line(pixel_buffer, 200, 200, 250, 200, 0xFFFF, 0);
 100198c:	00803204 	movi	r2,200
 1001990:	d8800015 	stw	r2,0(sp)
 1001994:	00bfffd4 	movui	r2,65535
 1001998:	d8800115 	stw	r2,4(sp)
 100199c:	d8000215 	stw	zero,8(sp)
 10019a0:	e13fff17 	ldw	r4,-4(fp)
 10019a4:	01403204 	movi	r5,200
 10019a8:	01803204 	movi	r6,200
 10019ac:	01c03e84 	movi	r7,250
 10019b0:	10117e00 	call	10117e0 <alt_up_pixel_buffer_dma_draw_line>


	// Initialize char buffer
	alt_up_char_buffer_dev * char_buffer;
	char_buffer = alt_up_char_buffer_open_dev("/dev/video_character_buffer_with_dma_0");
 10019b4:	01004134 	movhi	r4,260
 10019b8:	21182b04 	addi	r4,r4,24748
 10019bc:	101035c0 	call	101035c <alt_up_char_buffer_open_dev>
 10019c0:	e0bffe15 	stw	r2,-8(fp)
	alt_up_char_buffer_init(char_buffer); //initialize char buffer
 10019c4:	e13ffe17 	ldw	r4,-8(fp)
 10019c8:	10102d80 	call	10102d8 <alt_up_char_buffer_init>
	alt_up_char_buffer_string(char_buffer, "EECE 381", 40, 30);	// Write some text
 10019cc:	e13ffe17 	ldw	r4,-8(fp)
 10019d0:	01404134 	movhi	r5,260
 10019d4:	29583504 	addi	r5,r5,24788
 10019d8:	01800a04 	movi	r6,40
 10019dc:	01c00784 	movi	r7,30
 10019e0:	101046c0 	call	101046c <alt_up_char_buffer_string>

	//writes "EECE 381" downward scrolling across screen
	int x, y=0, z = 0;
 10019e4:	e03ffc15 	stw	zero,-16(fp)
 10019e8:	e03ffb15 	stw	zero,-20(fp)
	while(1){
		for(x=0; x <= 80; x++){
 10019ec:	e03ffd15 	stw	zero,-12(fp)
 10019f0:	00001706 	br	1001a50 <main_2+0x1e8>
			while(y <= 60){
				alt_up_char_buffer_string(char_buffer, "Today is September 23, 2014", x, y);
 10019f4:	e1bffd17 	ldw	r6,-12(fp)
 10019f8:	e1fffc17 	ldw	r7,-16(fp)
 10019fc:	e13ffe17 	ldw	r4,-8(fp)
 1001a00:	01404134 	movhi	r5,260
 1001a04:	29583804 	addi	r5,r5,24800
 1001a08:	101046c0 	call	101046c <alt_up_char_buffer_string>

				alt_up_char_buffer_clear(char_buffer); //clear char buffer
 1001a0c:	e13ffe17 	ldw	r4,-8(fp)
 1001a10:	10105800 	call	1010580 <alt_up_char_buffer_clear>
				alt_up_char_buffer_init(char_buffer); //initialize again
 1001a14:	e13ffe17 	ldw	r4,-8(fp)
 1001a18:	10102d80 	call	10102d8 <alt_up_char_buffer_init>
				y++;
 1001a1c:	e0bffc17 	ldw	r2,-16(fp)
 1001a20:	10800044 	addi	r2,r2,1
 1001a24:	e0bffc15 	stw	r2,-16(fp)

	//writes "EECE 381" downward scrolling across screen
	int x, y=0, z = 0;
	while(1){
		for(x=0; x <= 80; x++){
			while(y <= 60){
 1001a28:	e0bffc17 	ldw	r2,-16(fp)
 1001a2c:	10800f50 	cmplti	r2,r2,61
 1001a30:	103ff01e 	bne	r2,zero,10019f4 <main_2+0x18c>

				alt_up_char_buffer_clear(char_buffer); //clear char buffer
				alt_up_char_buffer_init(char_buffer); //initialize again
				y++;
			}
			y=0;
 1001a34:	e03ffc15 	stw	zero,-16(fp)
			x += 10;
 1001a38:	e0bffd17 	ldw	r2,-12(fp)
 1001a3c:	10800284 	addi	r2,r2,10
 1001a40:	e0bffd15 	stw	r2,-12(fp)
	alt_up_char_buffer_string(char_buffer, "EECE 381", 40, 30);	// Write some text

	//writes "EECE 381" downward scrolling across screen
	int x, y=0, z = 0;
	while(1){
		for(x=0; x <= 80; x++){
 1001a44:	e0bffd17 	ldw	r2,-12(fp)
 1001a48:	10800044 	addi	r2,r2,1
 1001a4c:	e0bffd15 	stw	r2,-12(fp)
 1001a50:	e0bffd17 	ldw	r2,-12(fp)
 1001a54:	10801450 	cmplti	r2,r2,81
 1001a58:	103ff31e 	bne	r2,zero,1001a28 <main_2+0x1c0>
				printf("from right corner\n");
				z=1;
			}
*/
		}
	}
 1001a5c:	003fe306 	br	10019ec <main_2+0x184>

01001a60 <main_ex5>:
#include "altera_up_avalon_video_pixel_buffer_dma.h"
#define drawer_base (volatile int *) 0x6000
#define HARDWARE_ACCEL 1
int main_ex5(void);
int main_ex5()
{
 1001a60:	defffc04 	addi	sp,sp,-16
 1001a64:	dfc00315 	stw	ra,12(sp)
 1001a68:	df000215 	stw	fp,8(sp)
 1001a6c:	df000204 	addi	fp,sp,8
	alt_up_pixel_buffer_dma_dev* pixel_buffer;
	pixel_buffer = alt_up_pixel_buffer_dma_open_dev("/dev/video_pixel_buffer_dma_0");
 1001a70:	01004134 	movhi	r4,260
 1001a74:	21183f04 	addi	r4,r4,24828
 1001a78:	10105dc0 	call	10105dc <alt_up_pixel_buffer_dma_open_dev>
 1001a7c:	e0bffe15 	stw	r2,-8(fp)
	if (pixel_buffer == 0) {
 1001a80:	e0bffe17 	ldw	r2,-8(fp)
 1001a84:	1004c03a 	cmpne	r2,r2,zero
 1001a88:	1000031e 	bne	r2,zero,1001a98 <main_ex5+0x38>
		printf("error initializing pixel buffer (check name in alt_up_pixel_buffer_dma_open_dev)\n");
 1001a8c:	01004134 	movhi	r4,260
 1001a90:	21184704 	addi	r4,r4,24860
 1001a94:	10069cc0 	call	10069cc <puts>
	}
	alt_up_pixel_buffer_dma_change_back_buffer_address(pixel_buffer, SRAM_0_BASE);
 1001a98:	e13ffe17 	ldw	r4,-8(fp)
 1001a9c:	01400234 	movhi	r5,8
 1001aa0:	10107c80 	call	10107c8 <alt_up_pixel_buffer_dma_change_back_buffer_address>
	alt_up_pixel_buffer_dma_swap_buffers(pixel_buffer);
 1001aa4:	e13ffe17 	ldw	r4,-8(fp)
 1001aa8:	10108200 	call	1010820 <alt_up_pixel_buffer_dma_swap_buffers>
	while (alt_up_pixel_buffer_dma_check_swap_buffers_status(pixel_buffer));
 1001aac:	e13ffe17 	ldw	r4,-8(fp)
 1001ab0:	10108780 	call	1010878 <alt_up_pixel_buffer_dma_check_swap_buffers_status>
 1001ab4:	1004c03a 	cmpne	r2,r2,zero
 1001ab8:	103ffc1e 	bne	r2,zero,1001aac <main_ex5+0x4c>
	alt_up_pixel_buffer_dma_clear_screen(pixel_buffer, 0);
 1001abc:	e13ffe17 	ldw	r4,-8(fp)
 1001ac0:	000b883a 	mov	r5,zero
 1001ac4:	10108ac0 	call	10108ac <alt_up_pixel_buffer_dma_clear_screen>
	srand(time(NULL));
 1001ac8:	0009883a 	mov	r4,zero
 1001acc:	1006b580 	call	1006b58 <time>
 1001ad0:	1009883a 	mov	r4,r2
 1001ad4:	10069e00 	call	10069e0 <srand>
	while(1){
		if (HARDWARE_ACCEL) {
			IOWR_32DIRECT(drawer_base,0,rand()%320); // Set x1
 1001ad8:	10069fc0 	call	10069fc <rand>
 1001adc:	1009883a 	mov	r4,r2
 1001ae0:	01405004 	movi	r5,320
 1001ae4:	10059ec0 	call	10059ec <__modsi3>
 1001ae8:	1007883a 	mov	r3,r2
 1001aec:	00980004 	movi	r2,24576
 1001af0:	10c00035 	stwio	r3,0(r2)
			IOWR_32DIRECT(drawer_base,4,rand()%240); // Set y1
 1001af4:	10069fc0 	call	10069fc <rand>
 1001af8:	1009883a 	mov	r4,r2
 1001afc:	01403c04 	movi	r5,240
 1001b00:	10059ec0 	call	10059ec <__modsi3>
 1001b04:	1007883a 	mov	r3,r2
 1001b08:	00980104 	movi	r2,24580
 1001b0c:	10c00035 	stwio	r3,0(r2)
			IOWR_32DIRECT(drawer_base,8,rand()%320); // Set x2
 1001b10:	10069fc0 	call	10069fc <rand>
 1001b14:	1009883a 	mov	r4,r2
 1001b18:	01405004 	movi	r5,320
 1001b1c:	10059ec0 	call	10059ec <__modsi3>
 1001b20:	1007883a 	mov	r3,r2
 1001b24:	00980204 	movi	r2,24584
 1001b28:	10c00035 	stwio	r3,0(r2)
			IOWR_32DIRECT(drawer_base,12,rand()%240); // Set y2
 1001b2c:	10069fc0 	call	10069fc <rand>
 1001b30:	1009883a 	mov	r4,r2
 1001b34:	01403c04 	movi	r5,240
 1001b38:	10059ec0 	call	10059ec <__modsi3>
 1001b3c:	1007883a 	mov	r3,r2
 1001b40:	00980304 	movi	r2,24588
 1001b44:	10c00035 	stwio	r3,0(r2)
			IOWR_32DIRECT(drawer_base,16,rand()%0x10000);  // Set colour
 1001b48:	10069fc0 	call	10069fc <rand>
 1001b4c:	1007883a 	mov	r3,r2
 1001b50:	00a00074 	movhi	r2,32769
 1001b54:	10bfffc4 	addi	r2,r2,-1
 1001b58:	1886703a 	and	r3,r3,r2
 1001b5c:	e0ffff15 	stw	r3,-4(fp)
 1001b60:	e0ffff17 	ldw	r3,-4(fp)
 1001b64:	1804403a 	cmpge	r2,r3,zero
 1001b68:	1000091e 	bne	r2,zero,1001b90 <main_ex5+0x130>
 1001b6c:	e0bfff17 	ldw	r2,-4(fp)
 1001b70:	10bfffc4 	addi	r2,r2,-1
 1001b74:	e0bfff15 	stw	r2,-4(fp)
 1001b78:	e0ffff17 	ldw	r3,-4(fp)
 1001b7c:	18fffff4 	orhi	r3,r3,65535
 1001b80:	e0ffff15 	stw	r3,-4(fp)
 1001b84:	e0bfff17 	ldw	r2,-4(fp)
 1001b88:	10800044 	addi	r2,r2,1
 1001b8c:	e0bfff15 	stw	r2,-4(fp)
 1001b90:	e0ffff17 	ldw	r3,-4(fp)
 1001b94:	00980404 	movi	r2,24592
 1001b98:	10c00035 	stwio	r3,0(r2)
			IOWR_32DIRECT(drawer_base,20,1);  // Start drawing
 1001b9c:	00d80504 	movi	r3,24596
 1001ba0:	00800044 	movi	r2,1
 1001ba4:	18800035 	stwio	r2,0(r3)
			while(IORD_32DIRECT(drawer_base,20)==0); // wait until done
 1001ba8:	00980504 	movi	r2,24596
 1001bac:	10800037 	ldwio	r2,0(r2)
 1001bb0:	1005003a 	cmpeq	r2,r2,zero
 1001bb4:	103ffc1e 	bne	r2,zero,1001ba8 <main_ex5+0x148>
		} else {
			   alt_up_pixel_buffer_dma_draw_box(pixel_buffer, rand()%320,rand()%3240,rand()%320,rand()%240,rand()%0x10000,0);
		}
	}
 1001bb8:	003fc706 	br	1001ad8 <main_ex5+0x78>

01001bbc <main_setup>:
//draws a box of input colour between x_1, y_2 and x_2, y_2 using the pixel_drawer
void draw_box(int x_1, int y_1, int x_2, int y_2, unsigned int colour);
//draws a ball [diamond] of input colour with radius 2px about centre point (x,y)
void draw_ball(int x, int y, unsigned int colour);
int main_setup(void);
int main_setup(void){
 1001bbc:	defff804 	addi	sp,sp,-32
 1001bc0:	dfc00715 	stw	ra,28(sp)
 1001bc4:	df000615 	stw	fp,24(sp)
 1001bc8:	df000604 	addi	fp,sp,24

	//setup pixel buffer
	alt_up_pixel_buffer_dma_dev* pixel_buffer;
	pixel_buffer = alt_up_pixel_buffer_dma_open_dev("/dev/video_pixel_buffer_dma_0");
 1001bcc:	01004134 	movhi	r4,260
 1001bd0:	21191d04 	addi	r4,r4,25716
 1001bd4:	10105dc0 	call	10105dc <alt_up_pixel_buffer_dma_open_dev>
 1001bd8:	e0bffb15 	stw	r2,-20(fp)
	if (pixel_buffer == 0) {
 1001bdc:	e0bffb17 	ldw	r2,-20(fp)
 1001be0:	1004c03a 	cmpne	r2,r2,zero
 1001be4:	1000031e 	bne	r2,zero,1001bf4 <main_setup+0x38>
		printf("error initializing pixel buffer (check name in alt_up_pixel_buffer_dma_open_dev)\n");
 1001be8:	01004134 	movhi	r4,260
 1001bec:	21192504 	addi	r4,r4,25748
 1001bf0:	10069cc0 	call	10069cc <puts>
	}
	alt_up_pixel_buffer_dma_change_back_buffer_address(pixel_buffer, SRAM_0_BASE);
 1001bf4:	e13ffb17 	ldw	r4,-20(fp)
 1001bf8:	01400234 	movhi	r5,8
 1001bfc:	10107c80 	call	10107c8 <alt_up_pixel_buffer_dma_change_back_buffer_address>
	alt_up_pixel_buffer_dma_swap_buffers(pixel_buffer);
 1001c00:	e13ffb17 	ldw	r4,-20(fp)
 1001c04:	10108200 	call	1010820 <alt_up_pixel_buffer_dma_swap_buffers>
	while (alt_up_pixel_buffer_dma_check_swap_buffers_status(pixel_buffer));
 1001c08:	e13ffb17 	ldw	r4,-20(fp)
 1001c0c:	10108780 	call	1010878 <alt_up_pixel_buffer_dma_check_swap_buffers_status>
 1001c10:	1004c03a 	cmpne	r2,r2,zero
 1001c14:	103ffc1e 	bne	r2,zero,1001c08 <main_setup+0x4c>
	alt_up_pixel_buffer_dma_clear_screen(pixel_buffer, 0);
 1001c18:	e13ffb17 	ldw	r4,-20(fp)
 1001c1c:	000b883a 	mov	r5,zero
 1001c20:	10108ac0 	call	10108ac <alt_up_pixel_buffer_dma_clear_screen>
	srand(time(NULL));
 1001c24:	0009883a 	mov	r4,zero
 1001c28:	1006b580 	call	1006b58 <time>
 1001c2c:	1009883a 	mov	r4,r2
 1001c30:	10069e00 	call	10069e0 <srand>

	//setup char buffer
	alt_up_char_buffer_dev * char_buffer;
	char_buffer = alt_up_char_buffer_open_dev("/dev/video_character_buffer_with_dma_0");
 1001c34:	01004134 	movhi	r4,260
 1001c38:	21193a04 	addi	r4,r4,25832
 1001c3c:	101035c0 	call	101035c <alt_up_char_buffer_open_dev>
 1001c40:	e0bffa15 	stw	r2,-24(fp)
	alt_up_char_buffer_init(char_buffer); //initialize char buffer
 1001c44:	e13ffa17 	ldw	r4,-24(fp)
 1001c48:	10102d80 	call	10102d8 <alt_up_char_buffer_init>
	alt_up_char_buffer_clear(char_buffer); //clear char buffer to erase previous angle text
 1001c4c:	e13ffa17 	ldw	r4,-24(fp)
 1001c50:	10105800 	call	1010580 <alt_up_char_buffer_clear>
//	alt_up_pixel_buffer_dma_draw_box(pixel_buffer, 2, 238, 20, 210,rand() % 0x10000, 0); //25x50 rectangle
//	//player2 rectangle
//	alt_up_pixel_buffer_dma_draw_box(pixel_buffer, 318, 238, 300, 210,rand() % 0x10000, 0); //25x50 rectangle

	Shape_coord last_line;
	last_line.x_1 = 0;
 1001c54:	e03ffc15 	stw	zero,-16(fp)
	last_line.x_2 = 0;
 1001c58:	e03ffd15 	stw	zero,-12(fp)
	last_line.y_1 = 0;
 1001c5c:	e03ffe15 	stw	zero,-8(fp)
	last_line.y_2 = 0;
 1001c60:	e03fff15 	stw	zero,-4(fp)

	//draw empty power bars
	draw_power_bar(1);
 1001c64:	01000044 	movi	r4,1
 1001c68:	1001fb80 	call	1001fb8 <draw_power_bar>
	draw_power_bar(2);
 1001c6c:	01000084 	movi	r4,2
 1001c70:	1001fb80 	call	1001fb8 <draw_power_bar>

	draw_ball(100, 100, 0xFF000);
 1001c74:	01001904 	movi	r4,100
 1001c78:	01401904 	movi	r5,100
 1001c7c:	01800434 	movhi	r6,16
 1001c80:	31bc0004 	addi	r6,r6,-4096
 1001c84:	10022d00 	call	10022d0 <draw_ball>
//			update_power(player, velocity);
//		}



	}
 1001c88:	003fff06 	br	1001c88 <main_setup+0xcc>

01001c8c <show_angle>:

	return 0;
}

void show_angle(int player, double angle, alt_up_pixel_buffer_dma_dev* pixel_buffer, Shape_coord *last_line, alt_up_char_buffer_dev * char_buffer){
 1001c8c:	deffec04 	addi	sp,sp,-80
 1001c90:	dfc01315 	stw	ra,76(sp)
 1001c94:	df001215 	stw	fp,72(sp)
 1001c98:	dcc01115 	stw	r19,68(sp)
 1001c9c:	dc801015 	stw	r18,64(sp)
 1001ca0:	dc400f15 	stw	r17,60(sp)
 1001ca4:	dc000e15 	stw	r16,56(sp)
 1001ca8:	df000e04 	addi	fp,sp,56
 1001cac:	e13ffc15 	stw	r4,-16(fp)
 1001cb0:	e17ffd15 	stw	r5,-12(fp)
 1001cb4:	e1bffe15 	stw	r6,-8(fp)
 1001cb8:	e1ffff15 	stw	r7,-4(fp)
	double theta = angle*M_PI/180;
 1001cbc:	e13ffd17 	ldw	r4,-12(fp)
 1001cc0:	e17ffe17 	ldw	r5,-8(fp)
 1001cc4:	01951134 	movhi	r6,21572
 1001cc8:	318b4604 	addi	r6,r6,11544
 1001ccc:	01d00274 	movhi	r7,16393
 1001cd0:	39c87ec4 	addi	r7,r7,8699
 1001cd4:	1004e7c0 	call	1004e7c <__muldf3>
 1001cd8:	1009883a 	mov	r4,r2
 1001cdc:	180b883a 	mov	r5,r3
 1001ce0:	2005883a 	mov	r2,r4
 1001ce4:	2807883a 	mov	r3,r5
 1001ce8:	1009883a 	mov	r4,r2
 1001cec:	180b883a 	mov	r5,r3
 1001cf0:	000d883a 	mov	r6,zero
 1001cf4:	01d019f4 	movhi	r7,16487
 1001cf8:	39e00004 	addi	r7,r7,-32768
 1001cfc:	10052400 	call	1005240 <__divdf3>
 1001d00:	1009883a 	mov	r4,r2
 1001d04:	180b883a 	mov	r5,r3
 1001d08:	e13ffa15 	stw	r4,-24(fp)
 1001d0c:	e17ffb15 	stw	r5,-20(fp)
	//TODO: convert input angle number into string...
	int x_1, x_2;
	int y_1 = 195;
 1001d10:	008030c4 	movi	r2,195
 1001d14:	e0bff715 	stw	r2,-36(fp)
	int y_2 = y_1-15*sin(theta);
 1001d18:	e13ff717 	ldw	r4,-36(fp)
 1001d1c:	10057400 	call	1005740 <__floatsidf>
 1001d20:	1021883a 	mov	r16,r2
 1001d24:	1823883a 	mov	r17,r3
 1001d28:	e13ffa17 	ldw	r4,-24(fp)
 1001d2c:	e17ffb17 	ldw	r5,-20(fp)
 1001d30:	10024dc0 	call	10024dc <sin>
 1001d34:	100b883a 	mov	r5,r2
 1001d38:	180d883a 	mov	r6,r3
 1001d3c:	2809883a 	mov	r4,r5
 1001d40:	300b883a 	mov	r5,r6
 1001d44:	000d883a 	mov	r6,zero
 1001d48:	01f00bb4 	movhi	r7,49198
 1001d4c:	1004e7c0 	call	1004e7c <__muldf3>
 1001d50:	1009883a 	mov	r4,r2
 1001d54:	180b883a 	mov	r5,r3
 1001d58:	2005883a 	mov	r2,r4
 1001d5c:	2807883a 	mov	r3,r5
 1001d60:	8009883a 	mov	r4,r16
 1001d64:	880b883a 	mov	r5,r17
 1001d68:	100d883a 	mov	r6,r2
 1001d6c:	180f883a 	mov	r7,r3
 1001d70:	1004e080 	call	1004e08 <__adddf3>
 1001d74:	1009883a 	mov	r4,r2
 1001d78:	180b883a 	mov	r5,r3
 1001d7c:	2005883a 	mov	r2,r4
 1001d80:	2807883a 	mov	r3,r5
 1001d84:	1009883a 	mov	r4,r2
 1001d88:	180b883a 	mov	r5,r3
 1001d8c:	10058380 	call	1005838 <__fixdfsi>
 1001d90:	e0bff615 	stw	r2,-40(fp)
	int line_length = 50;
 1001d94:	00800c84 	movi	r2,50
 1001d98:	e0bff515 	stw	r2,-44(fp)

	if(player == 1){
 1001d9c:	e0bffc17 	ldw	r2,-16(fp)
 1001da0:	10800058 	cmpnei	r2,r2,1
 1001da4:	1000261e 	bne	r2,zero,1001e40 <show_angle+0x1b4>
		x_1 = 40;
 1001da8:	00800a04 	movi	r2,40
 1001dac:	e0bff915 	stw	r2,-28(fp)
		x_2 = x_1 + line_length*cos(theta);
 1001db0:	e13ff917 	ldw	r4,-28(fp)
 1001db4:	10057400 	call	1005740 <__floatsidf>
 1001db8:	1025883a 	mov	r18,r2
 1001dbc:	1827883a 	mov	r19,r3
 1001dc0:	e13ff517 	ldw	r4,-44(fp)
 1001dc4:	10057400 	call	1005740 <__floatsidf>
 1001dc8:	1021883a 	mov	r16,r2
 1001dcc:	1823883a 	mov	r17,r3
 1001dd0:	e13ffa17 	ldw	r4,-24(fp)
 1001dd4:	e17ffb17 	ldw	r5,-20(fp)
 1001dd8:	10023740 	call	1002374 <cos>
 1001ddc:	100f883a 	mov	r7,r2
 1001de0:	1811883a 	mov	r8,r3
 1001de4:	8009883a 	mov	r4,r16
 1001de8:	880b883a 	mov	r5,r17
 1001dec:	380d883a 	mov	r6,r7
 1001df0:	400f883a 	mov	r7,r8
 1001df4:	1004e7c0 	call	1004e7c <__muldf3>
 1001df8:	1009883a 	mov	r4,r2
 1001dfc:	180b883a 	mov	r5,r3
 1001e00:	2005883a 	mov	r2,r4
 1001e04:	2807883a 	mov	r3,r5
 1001e08:	9009883a 	mov	r4,r18
 1001e0c:	980b883a 	mov	r5,r19
 1001e10:	100d883a 	mov	r6,r2
 1001e14:	180f883a 	mov	r7,r3
 1001e18:	1004e080 	call	1004e08 <__adddf3>
 1001e1c:	1009883a 	mov	r4,r2
 1001e20:	180b883a 	mov	r5,r3
 1001e24:	2005883a 	mov	r2,r4
 1001e28:	2807883a 	mov	r3,r5
 1001e2c:	1009883a 	mov	r4,r2
 1001e30:	180b883a 	mov	r5,r3
 1001e34:	10058380 	call	1005838 <__fixdfsi>
 1001e38:	e0bff815 	stw	r2,-32(fp)
 1001e3c:	00002506 	br	1001ed4 <show_angle+0x248>
		//alt_up_char_buffer_string(char_buffer, "ANGLE 1", 10, 53);	// Show degrees
	}
	else{
		x_1 = 320 - 40;
 1001e40:	00804604 	movi	r2,280
 1001e44:	e0bff915 	stw	r2,-28(fp)
		x_2 = x_1 - line_length*cos(theta);
 1001e48:	e13ff917 	ldw	r4,-28(fp)
 1001e4c:	10057400 	call	1005740 <__floatsidf>
 1001e50:	1025883a 	mov	r18,r2
 1001e54:	1827883a 	mov	r19,r3
 1001e58:	e13ff517 	ldw	r4,-44(fp)
 1001e5c:	10057400 	call	1005740 <__floatsidf>
 1001e60:	1021883a 	mov	r16,r2
 1001e64:	1823883a 	mov	r17,r3
 1001e68:	e13ffa17 	ldw	r4,-24(fp)
 1001e6c:	e17ffb17 	ldw	r5,-20(fp)
 1001e70:	10023740 	call	1002374 <cos>
 1001e74:	100f883a 	mov	r7,r2
 1001e78:	1811883a 	mov	r8,r3
 1001e7c:	8009883a 	mov	r4,r16
 1001e80:	880b883a 	mov	r5,r17
 1001e84:	380d883a 	mov	r6,r7
 1001e88:	400f883a 	mov	r7,r8
 1001e8c:	1004e7c0 	call	1004e7c <__muldf3>
 1001e90:	1009883a 	mov	r4,r2
 1001e94:	180b883a 	mov	r5,r3
 1001e98:	2005883a 	mov	r2,r4
 1001e9c:	2807883a 	mov	r3,r5
 1001ea0:	9009883a 	mov	r4,r18
 1001ea4:	980b883a 	mov	r5,r19
 1001ea8:	100d883a 	mov	r6,r2
 1001eac:	180f883a 	mov	r7,r3
 1001eb0:	1004d880 	call	1004d88 <__subdf3>
 1001eb4:	1009883a 	mov	r4,r2
 1001eb8:	180b883a 	mov	r5,r3
 1001ebc:	2005883a 	mov	r2,r4
 1001ec0:	2807883a 	mov	r3,r5
 1001ec4:	1009883a 	mov	r4,r2
 1001ec8:	180b883a 	mov	r5,r3
 1001ecc:	10058380 	call	1005838 <__fixdfsi>
 1001ed0:	e0bff815 	stw	r2,-32(fp)
		//alt_up_char_buffer_string(char_buffer, "ANGLE 2", 60, 53);	// Show degrees
	}

	alt_up_pixel_buffer_dma_draw_line(pixel_buffer, x_1, y_1, x_2, y_2, 0xFFFFF, 0); //draw line
 1001ed4:	e0bff617 	ldw	r2,-40(fp)
 1001ed8:	d8800015 	stw	r2,0(sp)
 1001edc:	00800434 	movhi	r2,16
 1001ee0:	10bfffc4 	addi	r2,r2,-1
 1001ee4:	d8800115 	stw	r2,4(sp)
 1001ee8:	d8000215 	stw	zero,8(sp)
 1001eec:	e13fff17 	ldw	r4,-4(fp)
 1001ef0:	e17ff917 	ldw	r5,-28(fp)
 1001ef4:	e1bff717 	ldw	r6,-36(fp)
 1001ef8:	e1fff817 	ldw	r7,-32(fp)
 1001efc:	10117e00 	call	10117e0 <alt_up_pixel_buffer_dma_draw_line>
	//store endpoints of line for later
	last_line->x_1 = x_1;
 1001f00:	e0c00617 	ldw	r3,24(fp)
 1001f04:	e0bff917 	ldw	r2,-28(fp)
 1001f08:	18800015 	stw	r2,0(r3)
	last_line->x_2 = x_2;
 1001f0c:	e0c00617 	ldw	r3,24(fp)
 1001f10:	e0bff817 	ldw	r2,-32(fp)
 1001f14:	18800115 	stw	r2,4(r3)
	last_line->y_1 = y_1;
 1001f18:	e0c00617 	ldw	r3,24(fp)
 1001f1c:	e0bff717 	ldw	r2,-36(fp)
 1001f20:	18800215 	stw	r2,8(r3)
	last_line->y_2 = y_2;
 1001f24:	e0c00617 	ldw	r3,24(fp)
 1001f28:	e0bff617 	ldw	r2,-40(fp)
 1001f2c:	18800315 	stw	r2,12(r3)

	return;
}
 1001f30:	e037883a 	mov	sp,fp
 1001f34:	dfc00517 	ldw	ra,20(sp)
 1001f38:	df000417 	ldw	fp,16(sp)
 1001f3c:	dcc00317 	ldw	r19,12(sp)
 1001f40:	dc800217 	ldw	r18,8(sp)
 1001f44:	dc400117 	ldw	r17,4(sp)
 1001f48:	dc000017 	ldw	r16,0(sp)
 1001f4c:	dec00604 	addi	sp,sp,24
 1001f50:	f800283a 	ret

01001f54 <clear_last_line>:

void clear_last_line(Shape_coord *last_line, alt_up_pixel_buffer_dma_dev* pixel_buffer){
 1001f54:	defff904 	addi	sp,sp,-28
 1001f58:	dfc00615 	stw	ra,24(sp)
 1001f5c:	df000515 	stw	fp,20(sp)
 1001f60:	df000504 	addi	fp,sp,20
 1001f64:	e13ffe15 	stw	r4,-8(fp)
 1001f68:	e17fff15 	stw	r5,-4(fp)
	alt_up_pixel_buffer_dma_draw_line(pixel_buffer, last_line->x_1, last_line->y_1, last_line->x_2, last_line->y_2, background_colour, 0);
 1001f6c:	e0bffe17 	ldw	r2,-8(fp)
 1001f70:	11400017 	ldw	r5,0(r2)
 1001f74:	e0bffe17 	ldw	r2,-8(fp)
 1001f78:	11800217 	ldw	r6,8(r2)
 1001f7c:	e0bffe17 	ldw	r2,-8(fp)
 1001f80:	11c00117 	ldw	r7,4(r2)
 1001f84:	e0bffe17 	ldw	r2,-8(fp)
 1001f88:	10c00317 	ldw	r3,12(r2)
 1001f8c:	d0a6ce17 	ldw	r2,-25800(gp)
 1001f90:	d8c00015 	stw	r3,0(sp)
 1001f94:	d8800115 	stw	r2,4(sp)
 1001f98:	d8000215 	stw	zero,8(sp)
 1001f9c:	e13fff17 	ldw	r4,-4(fp)
 1001fa0:	10117e00 	call	10117e0 <alt_up_pixel_buffer_dma_draw_line>
}
 1001fa4:	e037883a 	mov	sp,fp
 1001fa8:	dfc00117 	ldw	ra,4(sp)
 1001fac:	df000017 	ldw	fp,0(sp)
 1001fb0:	dec00204 	addi	sp,sp,8
 1001fb4:	f800283a 	ret

01001fb8 <draw_power_bar>:

void draw_power_bar(int player){
 1001fb8:	defff804 	addi	sp,sp,-32
 1001fbc:	dfc00715 	stw	ra,28(sp)
 1001fc0:	df000615 	stw	fp,24(sp)
 1001fc4:	df000604 	addi	fp,sp,24
 1001fc8:	e13fff15 	stw	r4,-4(fp)
	int x_1, y_1, bar_width, bar_height;
	x_1 = 30; y_1 = 230; bar_width = 52; bar_height=5;
 1001fcc:	00800784 	movi	r2,30
 1001fd0:	e0bffe15 	stw	r2,-8(fp)
 1001fd4:	00803984 	movi	r2,230
 1001fd8:	e0bffd15 	stw	r2,-12(fp)
 1001fdc:	00800d04 	movi	r2,52
 1001fe0:	e0bffc15 	stw	r2,-16(fp)
 1001fe4:	00800144 	movi	r2,5
 1001fe8:	e0bffb15 	stw	r2,-20(fp)
	if(player == 1){
 1001fec:	e0bfff17 	ldw	r2,-4(fp)
 1001ff0:	10800058 	cmpnei	r2,r2,1
 1001ff4:	10001b1e 	bne	r2,zero,1002064 <draw_power_bar+0xac>
		draw_box(x_1, y_1, x_1+bar_width, y_1+bar_height, 0xFFFFF);
 1001ff8:	e0fffe17 	ldw	r3,-8(fp)
 1001ffc:	e0bffc17 	ldw	r2,-16(fp)
 1002000:	188d883a 	add	r6,r3,r2
 1002004:	e0fffd17 	ldw	r3,-12(fp)
 1002008:	e0bffb17 	ldw	r2,-20(fp)
 100200c:	188f883a 	add	r7,r3,r2
 1002010:	00800434 	movhi	r2,16
 1002014:	10bfffc4 	addi	r2,r2,-1
 1002018:	d8800015 	stw	r2,0(sp)
 100201c:	e13ffe17 	ldw	r4,-8(fp)
 1002020:	e17ffd17 	ldw	r5,-12(fp)
 1002024:	100224c0 	call	100224c <draw_box>
		draw_box(x_1+1, y_1+1, x_1+bar_width-1, y_1+bar_height-1, 0x00000);
 1002028:	e0bffe17 	ldw	r2,-8(fp)
 100202c:	11000044 	addi	r4,r2,1
 1002030:	e0bffd17 	ldw	r2,-12(fp)
 1002034:	11400044 	addi	r5,r2,1
 1002038:	e0fffe17 	ldw	r3,-8(fp)
 100203c:	e0bffc17 	ldw	r2,-16(fp)
 1002040:	1885883a 	add	r2,r3,r2
 1002044:	11bfffc4 	addi	r6,r2,-1
 1002048:	e0fffd17 	ldw	r3,-12(fp)
 100204c:	e0bffb17 	ldw	r2,-20(fp)
 1002050:	1885883a 	add	r2,r3,r2
 1002054:	11ffffc4 	addi	r7,r2,-1
 1002058:	d8000015 	stw	zero,0(sp)
 100205c:	100224c0 	call	100224c <draw_box>
 1002060:	00002006 	br	10020e4 <draw_power_bar+0x12c>
	}
	else{//player2 power bar
		draw_box(320-x_1, y_1, 320-(x_1+bar_width), y_1+bar_height, 0xFFFFF);
 1002064:	00c05004 	movi	r3,320
 1002068:	e0bffe17 	ldw	r2,-8(fp)
 100206c:	1889c83a 	sub	r4,r3,r2
 1002070:	e0fffe17 	ldw	r3,-8(fp)
 1002074:	e0bffc17 	ldw	r2,-16(fp)
 1002078:	1887883a 	add	r3,r3,r2
 100207c:	00805004 	movi	r2,320
 1002080:	10cdc83a 	sub	r6,r2,r3
 1002084:	e0fffd17 	ldw	r3,-12(fp)
 1002088:	e0bffb17 	ldw	r2,-20(fp)
 100208c:	188f883a 	add	r7,r3,r2
 1002090:	00800434 	movhi	r2,16
 1002094:	10bfffc4 	addi	r2,r2,-1
 1002098:	d8800015 	stw	r2,0(sp)
 100209c:	e17ffd17 	ldw	r5,-12(fp)
 10020a0:	100224c0 	call	100224c <draw_box>
		draw_box(320-(x_1+1), y_1+1, 320-(x_1+bar_width-1), y_1+bar_height-1, 0x00000);
 10020a4:	00c04fc4 	movi	r3,319
 10020a8:	e0bffe17 	ldw	r2,-8(fp)
 10020ac:	1889c83a 	sub	r4,r3,r2
 10020b0:	e0bffd17 	ldw	r2,-12(fp)
 10020b4:	11400044 	addi	r5,r2,1
 10020b8:	e0fffe17 	ldw	r3,-8(fp)
 10020bc:	e0bffc17 	ldw	r2,-16(fp)
 10020c0:	1887883a 	add	r3,r3,r2
 10020c4:	00805044 	movi	r2,321
 10020c8:	10cdc83a 	sub	r6,r2,r3
 10020cc:	e0fffd17 	ldw	r3,-12(fp)
 10020d0:	e0bffb17 	ldw	r2,-20(fp)
 10020d4:	1885883a 	add	r2,r3,r2
 10020d8:	11ffffc4 	addi	r7,r2,-1
 10020dc:	d8000015 	stw	zero,0(sp)
 10020e0:	100224c0 	call	100224c <draw_box>
	}

}
 10020e4:	e037883a 	mov	sp,fp
 10020e8:	dfc00117 	ldw	ra,4(sp)
 10020ec:	df000017 	ldw	fp,0(sp)
 10020f0:	dec00204 	addi	sp,sp,8
 10020f4:	f800283a 	ret

010020f8 <update_power>:

//assumes velocity range is from 0-100
void update_power(int player, double velocity){
 10020f8:	defffa04 	addi	sp,sp,-24
 10020fc:	dfc00515 	stw	ra,20(sp)
 1002100:	df000415 	stw	fp,16(sp)
 1002104:	df000404 	addi	fp,sp,16
 1002108:	e13ffd15 	stw	r4,-12(fp)
 100210c:	e17ffe15 	stw	r5,-8(fp)
 1002110:	e1bfff15 	stw	r6,-4(fp)
	draw_power_bar(player); //clear previous level
 1002114:	e13ffd17 	ldw	r4,-12(fp)
 1002118:	1001fb80 	call	1001fb8 <draw_power_bar>
	if(player==1){
 100211c:	e0bffd17 	ldw	r2,-12(fp)
 1002120:	10800058 	cmpnei	r2,r2,1
 1002124:	10001e1e 	bne	r2,zero,10021a0 <update_power+0xa8>
		draw_box(31, 231, 31+(velocity/2), 234, 0xFF000);
 1002128:	e13ffe17 	ldw	r4,-8(fp)
 100212c:	e17fff17 	ldw	r5,-4(fp)
 1002130:	000d883a 	mov	r6,zero
 1002134:	01d00034 	movhi	r7,16384
 1002138:	10052400 	call	1005240 <__divdf3>
 100213c:	1009883a 	mov	r4,r2
 1002140:	180b883a 	mov	r5,r3
 1002144:	2005883a 	mov	r2,r4
 1002148:	2807883a 	mov	r3,r5
 100214c:	1009883a 	mov	r4,r2
 1002150:	180b883a 	mov	r5,r3
 1002154:	000d883a 	mov	r6,zero
 1002158:	01d00ff4 	movhi	r7,16447
 100215c:	1004e080 	call	1004e08 <__adddf3>
 1002160:	1009883a 	mov	r4,r2
 1002164:	180b883a 	mov	r5,r3
 1002168:	2005883a 	mov	r2,r4
 100216c:	2807883a 	mov	r3,r5
 1002170:	1009883a 	mov	r4,r2
 1002174:	180b883a 	mov	r5,r3
 1002178:	10058380 	call	1005838 <__fixdfsi>
 100217c:	100d883a 	mov	r6,r2
 1002180:	00800434 	movhi	r2,16
 1002184:	10bc0004 	addi	r2,r2,-4096
 1002188:	d8800015 	stw	r2,0(sp)
 100218c:	010007c4 	movi	r4,31
 1002190:	014039c4 	movi	r5,231
 1002194:	01c03a84 	movi	r7,234
 1002198:	100224c0 	call	100224c <draw_box>
 100219c:	00002606 	br	1002238 <update_power+0x140>
	}
	else{
		draw_box(320-31, 231, 320-(31+(velocity/2)), 234, 0xFF000);
 10021a0:	e13ffe17 	ldw	r4,-8(fp)
 10021a4:	e17fff17 	ldw	r5,-4(fp)
 10021a8:	000d883a 	mov	r6,zero
 10021ac:	01d00034 	movhi	r7,16384
 10021b0:	10052400 	call	1005240 <__divdf3>
 10021b4:	1009883a 	mov	r4,r2
 10021b8:	180b883a 	mov	r5,r3
 10021bc:	2005883a 	mov	r2,r4
 10021c0:	2807883a 	mov	r3,r5
 10021c4:	1009883a 	mov	r4,r2
 10021c8:	180b883a 	mov	r5,r3
 10021cc:	000d883a 	mov	r6,zero
 10021d0:	01d00ff4 	movhi	r7,16447
 10021d4:	1004e080 	call	1004e08 <__adddf3>
 10021d8:	1009883a 	mov	r4,r2
 10021dc:	180b883a 	mov	r5,r3
 10021e0:	2005883a 	mov	r2,r4
 10021e4:	2807883a 	mov	r3,r5
 10021e8:	0009883a 	mov	r4,zero
 10021ec:	01501d34 	movhi	r5,16500
 10021f0:	100d883a 	mov	r6,r2
 10021f4:	180f883a 	mov	r7,r3
 10021f8:	1004d880 	call	1004d88 <__subdf3>
 10021fc:	1009883a 	mov	r4,r2
 1002200:	180b883a 	mov	r5,r3
 1002204:	2005883a 	mov	r2,r4
 1002208:	2807883a 	mov	r3,r5
 100220c:	1009883a 	mov	r4,r2
 1002210:	180b883a 	mov	r5,r3
 1002214:	10058380 	call	1005838 <__fixdfsi>
 1002218:	100d883a 	mov	r6,r2
 100221c:	00800434 	movhi	r2,16
 1002220:	10bc0004 	addi	r2,r2,-4096
 1002224:	d8800015 	stw	r2,0(sp)
 1002228:	01004844 	movi	r4,289
 100222c:	014039c4 	movi	r5,231
 1002230:	01c03a84 	movi	r7,234
 1002234:	100224c0 	call	100224c <draw_box>
	}
	return;
}
 1002238:	e037883a 	mov	sp,fp
 100223c:	dfc00117 	ldw	ra,4(sp)
 1002240:	df000017 	ldw	fp,0(sp)
 1002244:	dec00204 	addi	sp,sp,8
 1002248:	f800283a 	ret

0100224c <draw_box>:

void draw_box(int x_1, int y_1, int x_2, int y_2, unsigned int colour){
 100224c:	defffb04 	addi	sp,sp,-20
 1002250:	df000415 	stw	fp,16(sp)
 1002254:	df000404 	addi	fp,sp,16
 1002258:	e13ffc15 	stw	r4,-16(fp)
 100225c:	e17ffd15 	stw	r5,-12(fp)
 1002260:	e1bffe15 	stw	r6,-8(fp)
 1002264:	e1ffff15 	stw	r7,-4(fp)
	IOWR_32DIRECT(drawer_base,0,x_1);
 1002268:	00d80004 	movi	r3,24576
 100226c:	e0bffc17 	ldw	r2,-16(fp)
 1002270:	18800035 	stwio	r2,0(r3)
	IOWR_32DIRECT(drawer_base,4,y_1);
 1002274:	00d80104 	movi	r3,24580
 1002278:	e0bffd17 	ldw	r2,-12(fp)
 100227c:	18800035 	stwio	r2,0(r3)
	IOWR_32DIRECT(drawer_base,8,x_2);
 1002280:	00d80204 	movi	r3,24584
 1002284:	e0bffe17 	ldw	r2,-8(fp)
 1002288:	18800035 	stwio	r2,0(r3)
	IOWR_32DIRECT(drawer_base,12,y_2);
 100228c:	00d80304 	movi	r3,24588
 1002290:	e0bfff17 	ldw	r2,-4(fp)
 1002294:	18800035 	stwio	r2,0(r3)
	IOWR_32DIRECT(drawer_base,16,colour);
 1002298:	e0c00117 	ldw	r3,4(fp)
 100229c:	00980404 	movi	r2,24592
 10022a0:	10c00035 	stwio	r3,0(r2)
	IOWR_32DIRECT(drawer_base,20,1);
 10022a4:	00d80504 	movi	r3,24596
 10022a8:	00800044 	movi	r2,1
 10022ac:	18800035 	stwio	r2,0(r3)
	while(IORD_32DIRECT(drawer_base,20)==0);
 10022b0:	00980504 	movi	r2,24596
 10022b4:	10800037 	ldwio	r2,0(r2)
 10022b8:	1005003a 	cmpeq	r2,r2,zero
 10022bc:	103ffc1e 	bne	r2,zero,10022b0 <draw_box+0x64>
}
 10022c0:	e037883a 	mov	sp,fp
 10022c4:	df000017 	ldw	fp,0(sp)
 10022c8:	dec00104 	addi	sp,sp,4
 10022cc:	f800283a 	ret

010022d0 <draw_ball>:

void draw_ball(int x, int y, unsigned int colour){
 10022d0:	defffa04 	addi	sp,sp,-24
 10022d4:	dfc00515 	stw	ra,20(sp)
 10022d8:	df000415 	stw	fp,16(sp)
 10022dc:	df000404 	addi	fp,sp,16
 10022e0:	e13ffd15 	stw	r4,-12(fp)
 10022e4:	e17ffe15 	stw	r5,-8(fp)
 10022e8:	e1bfff15 	stw	r6,-4(fp)
	draw_box(x-2, y, x+2, y, colour);
 10022ec:	e0bffd17 	ldw	r2,-12(fp)
 10022f0:	113fff84 	addi	r4,r2,-2
 10022f4:	e0bffd17 	ldw	r2,-12(fp)
 10022f8:	11800084 	addi	r6,r2,2
 10022fc:	e0bfff17 	ldw	r2,-4(fp)
 1002300:	d8800015 	stw	r2,0(sp)
 1002304:	e17ffe17 	ldw	r5,-8(fp)
 1002308:	e1fffe17 	ldw	r7,-8(fp)
 100230c:	100224c0 	call	100224c <draw_box>
	draw_box(x, y-2, x, y+2, colour);
 1002310:	e0bffe17 	ldw	r2,-8(fp)
 1002314:	117fff84 	addi	r5,r2,-2
 1002318:	e0bffe17 	ldw	r2,-8(fp)
 100231c:	11c00084 	addi	r7,r2,2
 1002320:	e0bfff17 	ldw	r2,-4(fp)
 1002324:	d8800015 	stw	r2,0(sp)
 1002328:	e13ffd17 	ldw	r4,-12(fp)
 100232c:	e1bffd17 	ldw	r6,-12(fp)
 1002330:	100224c0 	call	100224c <draw_box>
	draw_box(x-1, y-1, x+1, y+1, colour);
 1002334:	e0bffd17 	ldw	r2,-12(fp)
 1002338:	113fffc4 	addi	r4,r2,-1
 100233c:	e0bffe17 	ldw	r2,-8(fp)
 1002340:	117fffc4 	addi	r5,r2,-1
 1002344:	e0bffd17 	ldw	r2,-12(fp)
 1002348:	11800044 	addi	r6,r2,1
 100234c:	e0bffe17 	ldw	r2,-8(fp)
 1002350:	11c00044 	addi	r7,r2,1
 1002354:	e0bfff17 	ldw	r2,-4(fp)
 1002358:	d8800015 	stw	r2,0(sp)
 100235c:	100224c0 	call	100224c <draw_box>
}
 1002360:	e037883a 	mov	sp,fp
 1002364:	dfc00117 	ldw	ra,4(sp)
 1002368:	df000017 	ldw	fp,0(sp)
 100236c:	dec00204 	addi	sp,sp,8
 1002370:	f800283a 	ret

01002374 <cos>:
 1002374:	00a00034 	movhi	r2,32768
 1002378:	10bfffc4 	addi	r2,r2,-1
 100237c:	defffa04 	addi	sp,sp,-24
 1002380:	114c703a 	and	r6,r2,r5
 1002384:	008ffa74 	movhi	r2,16361
 1002388:	10887ec4 	addi	r2,r2,8699
 100238c:	dfc00515 	stw	ra,20(sp)
 1002390:	2011883a 	mov	r8,r4
 1002394:	1180210e 	bge	r2,r6,100241c <cos+0xa8>
 1002398:	009ffc34 	movhi	r2,32752
 100239c:	10bfffc4 	addi	r2,r2,-1
 10023a0:	11800a0e 	bge	r2,r6,10023cc <cos+0x58>
 10023a4:	280f883a 	mov	r7,r5
 10023a8:	400d883a 	mov	r6,r8
 10023ac:	1004d880 	call	1004d88 <__subdf3>
 10023b0:	100d883a 	mov	r6,r2
 10023b4:	180f883a 	mov	r7,r3
 10023b8:	3005883a 	mov	r2,r6
 10023bc:	3807883a 	mov	r3,r7
 10023c0:	dfc00517 	ldw	ra,20(sp)
 10023c4:	dec00604 	addi	sp,sp,24
 10023c8:	f800283a 	ret
 10023cc:	d9800104 	addi	r6,sp,4
 10023d0:	10026480 	call	1002648 <__ieee754_rem_pio2>
 10023d4:	10c000cc 	andi	r3,r2,3
 10023d8:	01000044 	movi	r4,1
 10023dc:	19001926 	beq	r3,r4,1002444 <cos+0xd0>
 10023e0:	00800084 	movi	r2,2
 10023e4:	18803126 	beq	r3,r2,10024ac <cos+0x138>
 10023e8:	1800231e 	bne	r3,zero,1002478 <cos+0x104>
 10023ec:	d8800117 	ldw	r2,4(sp)
 10023f0:	da000317 	ldw	r8,12(sp)
 10023f4:	d8c00217 	ldw	r3,8(sp)
 10023f8:	da400417 	ldw	r9,16(sp)
 10023fc:	400d883a 	mov	r6,r8
 1002400:	180b883a 	mov	r5,r3
 1002404:	480f883a 	mov	r7,r9
 1002408:	1009883a 	mov	r4,r2
 100240c:	1002e700 	call	1002e70 <__kernel_cos>
 1002410:	100d883a 	mov	r6,r2
 1002414:	180f883a 	mov	r7,r3
 1002418:	003fe706 	br	10023b8 <cos+0x44>
 100241c:	000d883a 	mov	r6,zero
 1002420:	000f883a 	mov	r7,zero
 1002424:	1002e700 	call	1002e70 <__kernel_cos>
 1002428:	100d883a 	mov	r6,r2
 100242c:	180f883a 	mov	r7,r3
 1002430:	3005883a 	mov	r2,r6
 1002434:	3807883a 	mov	r3,r7
 1002438:	dfc00517 	ldw	ra,20(sp)
 100243c:	dec00604 	addi	sp,sp,24
 1002440:	f800283a 	ret
 1002444:	d8800117 	ldw	r2,4(sp)
 1002448:	da000317 	ldw	r8,12(sp)
 100244c:	d8c00217 	ldw	r3,8(sp)
 1002450:	da400417 	ldw	r9,16(sp)
 1002454:	d9000015 	stw	r4,0(sp)
 1002458:	400d883a 	mov	r6,r8
 100245c:	480f883a 	mov	r7,r9
 1002460:	180b883a 	mov	r5,r3
 1002464:	1009883a 	mov	r4,r2
 1002468:	10042200 	call	1004220 <__kernel_sin>
 100246c:	100d883a 	mov	r6,r2
 1002470:	19e0003c 	xorhi	r7,r3,32768
 1002474:	003fd006 	br	10023b8 <cos+0x44>
 1002478:	d8800117 	ldw	r2,4(sp)
 100247c:	da000317 	ldw	r8,12(sp)
 1002480:	d8c00217 	ldw	r3,8(sp)
 1002484:	da400417 	ldw	r9,16(sp)
 1002488:	d9000015 	stw	r4,0(sp)
 100248c:	400d883a 	mov	r6,r8
 1002490:	480f883a 	mov	r7,r9
 1002494:	180b883a 	mov	r5,r3
 1002498:	1009883a 	mov	r4,r2
 100249c:	10042200 	call	1004220 <__kernel_sin>
 10024a0:	100d883a 	mov	r6,r2
 10024a4:	180f883a 	mov	r7,r3
 10024a8:	003fc306 	br	10023b8 <cos+0x44>
 10024ac:	d8800117 	ldw	r2,4(sp)
 10024b0:	da000317 	ldw	r8,12(sp)
 10024b4:	d8c00217 	ldw	r3,8(sp)
 10024b8:	da400417 	ldw	r9,16(sp)
 10024bc:	400d883a 	mov	r6,r8
 10024c0:	180b883a 	mov	r5,r3
 10024c4:	480f883a 	mov	r7,r9
 10024c8:	1009883a 	mov	r4,r2
 10024cc:	1002e700 	call	1002e70 <__kernel_cos>
 10024d0:	100d883a 	mov	r6,r2
 10024d4:	19e0003c 	xorhi	r7,r3,32768
 10024d8:	003fb706 	br	10023b8 <cos+0x44>

010024dc <sin>:
 10024dc:	00a00034 	movhi	r2,32768
 10024e0:	10bfffc4 	addi	r2,r2,-1
 10024e4:	defffa04 	addi	sp,sp,-24
 10024e8:	114c703a 	and	r6,r2,r5
 10024ec:	008ffa74 	movhi	r2,16361
 10024f0:	10887ec4 	addi	r2,r2,8699
 10024f4:	dfc00515 	stw	ra,20(sp)
 10024f8:	2011883a 	mov	r8,r4
 10024fc:	1180220e 	bge	r2,r6,1002588 <sin+0xac>
 1002500:	009ffc34 	movhi	r2,32752
 1002504:	10bfffc4 	addi	r2,r2,-1
 1002508:	11800a0e 	bge	r2,r6,1002534 <sin+0x58>
 100250c:	280f883a 	mov	r7,r5
 1002510:	400d883a 	mov	r6,r8
 1002514:	1004d880 	call	1004d88 <__subdf3>
 1002518:	100d883a 	mov	r6,r2
 100251c:	180f883a 	mov	r7,r3
 1002520:	3005883a 	mov	r2,r6
 1002524:	3807883a 	mov	r3,r7
 1002528:	dfc00517 	ldw	ra,20(sp)
 100252c:	dec00604 	addi	sp,sp,24
 1002530:	f800283a 	ret
 1002534:	d9800104 	addi	r6,sp,4
 1002538:	10026480 	call	1002648 <__ieee754_rem_pio2>
 100253c:	10c000cc 	andi	r3,r2,3
 1002540:	01000044 	movi	r4,1
 1002544:	19001b26 	beq	r3,r4,10025b4 <sin+0xd8>
 1002548:	00800084 	movi	r2,2
 100254c:	18803126 	beq	r3,r2,1002614 <sin+0x138>
 1002550:	1800241e 	bne	r3,zero,10025e4 <sin+0x108>
 1002554:	d8800117 	ldw	r2,4(sp)
 1002558:	da000317 	ldw	r8,12(sp)
 100255c:	d8c00217 	ldw	r3,8(sp)
 1002560:	da400417 	ldw	r9,16(sp)
 1002564:	d9000015 	stw	r4,0(sp)
 1002568:	400d883a 	mov	r6,r8
 100256c:	480f883a 	mov	r7,r9
 1002570:	180b883a 	mov	r5,r3
 1002574:	1009883a 	mov	r4,r2
 1002578:	10042200 	call	1004220 <__kernel_sin>
 100257c:	100d883a 	mov	r6,r2
 1002580:	180f883a 	mov	r7,r3
 1002584:	003fe606 	br	1002520 <sin+0x44>
 1002588:	000d883a 	mov	r6,zero
 100258c:	000f883a 	mov	r7,zero
 1002590:	d8000015 	stw	zero,0(sp)
 1002594:	10042200 	call	1004220 <__kernel_sin>
 1002598:	100d883a 	mov	r6,r2
 100259c:	180f883a 	mov	r7,r3
 10025a0:	3005883a 	mov	r2,r6
 10025a4:	3807883a 	mov	r3,r7
 10025a8:	dfc00517 	ldw	ra,20(sp)
 10025ac:	dec00604 	addi	sp,sp,24
 10025b0:	f800283a 	ret
 10025b4:	d8800117 	ldw	r2,4(sp)
 10025b8:	da000317 	ldw	r8,12(sp)
 10025bc:	d8c00217 	ldw	r3,8(sp)
 10025c0:	da400417 	ldw	r9,16(sp)
 10025c4:	400d883a 	mov	r6,r8
 10025c8:	180b883a 	mov	r5,r3
 10025cc:	480f883a 	mov	r7,r9
 10025d0:	1009883a 	mov	r4,r2
 10025d4:	1002e700 	call	1002e70 <__kernel_cos>
 10025d8:	100d883a 	mov	r6,r2
 10025dc:	180f883a 	mov	r7,r3
 10025e0:	003fcf06 	br	1002520 <sin+0x44>
 10025e4:	d8800117 	ldw	r2,4(sp)
 10025e8:	da000317 	ldw	r8,12(sp)
 10025ec:	d8c00217 	ldw	r3,8(sp)
 10025f0:	da400417 	ldw	r9,16(sp)
 10025f4:	400d883a 	mov	r6,r8
 10025f8:	180b883a 	mov	r5,r3
 10025fc:	480f883a 	mov	r7,r9
 1002600:	1009883a 	mov	r4,r2
 1002604:	1002e700 	call	1002e70 <__kernel_cos>
 1002608:	100d883a 	mov	r6,r2
 100260c:	19e0003c 	xorhi	r7,r3,32768
 1002610:	003fc306 	br	1002520 <sin+0x44>
 1002614:	d8800117 	ldw	r2,4(sp)
 1002618:	da000317 	ldw	r8,12(sp)
 100261c:	d8c00217 	ldw	r3,8(sp)
 1002620:	da400417 	ldw	r9,16(sp)
 1002624:	d9000015 	stw	r4,0(sp)
 1002628:	400d883a 	mov	r6,r8
 100262c:	480f883a 	mov	r7,r9
 1002630:	180b883a 	mov	r5,r3
 1002634:	1009883a 	mov	r4,r2
 1002638:	10042200 	call	1004220 <__kernel_sin>
 100263c:	100d883a 	mov	r6,r2
 1002640:	19e0003c 	xorhi	r7,r3,32768
 1002644:	003fb606 	br	1002520 <sin+0x44>

01002648 <__ieee754_rem_pio2>:
 1002648:	deffe304 	addi	sp,sp,-116
 100264c:	00a00034 	movhi	r2,32768
 1002650:	10bfffc4 	addi	r2,r2,-1
 1002654:	dd801915 	stw	r22,100(sp)
 1002658:	28ac703a 	and	r22,r5,r2
 100265c:	008ffa74 	movhi	r2,16361
 1002660:	10887ec4 	addi	r2,r2,8699
 1002664:	df001b15 	stw	fp,108(sp)
 1002668:	dfc01c15 	stw	ra,112(sp)
 100266c:	ddc01a15 	stw	r23,104(sp)
 1002670:	dd401815 	stw	r21,96(sp)
 1002674:	dd001715 	stw	r20,92(sp)
 1002678:	dcc01615 	stw	r19,88(sp)
 100267c:	dc801515 	stw	r18,84(sp)
 1002680:	dc401415 	stw	r17,80(sp)
 1002684:	dc001315 	stw	r16,76(sp)
 1002688:	2013883a 	mov	r9,r4
 100268c:	d9400a15 	stw	r5,40(sp)
 1002690:	3039883a 	mov	fp,r6
 1002694:	15801216 	blt	r2,r22,10026e0 <__ieee754_rem_pio2+0x98>
 1002698:	e1400115 	stw	r5,4(fp)
 100269c:	30000315 	stw	zero,12(r6)
 10026a0:	e1000015 	stw	r4,0(fp)
 10026a4:	d8000b15 	stw	zero,44(sp)
 10026a8:	30000215 	stw	zero,8(r6)
 10026ac:	d8800b17 	ldw	r2,44(sp)
 10026b0:	dfc01c17 	ldw	ra,112(sp)
 10026b4:	df001b17 	ldw	fp,108(sp)
 10026b8:	ddc01a17 	ldw	r23,104(sp)
 10026bc:	dd801917 	ldw	r22,100(sp)
 10026c0:	dd401817 	ldw	r21,96(sp)
 10026c4:	dd001717 	ldw	r20,92(sp)
 10026c8:	dcc01617 	ldw	r19,88(sp)
 10026cc:	dc801517 	ldw	r18,84(sp)
 10026d0:	dc401417 	ldw	r17,80(sp)
 10026d4:	dc001317 	ldw	r16,76(sp)
 10026d8:	dec01d04 	addi	sp,sp,116
 10026dc:	f800283a 	ret
 10026e0:	009000f4 	movhi	r2,16387
 10026e4:	10b65ec4 	addi	r2,r2,-9861
 10026e8:	15800f0e 	bge	r2,r22,1002728 <__ieee754_rem_pio2+0xe0>
 10026ec:	00904e74 	movhi	r2,16697
 10026f0:	10887ec4 	addi	r2,r2,8699
 10026f4:	1580330e 	bge	r2,r22,10027c4 <__ieee754_rem_pio2+0x17c>
 10026f8:	009ffc34 	movhi	r2,32752
 10026fc:	10bfffc4 	addi	r2,r2,-1
 1002700:	1580fe0e 	bge	r2,r22,1002afc <__ieee754_rem_pio2+0x4b4>
 1002704:	280f883a 	mov	r7,r5
 1002708:	480d883a 	mov	r6,r9
 100270c:	1004d880 	call	1004d88 <__subdf3>
 1002710:	e0c00115 	stw	r3,4(fp)
 1002714:	d8000b15 	stw	zero,44(sp)
 1002718:	e0800015 	stw	r2,0(fp)
 100271c:	e0800215 	stw	r2,8(fp)
 1002720:	e0c00315 	stw	r3,12(fp)
 1002724:	003fe106 	br	10026ac <__ieee754_rem_pio2+0x64>
 1002728:	d9000a17 	ldw	r4,40(sp)
 100272c:	0100ce0e 	bge	zero,r4,1002a68 <__ieee754_rem_pio2+0x420>
 1002730:	04151034 	movhi	r16,21568
 1002734:	044ffe74 	movhi	r17,16377
 1002738:	8c487ec4 	addi	r17,r17,8699
 100273c:	4809883a 	mov	r4,r9
 1002740:	800d883a 	mov	r6,r16
 1002744:	880f883a 	mov	r7,r17
 1002748:	1004d880 	call	1004d88 <__subdf3>
 100274c:	1025883a 	mov	r18,r2
 1002750:	1827883a 	mov	r19,r3
 1002754:	b4413c26 	beq	r22,r17,1002c48 <__ieee754_rem_pio2+0x600>
 1002758:	040698b4 	movhi	r16,6754
 100275c:	8418cc44 	addi	r16,r16,25393
 1002760:	044f7474 	movhi	r17,15825
 1002764:	8c6d1844 	addi	r17,r17,-19359
 1002768:	1009883a 	mov	r4,r2
 100276c:	180b883a 	mov	r5,r3
 1002770:	800d883a 	mov	r6,r16
 1002774:	880f883a 	mov	r7,r17
 1002778:	1004d880 	call	1004d88 <__subdf3>
 100277c:	100d883a 	mov	r6,r2
 1002780:	9009883a 	mov	r4,r18
 1002784:	980b883a 	mov	r5,r19
 1002788:	180f883a 	mov	r7,r3
 100278c:	e0800015 	stw	r2,0(fp)
 1002790:	e0c00115 	stw	r3,4(fp)
 1002794:	1004d880 	call	1004d88 <__subdf3>
 1002798:	1009883a 	mov	r4,r2
 100279c:	800d883a 	mov	r6,r16
 10027a0:	880f883a 	mov	r7,r17
 10027a4:	180b883a 	mov	r5,r3
 10027a8:	1004d880 	call	1004d88 <__subdf3>
 10027ac:	1009883a 	mov	r4,r2
 10027b0:	00800044 	movi	r2,1
 10027b4:	d8800b15 	stw	r2,44(sp)
 10027b8:	e0c00315 	stw	r3,12(fp)
 10027bc:	e1000215 	stw	r4,8(fp)
 10027c0:	003fba06 	br	10026ac <__ieee754_rem_pio2+0x64>
 10027c4:	10045380 	call	1004538 <fabs>
 10027c8:	021b72b4 	movhi	r8,28106
 10027cc:	423220c4 	addi	r8,r8,-14205
 10027d0:	024ff934 	movhi	r9,16356
 10027d4:	4a57cc04 	addi	r9,r9,24368
 10027d8:	480f883a 	mov	r7,r9
 10027dc:	400d883a 	mov	r6,r8
 10027e0:	1009883a 	mov	r4,r2
 10027e4:	180b883a 	mov	r5,r3
 10027e8:	1025883a 	mov	r18,r2
 10027ec:	1827883a 	mov	r19,r3
 10027f0:	1004e7c0 	call	1004e7c <__muldf3>
 10027f4:	0011883a 	mov	r8,zero
 10027f8:	024ff834 	movhi	r9,16352
 10027fc:	480f883a 	mov	r7,r9
 1002800:	400d883a 	mov	r6,r8
 1002804:	180b883a 	mov	r5,r3
 1002808:	1009883a 	mov	r4,r2
 100280c:	1004e080 	call	1004e08 <__adddf3>
 1002810:	180b883a 	mov	r5,r3
 1002814:	1009883a 	mov	r4,r2
 1002818:	10058380 	call	1005838 <__fixdfsi>
 100281c:	1009883a 	mov	r4,r2
 1002820:	d8800b15 	stw	r2,44(sp)
 1002824:	10057400 	call	1005740 <__floatsidf>
 1002828:	1823883a 	mov	r17,r3
 100282c:	1009883a 	mov	r4,r2
 1002830:	d8800c15 	stw	r2,48(sp)
 1002834:	00effe74 	movhi	r3,49145
 1002838:	18c87ec4 	addi	r3,r3,8699
 100283c:	00951034 	movhi	r2,21568
 1002840:	880b883a 	mov	r5,r17
 1002844:	180f883a 	mov	r7,r3
 1002848:	100d883a 	mov	r6,r2
 100284c:	dc400d15 	stw	r17,52(sp)
 1002850:	1004e7c0 	call	1004e7c <__muldf3>
 1002854:	180f883a 	mov	r7,r3
 1002858:	980b883a 	mov	r5,r19
 100285c:	9009883a 	mov	r4,r18
 1002860:	100d883a 	mov	r6,r2
 1002864:	1004e080 	call	1004e08 <__adddf3>
 1002868:	d9000c17 	ldw	r4,48(sp)
 100286c:	020698b4 	movhi	r8,6754
 1002870:	4218cc44 	addi	r8,r8,25393
 1002874:	024f7474 	movhi	r9,15825
 1002878:	4a6d1844 	addi	r9,r9,-19359
 100287c:	880b883a 	mov	r5,r17
 1002880:	480f883a 	mov	r7,r9
 1002884:	400d883a 	mov	r6,r8
 1002888:	1025883a 	mov	r18,r2
 100288c:	1827883a 	mov	r19,r3
 1002890:	1004e7c0 	call	1004e7c <__muldf3>
 1002894:	d9000b17 	ldw	r4,44(sp)
 1002898:	100f883a 	mov	r7,r2
 100289c:	1811883a 	mov	r8,r3
 10028a0:	008007c4 	movi	r2,31
 10028a4:	dc800e15 	stw	r18,56(sp)
 10028a8:	3821883a 	mov	r16,r7
 10028ac:	dcc00f15 	stw	r19,60(sp)
 10028b0:	4023883a 	mov	r17,r8
 10028b4:	11010a0e 	bge	r2,r4,1002ce0 <__ieee754_rem_pio2+0x698>
 10028b8:	d9000e17 	ldw	r4,56(sp)
 10028bc:	d9400f17 	ldw	r5,60(sp)
 10028c0:	800d883a 	mov	r6,r16
 10028c4:	880f883a 	mov	r7,r17
 10028c8:	1004d880 	call	1004d88 <__subdf3>
 10028cc:	1810d53a 	srli	r8,r3,20
 10028d0:	b02dd53a 	srai	r22,r22,20
 10028d4:	1009883a 	mov	r4,r2
 10028d8:	4201ffcc 	andi	r8,r8,2047
 10028dc:	180b883a 	mov	r5,r3
 10028e0:	b211c83a 	sub	r8,r22,r8
 10028e4:	00800404 	movi	r2,16
 10028e8:	dd801015 	stw	r22,64(sp)
 10028ec:	e1000015 	stw	r4,0(fp)
 10028f0:	e1400115 	stw	r5,4(fp)
 10028f4:	1200430e 	bge	r2,r8,1002a04 <__ieee754_rem_pio2+0x3bc>
 10028f8:	d9000c17 	ldw	r4,48(sp)
 10028fc:	d9400d17 	ldw	r5,52(sp)
 1002900:	00869834 	movhi	r2,6752
 1002904:	00cf7474 	movhi	r3,15825
 1002908:	18ed1844 	addi	r3,r3,-19359
 100290c:	180f883a 	mov	r7,r3
 1002910:	100d883a 	mov	r6,r2
 1002914:	1004e7c0 	call	1004e7c <__muldf3>
 1002918:	d9000e17 	ldw	r4,56(sp)
 100291c:	d9400f17 	ldw	r5,60(sp)
 1002920:	100d883a 	mov	r6,r2
 1002924:	180f883a 	mov	r7,r3
 1002928:	1025883a 	mov	r18,r2
 100292c:	1827883a 	mov	r19,r3
 1002930:	1004d880 	call	1004d88 <__subdf3>
 1002934:	d9000c17 	ldw	r4,48(sp)
 1002938:	d9400d17 	ldw	r5,52(sp)
 100293c:	058b80f4 	movhi	r22,11779
 1002940:	b59c1cc4 	addi	r22,r22,28787
 1002944:	05cee8f4 	movhi	r23,15267
 1002948:	bdc66284 	addi	r23,r23,6538
 100294c:	b00d883a 	mov	r6,r22
 1002950:	b80f883a 	mov	r7,r23
 1002954:	d8801115 	stw	r2,68(sp)
 1002958:	d8c01215 	stw	r3,72(sp)
 100295c:	d8800815 	stw	r2,32(sp)
 1002960:	1004e7c0 	call	1004e7c <__muldf3>
 1002964:	d9001217 	ldw	r4,72(sp)
 1002968:	d9400f17 	ldw	r5,60(sp)
 100296c:	d9800817 	ldw	r6,32(sp)
 1002970:	d9000915 	stw	r4,36(sp)
 1002974:	d9c01217 	ldw	r7,72(sp)
 1002978:	d9000e17 	ldw	r4,56(sp)
 100297c:	1021883a 	mov	r16,r2
 1002980:	1823883a 	mov	r17,r3
 1002984:	1004d880 	call	1004d88 <__subdf3>
 1002988:	180b883a 	mov	r5,r3
 100298c:	900d883a 	mov	r6,r18
 1002990:	980f883a 	mov	r7,r19
 1002994:	1009883a 	mov	r4,r2
 1002998:	1004d880 	call	1004d88 <__subdf3>
 100299c:	180f883a 	mov	r7,r3
 10029a0:	880b883a 	mov	r5,r17
 10029a4:	8009883a 	mov	r4,r16
 10029a8:	100d883a 	mov	r6,r2
 10029ac:	1004d880 	call	1004d88 <__subdf3>
 10029b0:	d9000817 	ldw	r4,32(sp)
 10029b4:	d9401217 	ldw	r5,72(sp)
 10029b8:	180f883a 	mov	r7,r3
 10029bc:	100d883a 	mov	r6,r2
 10029c0:	1021883a 	mov	r16,r2
 10029c4:	1823883a 	mov	r17,r3
 10029c8:	1004d880 	call	1004d88 <__subdf3>
 10029cc:	1810d53a 	srli	r8,r3,20
 10029d0:	1009883a 	mov	r4,r2
 10029d4:	d8801017 	ldw	r2,64(sp)
 10029d8:	4201ffcc 	andi	r8,r8,2047
 10029dc:	180b883a 	mov	r5,r3
 10029e0:	1211c83a 	sub	r8,r2,r8
 10029e4:	00800c44 	movi	r2,49
 10029e8:	e1000015 	stw	r4,0(fp)
 10029ec:	e1400115 	stw	r5,4(fp)
 10029f0:	1200f016 	blt	r2,r8,1002db4 <__ieee754_rem_pio2+0x76c>
 10029f4:	d8c00817 	ldw	r3,32(sp)
 10029f8:	d9001217 	ldw	r4,72(sp)
 10029fc:	d8c00e15 	stw	r3,56(sp)
 1002a00:	d9000f15 	stw	r4,60(sp)
 1002a04:	e1800017 	ldw	r6,0(fp)
 1002a08:	e1c00117 	ldw	r7,4(fp)
 1002a0c:	d9400f17 	ldw	r5,60(sp)
 1002a10:	d9000e17 	ldw	r4,56(sp)
 1002a14:	1004d880 	call	1004d88 <__subdf3>
 1002a18:	180b883a 	mov	r5,r3
 1002a1c:	800d883a 	mov	r6,r16
 1002a20:	880f883a 	mov	r7,r17
 1002a24:	1009883a 	mov	r4,r2
 1002a28:	1004d880 	call	1004d88 <__subdf3>
 1002a2c:	d9400a17 	ldw	r5,40(sp)
 1002a30:	e0800215 	stw	r2,8(fp)
 1002a34:	e1800204 	addi	r6,fp,8
 1002a38:	30c00115 	stw	r3,4(r6)
 1002a3c:	283f1b0e 	bge	r5,zero,10026ac <__ieee754_rem_pio2+0x64>
 1002a40:	e0c00117 	ldw	r3,4(fp)
 1002a44:	d8800b17 	ldw	r2,44(sp)
 1002a48:	18e0003c 	xorhi	r3,r3,32768
 1002a4c:	0085c83a 	sub	r2,zero,r2
 1002a50:	e0c00115 	stw	r3,4(fp)
 1002a54:	d8800b15 	stw	r2,44(sp)
 1002a58:	30800117 	ldw	r2,4(r6)
 1002a5c:	10a0003c 	xorhi	r2,r2,32768
 1002a60:	30800115 	stw	r2,4(r6)
 1002a64:	003f1106 	br	10026ac <__ieee754_rem_pio2+0x64>
 1002a68:	04151034 	movhi	r16,21568
 1002a6c:	044ffe74 	movhi	r17,16377
 1002a70:	8c487ec4 	addi	r17,r17,8699
 1002a74:	4809883a 	mov	r4,r9
 1002a78:	800d883a 	mov	r6,r16
 1002a7c:	880f883a 	mov	r7,r17
 1002a80:	1004e080 	call	1004e08 <__adddf3>
 1002a84:	1025883a 	mov	r18,r2
 1002a88:	1827883a 	mov	r19,r3
 1002a8c:	b440a326 	beq	r22,r17,1002d1c <__ieee754_rem_pio2+0x6d4>
 1002a90:	040698b4 	movhi	r16,6754
 1002a94:	8418cc44 	addi	r16,r16,25393
 1002a98:	044f7474 	movhi	r17,15825
 1002a9c:	8c6d1844 	addi	r17,r17,-19359
 1002aa0:	1009883a 	mov	r4,r2
 1002aa4:	180b883a 	mov	r5,r3
 1002aa8:	800d883a 	mov	r6,r16
 1002aac:	880f883a 	mov	r7,r17
 1002ab0:	1004e080 	call	1004e08 <__adddf3>
 1002ab4:	100d883a 	mov	r6,r2
 1002ab8:	9009883a 	mov	r4,r18
 1002abc:	980b883a 	mov	r5,r19
 1002ac0:	180f883a 	mov	r7,r3
 1002ac4:	e0800015 	stw	r2,0(fp)
 1002ac8:	e0c00115 	stw	r3,4(fp)
 1002acc:	1004d880 	call	1004d88 <__subdf3>
 1002ad0:	1009883a 	mov	r4,r2
 1002ad4:	800d883a 	mov	r6,r16
 1002ad8:	880f883a 	mov	r7,r17
 1002adc:	180b883a 	mov	r5,r3
 1002ae0:	1004e080 	call	1004e08 <__adddf3>
 1002ae4:	1009883a 	mov	r4,r2
 1002ae8:	00bfffc4 	movi	r2,-1
 1002aec:	d8800b15 	stw	r2,44(sp)
 1002af0:	e0c00315 	stw	r3,12(fp)
 1002af4:	e1000215 	stw	r4,8(fp)
 1002af8:	003eec06 	br	10026ac <__ieee754_rem_pio2+0x64>
 1002afc:	b005d53a 	srai	r2,r22,20
 1002b00:	4821883a 	mov	r16,r9
 1002b04:	05505c34 	movhi	r21,16752
 1002b08:	15fefa84 	addi	r23,r2,-1046
 1002b0c:	b826953a 	slli	r19,r23,20
 1002b10:	0029883a 	mov	r20,zero
 1002b14:	048000c4 	movi	r18,3
 1002b18:	b4e7c83a 	sub	r19,r22,r19
 1002b1c:	980b883a 	mov	r5,r19
 1002b20:	10058380 	call	1005838 <__fixdfsi>
 1002b24:	1009883a 	mov	r4,r2
 1002b28:	10057400 	call	1005740 <__floatsidf>
 1002b2c:	980b883a 	mov	r5,r19
 1002b30:	8009883a 	mov	r4,r16
 1002b34:	180f883a 	mov	r7,r3
 1002b38:	100d883a 	mov	r6,r2
 1002b3c:	d8800215 	stw	r2,8(sp)
 1002b40:	d8c00315 	stw	r3,12(sp)
 1002b44:	1004d880 	call	1004d88 <__subdf3>
 1002b48:	180b883a 	mov	r5,r3
 1002b4c:	a00d883a 	mov	r6,r20
 1002b50:	a80f883a 	mov	r7,r21
 1002b54:	1009883a 	mov	r4,r2
 1002b58:	1004e7c0 	call	1004e7c <__muldf3>
 1002b5c:	180b883a 	mov	r5,r3
 1002b60:	1009883a 	mov	r4,r2
 1002b64:	1823883a 	mov	r17,r3
 1002b68:	1021883a 	mov	r16,r2
 1002b6c:	10058380 	call	1005838 <__fixdfsi>
 1002b70:	1009883a 	mov	r4,r2
 1002b74:	10057400 	call	1005740 <__floatsidf>
 1002b78:	880b883a 	mov	r5,r17
 1002b7c:	8009883a 	mov	r4,r16
 1002b80:	180f883a 	mov	r7,r3
 1002b84:	100d883a 	mov	r6,r2
 1002b88:	d8800415 	stw	r2,16(sp)
 1002b8c:	d8c00515 	stw	r3,20(sp)
 1002b90:	1004d880 	call	1004d88 <__subdf3>
 1002b94:	180b883a 	mov	r5,r3
 1002b98:	000d883a 	mov	r6,zero
 1002b9c:	a80f883a 	mov	r7,r21
 1002ba0:	1009883a 	mov	r4,r2
 1002ba4:	1004e7c0 	call	1004e7c <__muldf3>
 1002ba8:	d8c00715 	stw	r3,28(sp)
 1002bac:	d8800615 	stw	r2,24(sp)
 1002bb0:	00000106 	br	1002bb8 <__ieee754_rem_pio2+0x570>
 1002bb4:	8025883a 	mov	r18,r16
 1002bb8:	943fffc4 	addi	r16,r18,-1
 1002bbc:	800890fa 	slli	r4,r16,3
 1002bc0:	d9400204 	addi	r5,sp,8
 1002bc4:	000d883a 	mov	r6,zero
 1002bc8:	2149883a 	add	r4,r4,r5
 1002bcc:	20c00117 	ldw	r3,4(r4)
 1002bd0:	20800017 	ldw	r2,0(r4)
 1002bd4:	000f883a 	mov	r7,zero
 1002bd8:	180b883a 	mov	r5,r3
 1002bdc:	1009883a 	mov	r4,r2
 1002be0:	10054980 	call	1005498 <__eqdf2>
 1002be4:	103ff326 	beq	r2,zero,1002bb4 <__ieee754_rem_pio2+0x56c>
 1002be8:	00800084 	movi	r2,2
 1002bec:	00c04134 	movhi	r3,260
 1002bf0:	18d96404 	addi	r3,r3,26000
 1002bf4:	b80d883a 	mov	r6,r23
 1002bf8:	900f883a 	mov	r7,r18
 1002bfc:	d9000204 	addi	r4,sp,8
 1002c00:	e00b883a 	mov	r5,fp
 1002c04:	d8800015 	stw	r2,0(sp)
 1002c08:	d8c00115 	stw	r3,4(sp)
 1002c0c:	100339c0 	call	100339c <__kernel_rem_pio2>
 1002c10:	d8800b15 	stw	r2,44(sp)
 1002c14:	d8800a17 	ldw	r2,40(sp)
 1002c18:	103ea40e 	bge	r2,zero,10026ac <__ieee754_rem_pio2+0x64>
 1002c1c:	e0800117 	ldw	r2,4(fp)
 1002c20:	d8c00b17 	ldw	r3,44(sp)
 1002c24:	e1000204 	addi	r4,fp,8
 1002c28:	10a0003c 	xorhi	r2,r2,32768
 1002c2c:	00c7c83a 	sub	r3,zero,r3
 1002c30:	e0800115 	stw	r2,4(fp)
 1002c34:	d8c00b15 	stw	r3,44(sp)
 1002c38:	20c00117 	ldw	r3,4(r4)
 1002c3c:	18e0003c 	xorhi	r3,r3,32768
 1002c40:	20c00115 	stw	r3,4(r4)
 1002c44:	003e9906 	br	10026ac <__ieee754_rem_pio2+0x64>
 1002c48:	00869834 	movhi	r2,6752
 1002c4c:	00cf7474 	movhi	r3,15825
 1002c50:	18ed1844 	addi	r3,r3,-19359
 1002c54:	9009883a 	mov	r4,r18
 1002c58:	980b883a 	mov	r5,r19
 1002c5c:	180f883a 	mov	r7,r3
 1002c60:	100d883a 	mov	r6,r2
 1002c64:	1004d880 	call	1004d88 <__subdf3>
 1002c68:	048b80f4 	movhi	r18,11779
 1002c6c:	949c1cc4 	addi	r18,r18,28787
 1002c70:	04cee8f4 	movhi	r19,15267
 1002c74:	9cc66284 	addi	r19,r19,6538
 1002c78:	1009883a 	mov	r4,r2
 1002c7c:	180b883a 	mov	r5,r3
 1002c80:	900d883a 	mov	r6,r18
 1002c84:	980f883a 	mov	r7,r19
 1002c88:	1021883a 	mov	r16,r2
 1002c8c:	1823883a 	mov	r17,r3
 1002c90:	1004d880 	call	1004d88 <__subdf3>
 1002c94:	100d883a 	mov	r6,r2
 1002c98:	8009883a 	mov	r4,r16
 1002c9c:	880b883a 	mov	r5,r17
 1002ca0:	180f883a 	mov	r7,r3
 1002ca4:	e0800015 	stw	r2,0(fp)
 1002ca8:	e0c00115 	stw	r3,4(fp)
 1002cac:	1004d880 	call	1004d88 <__subdf3>
 1002cb0:	180b883a 	mov	r5,r3
 1002cb4:	1009883a 	mov	r4,r2
 1002cb8:	900d883a 	mov	r6,r18
 1002cbc:	980f883a 	mov	r7,r19
 1002cc0:	1004d880 	call	1004d88 <__subdf3>
 1002cc4:	180b883a 	mov	r5,r3
 1002cc8:	1009883a 	mov	r4,r2
 1002ccc:	00c00044 	movi	r3,1
 1002cd0:	d8c00b15 	stw	r3,44(sp)
 1002cd4:	e1400315 	stw	r5,12(fp)
 1002cd8:	e1000215 	stw	r4,8(fp)
 1002cdc:	003e7306 	br	10026ac <__ieee754_rem_pio2+0x64>
 1002ce0:	2105883a 	add	r2,r4,r4
 1002ce4:	1085883a 	add	r2,r2,r2
 1002ce8:	00c04134 	movhi	r3,260
 1002cec:	18d94404 	addi	r3,r3,25872
 1002cf0:	10c5883a 	add	r2,r2,r3
 1002cf4:	113fff17 	ldw	r4,-4(r2)
 1002cf8:	b13eef26 	beq	r22,r4,10028b8 <__ieee754_rem_pio2+0x270>
 1002cfc:	980b883a 	mov	r5,r19
 1002d00:	400f883a 	mov	r7,r8
 1002d04:	9009883a 	mov	r4,r18
 1002d08:	800d883a 	mov	r6,r16
 1002d0c:	1004d880 	call	1004d88 <__subdf3>
 1002d10:	e0c00115 	stw	r3,4(fp)
 1002d14:	e0800015 	stw	r2,0(fp)
 1002d18:	003f3a06 	br	1002a04 <__ieee754_rem_pio2+0x3bc>
 1002d1c:	00869834 	movhi	r2,6752
 1002d20:	00cf7474 	movhi	r3,15825
 1002d24:	18ed1844 	addi	r3,r3,-19359
 1002d28:	9009883a 	mov	r4,r18
 1002d2c:	980b883a 	mov	r5,r19
 1002d30:	180f883a 	mov	r7,r3
 1002d34:	100d883a 	mov	r6,r2
 1002d38:	1004e080 	call	1004e08 <__adddf3>
 1002d3c:	048b80f4 	movhi	r18,11779
 1002d40:	949c1cc4 	addi	r18,r18,28787
 1002d44:	04cee8f4 	movhi	r19,15267
 1002d48:	9cc66284 	addi	r19,r19,6538
 1002d4c:	1009883a 	mov	r4,r2
 1002d50:	180b883a 	mov	r5,r3
 1002d54:	900d883a 	mov	r6,r18
 1002d58:	980f883a 	mov	r7,r19
 1002d5c:	1021883a 	mov	r16,r2
 1002d60:	1823883a 	mov	r17,r3
 1002d64:	1004e080 	call	1004e08 <__adddf3>
 1002d68:	100d883a 	mov	r6,r2
 1002d6c:	8009883a 	mov	r4,r16
 1002d70:	880b883a 	mov	r5,r17
 1002d74:	180f883a 	mov	r7,r3
 1002d78:	e0800015 	stw	r2,0(fp)
 1002d7c:	e0c00115 	stw	r3,4(fp)
 1002d80:	1004d880 	call	1004d88 <__subdf3>
 1002d84:	180b883a 	mov	r5,r3
 1002d88:	1009883a 	mov	r4,r2
 1002d8c:	900d883a 	mov	r6,r18
 1002d90:	980f883a 	mov	r7,r19
 1002d94:	1004e080 	call	1004e08 <__adddf3>
 1002d98:	180b883a 	mov	r5,r3
 1002d9c:	1009883a 	mov	r4,r2
 1002da0:	00ffffc4 	movi	r3,-1
 1002da4:	d8c00b15 	stw	r3,44(sp)
 1002da8:	e1400315 	stw	r5,12(fp)
 1002dac:	e1000215 	stw	r4,8(fp)
 1002db0:	003e3e06 	br	10026ac <__ieee754_rem_pio2+0x64>
 1002db4:	d9000c17 	ldw	r4,48(sp)
 1002db8:	d9400d17 	ldw	r5,52(sp)
 1002dbc:	018b8034 	movhi	r6,11776
 1002dc0:	b80f883a 	mov	r7,r23
 1002dc4:	1004e7c0 	call	1004e7c <__muldf3>
 1002dc8:	d9000817 	ldw	r4,32(sp)
 1002dcc:	d9401217 	ldw	r5,72(sp)
 1002dd0:	100d883a 	mov	r6,r2
 1002dd4:	180f883a 	mov	r7,r3
 1002dd8:	1025883a 	mov	r18,r2
 1002ddc:	1827883a 	mov	r19,r3
 1002de0:	1004d880 	call	1004d88 <__subdf3>
 1002de4:	d9400d17 	ldw	r5,52(sp)
 1002de8:	d9000c17 	ldw	r4,48(sp)
 1002dec:	02094834 	movhi	r8,9504
 1002df0:	42127044 	addi	r8,r8,18881
 1002df4:	024e5f34 	movhi	r9,14716
 1002df8:	4a60e684 	addi	r9,r9,-31846
 1002dfc:	480f883a 	mov	r7,r9
 1002e00:	400d883a 	mov	r6,r8
 1002e04:	182b883a 	mov	r21,r3
 1002e08:	d8800e15 	stw	r2,56(sp)
 1002e0c:	1004e7c0 	call	1004e7c <__muldf3>
 1002e10:	d9000817 	ldw	r4,32(sp)
 1002e14:	d9401217 	ldw	r5,72(sp)
 1002e18:	d9800e17 	ldw	r6,56(sp)
 1002e1c:	a80f883a 	mov	r7,r21
 1002e20:	1021883a 	mov	r16,r2
 1002e24:	1823883a 	mov	r17,r3
 1002e28:	dd400f15 	stw	r21,60(sp)
 1002e2c:	1004d880 	call	1004d88 <__subdf3>
 1002e30:	180b883a 	mov	r5,r3
 1002e34:	900d883a 	mov	r6,r18
 1002e38:	980f883a 	mov	r7,r19
 1002e3c:	1009883a 	mov	r4,r2
 1002e40:	1004d880 	call	1004d88 <__subdf3>
 1002e44:	180f883a 	mov	r7,r3
 1002e48:	880b883a 	mov	r5,r17
 1002e4c:	8009883a 	mov	r4,r16
 1002e50:	100d883a 	mov	r6,r2
 1002e54:	1004d880 	call	1004d88 <__subdf3>
 1002e58:	d9000e17 	ldw	r4,56(sp)
 1002e5c:	1021883a 	mov	r16,r2
 1002e60:	1823883a 	mov	r17,r3
 1002e64:	a80b883a 	mov	r5,r21
 1002e68:	180f883a 	mov	r7,r3
 1002e6c:	003fa606 	br	1002d08 <__ieee754_rem_pio2+0x6c0>

01002e70 <__kernel_cos>:
 1002e70:	defff104 	addi	sp,sp,-60
 1002e74:	00a00034 	movhi	r2,32768
 1002e78:	10bfffc4 	addi	r2,r2,-1
 1002e7c:	dd800c15 	stw	r22,48(sp)
 1002e80:	116c703a 	and	r22,r2,r5
 1002e84:	0005883a 	mov	r2,zero
 1002e88:	dd000a15 	stw	r20,40(sp)
 1002e8c:	d8800215 	stw	r2,8(sp)
 1002e90:	2029883a 	mov	r20,r4
 1002e94:	008f9034 	movhi	r2,15936
 1002e98:	10bfffc4 	addi	r2,r2,-1
 1002e9c:	0009883a 	mov	r4,zero
 1002ea0:	dd400b15 	stw	r21,44(sp)
 1002ea4:	dfc00e15 	stw	ra,56(sp)
 1002ea8:	ddc00d15 	stw	r23,52(sp)
 1002eac:	dcc00915 	stw	r19,36(sp)
 1002eb0:	dc800815 	stw	r18,32(sp)
 1002eb4:	dc400715 	stw	r17,28(sp)
 1002eb8:	dc000615 	stw	r16,24(sp)
 1002ebc:	282b883a 	mov	r21,r5
 1002ec0:	d9800415 	stw	r6,16(sp)
 1002ec4:	d9c00515 	stw	r7,20(sp)
 1002ec8:	d9000315 	stw	r4,12(sp)
 1002ecc:	15809216 	blt	r2,r22,1003118 <__kernel_cos+0x2a8>
 1002ed0:	a009883a 	mov	r4,r20
 1002ed4:	10058380 	call	1005838 <__fixdfsi>
 1002ed8:	10011c26 	beq	r2,zero,100334c <__kernel_cos+0x4dc>
 1002edc:	a009883a 	mov	r4,r20
 1002ee0:	a80b883a 	mov	r5,r21
 1002ee4:	a00d883a 	mov	r6,r20
 1002ee8:	a80f883a 	mov	r7,r21
 1002eec:	1004e7c0 	call	1004e7c <__muldf3>
 1002ef0:	1021883a 	mov	r16,r2
 1002ef4:	1823883a 	mov	r17,r3
 1002ef8:	1025883a 	mov	r18,r2
 1002efc:	1827883a 	mov	r19,r3
 1002f00:	00afa234 	movhi	r2,48776
 1002f04:	108e3504 	addi	r2,r2,14548
 1002f08:	00ef6a74 	movhi	r3,48553
 1002f0c:	18feba44 	addi	r3,r3,-1303
 1002f10:	8009883a 	mov	r4,r16
 1002f14:	880b883a 	mov	r5,r17
 1002f18:	180f883a 	mov	r7,r3
 1002f1c:	100d883a 	mov	r6,r2
 1002f20:	1004e7c0 	call	1004e7c <__muldf3>
 1002f24:	022f6d74 	movhi	r8,48565
 1002f28:	422c7104 	addi	r8,r8,-20028
 1002f2c:	024f88b4 	movhi	r9,15906
 1002f30:	4a7ba784 	addi	r9,r9,-4450
 1002f34:	480f883a 	mov	r7,r9
 1002f38:	400d883a 	mov	r6,r8
 1002f3c:	180b883a 	mov	r5,r3
 1002f40:	1009883a 	mov	r4,r2
 1002f44:	1004e080 	call	1004e08 <__adddf3>
 1002f48:	180f883a 	mov	r7,r3
 1002f4c:	8009883a 	mov	r4,r16
 1002f50:	880b883a 	mov	r5,r17
 1002f54:	100d883a 	mov	r6,r2
 1002f58:	1004e7c0 	call	1004e7c <__muldf3>
 1002f5c:	02202734 	movhi	r8,32924
 1002f60:	4214ab44 	addi	r8,r8,21165
 1002f64:	024fa4b4 	movhi	r9,16018
 1002f68:	4a5f93c4 	addi	r9,r9,32335
 1002f6c:	480f883a 	mov	r7,r9
 1002f70:	400d883a 	mov	r6,r8
 1002f74:	180b883a 	mov	r5,r3
 1002f78:	1009883a 	mov	r4,r2
 1002f7c:	1004d880 	call	1004d88 <__subdf3>
 1002f80:	180f883a 	mov	r7,r3
 1002f84:	8009883a 	mov	r4,r16
 1002f88:	880b883a 	mov	r5,r17
 1002f8c:	100d883a 	mov	r6,r2
 1002f90:	1004e7c0 	call	1004e7c <__muldf3>
 1002f94:	020672f4 	movhi	r8,6603
 1002f98:	42056404 	addi	r8,r8,5520
 1002f9c:	024fbeb4 	movhi	r9,16122
 1002fa0:	4a406804 	addi	r9,r9,416
 1002fa4:	480f883a 	mov	r7,r9
 1002fa8:	400d883a 	mov	r6,r8
 1002fac:	180b883a 	mov	r5,r3
 1002fb0:	1009883a 	mov	r4,r2
 1002fb4:	1004e080 	call	1004e08 <__adddf3>
 1002fb8:	180f883a 	mov	r7,r3
 1002fbc:	8009883a 	mov	r4,r16
 1002fc0:	880b883a 	mov	r5,r17
 1002fc4:	100d883a 	mov	r6,r2
 1002fc8:	1004e7c0 	call	1004e7c <__muldf3>
 1002fcc:	0205b074 	movhi	r8,5825
 1002fd0:	42145dc4 	addi	r8,r8,20855
 1002fd4:	024fd5f4 	movhi	r9,16215
 1002fd8:	4a705b04 	addi	r9,r9,-16020
 1002fdc:	480f883a 	mov	r7,r9
 1002fe0:	400d883a 	mov	r6,r8
 1002fe4:	180b883a 	mov	r5,r3
 1002fe8:	1009883a 	mov	r4,r2
 1002fec:	1004d880 	call	1004d88 <__subdf3>
 1002ff0:	180f883a 	mov	r7,r3
 1002ff4:	8009883a 	mov	r4,r16
 1002ff8:	880b883a 	mov	r5,r17
 1002ffc:	100d883a 	mov	r6,r2
 1003000:	1004e7c0 	call	1004e7c <__muldf3>
 1003004:	02155574 	movhi	r8,21845
 1003008:	42155304 	addi	r8,r8,21836
 100300c:	024fe974 	movhi	r9,16293
 1003010:	4a555544 	addi	r9,r9,21845
 1003014:	480f883a 	mov	r7,r9
 1003018:	400d883a 	mov	r6,r8
 100301c:	180b883a 	mov	r5,r3
 1003020:	1009883a 	mov	r4,r2
 1003024:	1004e080 	call	1004e08 <__adddf3>
 1003028:	180f883a 	mov	r7,r3
 100302c:	880b883a 	mov	r5,r17
 1003030:	8009883a 	mov	r4,r16
 1003034:	100d883a 	mov	r6,r2
 1003038:	1004e7c0 	call	1004e7c <__muldf3>
 100303c:	1021883a 	mov	r16,r2
 1003040:	1823883a 	mov	r17,r3
 1003044:	0005883a 	mov	r2,zero
 1003048:	00cff834 	movhi	r3,16352
 100304c:	9009883a 	mov	r4,r18
 1003050:	980b883a 	mov	r5,r19
 1003054:	180f883a 	mov	r7,r3
 1003058:	100d883a 	mov	r6,r2
 100305c:	1004e7c0 	call	1004e7c <__muldf3>
 1003060:	980b883a 	mov	r5,r19
 1003064:	880f883a 	mov	r7,r17
 1003068:	9009883a 	mov	r4,r18
 100306c:	800d883a 	mov	r6,r16
 1003070:	1025883a 	mov	r18,r2
 1003074:	1827883a 	mov	r19,r3
 1003078:	1004e7c0 	call	1004e7c <__muldf3>
 100307c:	d9c00517 	ldw	r7,20(sp)
 1003080:	d9800417 	ldw	r6,16(sp)
 1003084:	a80b883a 	mov	r5,r21
 1003088:	a009883a 	mov	r4,r20
 100308c:	1021883a 	mov	r16,r2
 1003090:	1823883a 	mov	r17,r3
 1003094:	1004e7c0 	call	1004e7c <__muldf3>
 1003098:	180f883a 	mov	r7,r3
 100309c:	880b883a 	mov	r5,r17
 10030a0:	8009883a 	mov	r4,r16
 10030a4:	100d883a 	mov	r6,r2
 10030a8:	1004d880 	call	1004d88 <__subdf3>
 10030ac:	180f883a 	mov	r7,r3
 10030b0:	980b883a 	mov	r5,r19
 10030b4:	9009883a 	mov	r4,r18
 10030b8:	100d883a 	mov	r6,r2
 10030bc:	1004d880 	call	1004d88 <__subdf3>
 10030c0:	0011883a 	mov	r8,zero
 10030c4:	024ffc34 	movhi	r9,16368
 10030c8:	480b883a 	mov	r5,r9
 10030cc:	180f883a 	mov	r7,r3
 10030d0:	4009883a 	mov	r4,r8
 10030d4:	100d883a 	mov	r6,r2
 10030d8:	1004d880 	call	1004d88 <__subdf3>
 10030dc:	100d883a 	mov	r6,r2
 10030e0:	180f883a 	mov	r7,r3
 10030e4:	3005883a 	mov	r2,r6
 10030e8:	3807883a 	mov	r3,r7
 10030ec:	dfc00e17 	ldw	ra,56(sp)
 10030f0:	ddc00d17 	ldw	r23,52(sp)
 10030f4:	dd800c17 	ldw	r22,48(sp)
 10030f8:	dd400b17 	ldw	r21,44(sp)
 10030fc:	dd000a17 	ldw	r20,40(sp)
 1003100:	dcc00917 	ldw	r19,36(sp)
 1003104:	dc800817 	ldw	r18,32(sp)
 1003108:	dc400717 	ldw	r17,28(sp)
 100310c:	dc000617 	ldw	r16,24(sp)
 1003110:	dec00f04 	addi	sp,sp,60
 1003114:	f800283a 	ret
 1003118:	280f883a 	mov	r7,r5
 100311c:	a009883a 	mov	r4,r20
 1003120:	a00d883a 	mov	r6,r20
 1003124:	1004e7c0 	call	1004e7c <__muldf3>
 1003128:	1021883a 	mov	r16,r2
 100312c:	1823883a 	mov	r17,r3
 1003130:	1025883a 	mov	r18,r2
 1003134:	1827883a 	mov	r19,r3
 1003138:	00afa234 	movhi	r2,48776
 100313c:	108e3504 	addi	r2,r2,14548
 1003140:	00ef6a74 	movhi	r3,48553
 1003144:	18feba44 	addi	r3,r3,-1303
 1003148:	8009883a 	mov	r4,r16
 100314c:	880b883a 	mov	r5,r17
 1003150:	180f883a 	mov	r7,r3
 1003154:	100d883a 	mov	r6,r2
 1003158:	1004e7c0 	call	1004e7c <__muldf3>
 100315c:	022f6d74 	movhi	r8,48565
 1003160:	422c7104 	addi	r8,r8,-20028
 1003164:	024f88b4 	movhi	r9,15906
 1003168:	4a7ba784 	addi	r9,r9,-4450
 100316c:	480f883a 	mov	r7,r9
 1003170:	400d883a 	mov	r6,r8
 1003174:	180b883a 	mov	r5,r3
 1003178:	1009883a 	mov	r4,r2
 100317c:	1004e080 	call	1004e08 <__adddf3>
 1003180:	180f883a 	mov	r7,r3
 1003184:	8009883a 	mov	r4,r16
 1003188:	880b883a 	mov	r5,r17
 100318c:	100d883a 	mov	r6,r2
 1003190:	1004e7c0 	call	1004e7c <__muldf3>
 1003194:	02202734 	movhi	r8,32924
 1003198:	4214ab44 	addi	r8,r8,21165
 100319c:	024fa4b4 	movhi	r9,16018
 10031a0:	4a5f93c4 	addi	r9,r9,32335
 10031a4:	480f883a 	mov	r7,r9
 10031a8:	400d883a 	mov	r6,r8
 10031ac:	180b883a 	mov	r5,r3
 10031b0:	1009883a 	mov	r4,r2
 10031b4:	1004d880 	call	1004d88 <__subdf3>
 10031b8:	180f883a 	mov	r7,r3
 10031bc:	8009883a 	mov	r4,r16
 10031c0:	880b883a 	mov	r5,r17
 10031c4:	100d883a 	mov	r6,r2
 10031c8:	1004e7c0 	call	1004e7c <__muldf3>
 10031cc:	020672f4 	movhi	r8,6603
 10031d0:	42056404 	addi	r8,r8,5520
 10031d4:	024fbeb4 	movhi	r9,16122
 10031d8:	4a406804 	addi	r9,r9,416
 10031dc:	480f883a 	mov	r7,r9
 10031e0:	400d883a 	mov	r6,r8
 10031e4:	180b883a 	mov	r5,r3
 10031e8:	1009883a 	mov	r4,r2
 10031ec:	1004e080 	call	1004e08 <__adddf3>
 10031f0:	180f883a 	mov	r7,r3
 10031f4:	8009883a 	mov	r4,r16
 10031f8:	880b883a 	mov	r5,r17
 10031fc:	100d883a 	mov	r6,r2
 1003200:	1004e7c0 	call	1004e7c <__muldf3>
 1003204:	0205b074 	movhi	r8,5825
 1003208:	42145dc4 	addi	r8,r8,20855
 100320c:	024fd5f4 	movhi	r9,16215
 1003210:	4a705b04 	addi	r9,r9,-16020
 1003214:	480f883a 	mov	r7,r9
 1003218:	400d883a 	mov	r6,r8
 100321c:	180b883a 	mov	r5,r3
 1003220:	1009883a 	mov	r4,r2
 1003224:	1004d880 	call	1004d88 <__subdf3>
 1003228:	180f883a 	mov	r7,r3
 100322c:	8009883a 	mov	r4,r16
 1003230:	880b883a 	mov	r5,r17
 1003234:	100d883a 	mov	r6,r2
 1003238:	1004e7c0 	call	1004e7c <__muldf3>
 100323c:	02155574 	movhi	r8,21845
 1003240:	42155304 	addi	r8,r8,21836
 1003244:	024fe974 	movhi	r9,16293
 1003248:	4a555544 	addi	r9,r9,21845
 100324c:	480f883a 	mov	r7,r9
 1003250:	400d883a 	mov	r6,r8
 1003254:	180b883a 	mov	r5,r3
 1003258:	1009883a 	mov	r4,r2
 100325c:	1004e080 	call	1004e08 <__adddf3>
 1003260:	180f883a 	mov	r7,r3
 1003264:	880b883a 	mov	r5,r17
 1003268:	8009883a 	mov	r4,r16
 100326c:	100d883a 	mov	r6,r2
 1003270:	1004e7c0 	call	1004e7c <__muldf3>
 1003274:	1021883a 	mov	r16,r2
 1003278:	008ff4f4 	movhi	r2,16339
 100327c:	108ccc84 	addi	r2,r2,13106
 1003280:	1823883a 	mov	r17,r3
 1003284:	15bf6f0e 	bge	r2,r22,1003044 <__kernel_cos+0x1d4>
 1003288:	008ffa74 	movhi	r2,16361
 100328c:	1580320e 	bge	r2,r22,1003358 <__kernel_cos+0x4e8>
 1003290:	0005883a 	mov	r2,zero
 1003294:	010ff9f4 	movhi	r4,16359
 1003298:	002d883a 	mov	r22,zero
 100329c:	d8800015 	stw	r2,0(sp)
 10032a0:	05cff4b4 	movhi	r23,16338
 10032a4:	d9000115 	stw	r4,4(sp)
 10032a8:	0005883a 	mov	r2,zero
 10032ac:	00cff834 	movhi	r3,16352
 10032b0:	9009883a 	mov	r4,r18
 10032b4:	980b883a 	mov	r5,r19
 10032b8:	180f883a 	mov	r7,r3
 10032bc:	100d883a 	mov	r6,r2
 10032c0:	1004e7c0 	call	1004e7c <__muldf3>
 10032c4:	180b883a 	mov	r5,r3
 10032c8:	b80f883a 	mov	r7,r23
 10032cc:	1009883a 	mov	r4,r2
 10032d0:	b00d883a 	mov	r6,r22
 10032d4:	1004d880 	call	1004d88 <__subdf3>
 10032d8:	980b883a 	mov	r5,r19
 10032dc:	880f883a 	mov	r7,r17
 10032e0:	9009883a 	mov	r4,r18
 10032e4:	800d883a 	mov	r6,r16
 10032e8:	1025883a 	mov	r18,r2
 10032ec:	1827883a 	mov	r19,r3
 10032f0:	1004e7c0 	call	1004e7c <__muldf3>
 10032f4:	d9c00517 	ldw	r7,20(sp)
 10032f8:	d9800417 	ldw	r6,16(sp)
 10032fc:	a80b883a 	mov	r5,r21
 1003300:	a009883a 	mov	r4,r20
 1003304:	1021883a 	mov	r16,r2
 1003308:	1823883a 	mov	r17,r3
 100330c:	1004e7c0 	call	1004e7c <__muldf3>
 1003310:	180f883a 	mov	r7,r3
 1003314:	880b883a 	mov	r5,r17
 1003318:	8009883a 	mov	r4,r16
 100331c:	100d883a 	mov	r6,r2
 1003320:	1004d880 	call	1004d88 <__subdf3>
 1003324:	180f883a 	mov	r7,r3
 1003328:	980b883a 	mov	r5,r19
 100332c:	9009883a 	mov	r4,r18
 1003330:	100d883a 	mov	r6,r2
 1003334:	1004d880 	call	1004d88 <__subdf3>
 1003338:	d9400117 	ldw	r5,4(sp)
 100333c:	d9000017 	ldw	r4,0(sp)
 1003340:	180f883a 	mov	r7,r3
 1003344:	100d883a 	mov	r6,r2
 1003348:	003f6306 	br	10030d8 <__kernel_cos+0x268>
 100334c:	000d883a 	mov	r6,zero
 1003350:	01cffc34 	movhi	r7,16368
 1003354:	003f6306 	br	10030e4 <__kernel_cos+0x274>
 1003358:	00bff834 	movhi	r2,65504
 100335c:	b0ad883a 	add	r22,r22,r2
 1003360:	dd800315 	stw	r22,12(sp)
 1003364:	d9000317 	ldw	r4,12(sp)
 1003368:	0005883a 	mov	r2,zero
 100336c:	00cffc34 	movhi	r3,16368
 1003370:	002d883a 	mov	r22,zero
 1003374:	200f883a 	mov	r7,r4
 1003378:	202f883a 	mov	r23,r4
 100337c:	180b883a 	mov	r5,r3
 1003380:	1009883a 	mov	r4,r2
 1003384:	b00d883a 	mov	r6,r22
 1003388:	d8800215 	stw	r2,8(sp)
 100338c:	1004d880 	call	1004d88 <__subdf3>
 1003390:	d8800015 	stw	r2,0(sp)
 1003394:	d8c00115 	stw	r3,4(sp)
 1003398:	003fc306 	br	10032a8 <__kernel_cos+0x438>

0100339c <__kernel_rem_pio2>:
 100339c:	deff5304 	addi	sp,sp,-692
 10033a0:	d880ad17 	ldw	r2,692(sp)
 10033a4:	d9009615 	stw	r4,600(sp)
 10033a8:	d9409715 	stw	r5,604(sp)
 10033ac:	1087883a 	add	r3,r2,r2
 10033b0:	18c7883a 	add	r3,r3,r3
 10033b4:	00804134 	movhi	r2,260
 10033b8:	1099a604 	addi	r2,r2,26264
 10033bc:	1887883a 	add	r3,r3,r2
 10033c0:	18c00017 	ldw	r3,0(r3)
 10033c4:	313fff44 	addi	r4,r6,-3
 10033c8:	01400604 	movi	r5,24
 10033cc:	df00ab15 	stw	fp,684(sp)
 10033d0:	dc00a315 	stw	r16,652(sp)
 10033d4:	d8c09515 	stw	r3,596(sp)
 10033d8:	dfc0ac15 	stw	ra,688(sp)
 10033dc:	ddc0aa15 	stw	r23,680(sp)
 10033e0:	dd80a915 	stw	r22,676(sp)
 10033e4:	dd40a815 	stw	r21,672(sp)
 10033e8:	dd00a715 	stw	r20,668(sp)
 10033ec:	dcc0a615 	stw	r19,664(sp)
 10033f0:	dc80a515 	stw	r18,660(sp)
 10033f4:	dc40a415 	stw	r17,656(sp)
 10033f8:	3021883a 	mov	r16,r6
 10033fc:	d9c09815 	stw	r7,608(sp)
 1003400:	100598c0 	call	100598c <__divsi3>
 1003404:	d8c09817 	ldw	r3,608(sp)
 1003408:	d8808c15 	stw	r2,560(sp)
 100340c:	1f3fffc4 	addi	fp,r3,-1
 1003410:	10031a16 	blt	r2,zero,100407c <__kernel_rem_pio2+0xce0>
 1003414:	d9008c17 	ldw	r4,560(sp)
 1003418:	017ffa04 	movi	r5,-24
 100341c:	1005a5c0 	call	1005a5c <__mulsi3>
 1003420:	d9009517 	ldw	r4,596(sp)
 1003424:	8085883a 	add	r2,r16,r2
 1003428:	10bffa04 	addi	r2,r2,-24
 100342c:	2707883a 	add	r3,r4,fp
 1003430:	d8809315 	stw	r2,588(sp)
 1003434:	18001616 	blt	r3,zero,1003490 <__kernel_rem_pio2+0xf4>
 1003438:	d9408c17 	ldw	r5,560(sp)
 100343c:	d980ae17 	ldw	r6,696(sp)
 1003440:	dc801404 	addi	r18,sp,80
 1003444:	2f21c83a 	sub	r16,r5,fp
 1003448:	8405883a 	add	r2,r16,r16
 100344c:	1085883a 	add	r2,r2,r2
 1003450:	30a3883a 	add	r17,r6,r2
 1003454:	80e7883a 	add	r19,r16,r3
 1003458:	00000106 	br	1003460 <__kernel_rem_pio2+0xc4>
 100345c:	84000044 	addi	r16,r16,1
 1003460:	0009883a 	mov	r4,zero
 1003464:	000b883a 	mov	r5,zero
 1003468:	80000416 	blt	r16,zero,100347c <__kernel_rem_pio2+0xe0>
 100346c:	89000017 	ldw	r4,0(r17)
 1003470:	10057400 	call	1005740 <__floatsidf>
 1003474:	1009883a 	mov	r4,r2
 1003478:	180b883a 	mov	r5,r3
 100347c:	91400115 	stw	r5,4(r18)
 1003480:	91000015 	stw	r4,0(r18)
 1003484:	8c400104 	addi	r17,r17,4
 1003488:	94800204 	addi	r18,r18,8
 100348c:	84fff31e 	bne	r16,r19,100345c <__kernel_rem_pio2+0xc0>
 1003490:	d9c09517 	ldw	r7,596(sp)
 1003494:	38002416 	blt	r7,zero,1003528 <__kernel_rem_pio2+0x18c>
 1003498:	da809817 	ldw	r10,608(sp)
 100349c:	e029883a 	mov	r20,fp
 10034a0:	dd406404 	addi	r21,sp,400
 10034a4:	3aaf883a 	add	r23,r7,r10
 10034a8:	e02c403a 	cmpge	r22,fp,zero
 10034ac:	b0023e26 	beq	r22,zero,1003da8 <__kernel_rem_pio2+0xa0c>
 10034b0:	dcc09617 	ldw	r19,600(sp)
 10034b4:	0021883a 	mov	r16,zero
 10034b8:	0025883a 	mov	r18,zero
 10034bc:	0023883a 	mov	r17,zero
 10034c0:	a489c83a 	sub	r4,r20,r18
 10034c4:	200890fa 	slli	r4,r4,3
 10034c8:	99800017 	ldw	r6,0(r19)
 10034cc:	99c00117 	ldw	r7,4(r19)
 10034d0:	26c9883a 	add	r4,r4,sp
 10034d4:	20c01517 	ldw	r3,84(r4)
 10034d8:	20801417 	ldw	r2,80(r4)
 10034dc:	94800044 	addi	r18,r18,1
 10034e0:	180b883a 	mov	r5,r3
 10034e4:	1009883a 	mov	r4,r2
 10034e8:	1004e7c0 	call	1004e7c <__muldf3>
 10034ec:	180f883a 	mov	r7,r3
 10034f0:	880b883a 	mov	r5,r17
 10034f4:	8009883a 	mov	r4,r16
 10034f8:	100d883a 	mov	r6,r2
 10034fc:	1004e080 	call	1004e08 <__adddf3>
 1003500:	1021883a 	mov	r16,r2
 1003504:	d8809817 	ldw	r2,608(sp)
 1003508:	9cc00204 	addi	r19,r19,8
 100350c:	1823883a 	mov	r17,r3
 1003510:	14bfeb1e 	bne	r2,r18,10034c0 <__kernel_rem_pio2+0x124>
 1003514:	a5000044 	addi	r20,r20,1
 1003518:	ac400115 	stw	r17,4(r21)
 100351c:	ac000015 	stw	r16,0(r21)
 1003520:	ad400204 	addi	r21,r21,8
 1003524:	a5ffe11e 	bne	r20,r23,10034ac <__kernel_rem_pio2+0x110>
 1003528:	d8c09517 	ldw	r3,596(sp)
 100352c:	d9409317 	ldw	r5,588(sp)
 1003530:	e038403a 	cmpge	fp,fp,zero
 1003534:	d8c08d15 	stw	r3,564(sp)
 1003538:	d9008d17 	ldw	r4,564(sp)
 100353c:	18c5883a 	add	r2,r3,r3
 1003540:	10c7883a 	add	r3,r2,r3
 1003544:	1907883a 	add	r3,r3,r4
 1003548:	1085883a 	add	r2,r2,r2
 100354c:	16c5883a 	add	r2,r2,sp
 1003550:	1ec7883a 	add	r3,r3,sp
 1003554:	29400050 	cmplti	r5,r5,1
 1003558:	df00a215 	stw	fp,648(sp)
 100355c:	d8809915 	stw	r2,612(sp)
 1003560:	d8c0a115 	stw	r3,644(sp)
 1003564:	d940a015 	stw	r5,640(sp)
 1003568:	d9808d17 	ldw	r6,564(sp)
 100356c:	300490fa 	slli	r2,r6,3
 1003570:	16c5883a 	add	r2,r2,sp
 1003574:	15006417 	ldw	r20,400(r2)
 1003578:	15406517 	ldw	r21,404(r2)
 100357c:	01802e0e 	bge	zero,r6,1003638 <__kernel_rem_pio2+0x29c>
 1003580:	102d883a 	mov	r22,r2
 1003584:	302f883a 	mov	r23,r6
 1003588:	d839883a 	mov	fp,sp
 100358c:	0005883a 	mov	r2,zero
 1003590:	00cf9c34 	movhi	r3,15984
 1003594:	180f883a 	mov	r7,r3
 1003598:	100d883a 	mov	r6,r2
 100359c:	a009883a 	mov	r4,r20
 10035a0:	a80b883a 	mov	r5,r21
 10035a4:	1004e7c0 	call	1004e7c <__muldf3>
 10035a8:	180b883a 	mov	r5,r3
 10035ac:	1009883a 	mov	r4,r2
 10035b0:	10058380 	call	1005838 <__fixdfsi>
 10035b4:	1009883a 	mov	r4,r2
 10035b8:	10057400 	call	1005740 <__floatsidf>
 10035bc:	1021883a 	mov	r16,r2
 10035c0:	1823883a 	mov	r17,r3
 10035c4:	0005883a 	mov	r2,zero
 10035c8:	00f05c34 	movhi	r3,49520
 10035cc:	180f883a 	mov	r7,r3
 10035d0:	8009883a 	mov	r4,r16
 10035d4:	880b883a 	mov	r5,r17
 10035d8:	100d883a 	mov	r6,r2
 10035dc:	1004e7c0 	call	1004e7c <__muldf3>
 10035e0:	180b883a 	mov	r5,r3
 10035e4:	a80f883a 	mov	r7,r21
 10035e8:	a00d883a 	mov	r6,r20
 10035ec:	1009883a 	mov	r4,r2
 10035f0:	1004e080 	call	1004e08 <__adddf3>
 10035f4:	180b883a 	mov	r5,r3
 10035f8:	1009883a 	mov	r4,r2
 10035fc:	10058380 	call	1005838 <__fixdfsi>
 1003600:	e0800015 	stw	r2,0(fp)
 1003604:	b5bffe04 	addi	r22,r22,-8
 1003608:	b0806417 	ldw	r2,400(r22)
 100360c:	b0c06517 	ldw	r3,404(r22)
 1003610:	8009883a 	mov	r4,r16
 1003614:	880b883a 	mov	r5,r17
 1003618:	180f883a 	mov	r7,r3
 100361c:	100d883a 	mov	r6,r2
 1003620:	1004e080 	call	1004e08 <__adddf3>
 1003624:	bdffffc4 	addi	r23,r23,-1
 1003628:	e7000104 	addi	fp,fp,4
 100362c:	1029883a 	mov	r20,r2
 1003630:	182b883a 	mov	r21,r3
 1003634:	b83fd51e 	bne	r23,zero,100358c <__kernel_rem_pio2+0x1f0>
 1003638:	d9809317 	ldw	r6,588(sp)
 100363c:	a80b883a 	mov	r5,r21
 1003640:	a009883a 	mov	r4,r20
 1003644:	10047740 	call	1004774 <scalbn>
 1003648:	0009883a 	mov	r4,zero
 100364c:	014ff034 	movhi	r5,16320
 1003650:	280f883a 	mov	r7,r5
 1003654:	200d883a 	mov	r6,r4
 1003658:	180b883a 	mov	r5,r3
 100365c:	1009883a 	mov	r4,r2
 1003660:	1021883a 	mov	r16,r2
 1003664:	1823883a 	mov	r17,r3
 1003668:	1004e7c0 	call	1004e7c <__muldf3>
 100366c:	180b883a 	mov	r5,r3
 1003670:	1009883a 	mov	r4,r2
 1003674:	10045500 	call	1004550 <floor>
 1003678:	0011883a 	mov	r8,zero
 100367c:	02700834 	movhi	r9,49184
 1003680:	480f883a 	mov	r7,r9
 1003684:	400d883a 	mov	r6,r8
 1003688:	180b883a 	mov	r5,r3
 100368c:	1009883a 	mov	r4,r2
 1003690:	1004e7c0 	call	1004e7c <__muldf3>
 1003694:	180f883a 	mov	r7,r3
 1003698:	100d883a 	mov	r6,r2
 100369c:	880b883a 	mov	r5,r17
 10036a0:	8009883a 	mov	r4,r16
 10036a4:	1004e080 	call	1004e08 <__adddf3>
 10036a8:	180b883a 	mov	r5,r3
 10036ac:	1009883a 	mov	r4,r2
 10036b0:	1823883a 	mov	r17,r3
 10036b4:	1021883a 	mov	r16,r2
 10036b8:	10058380 	call	1005838 <__fixdfsi>
 10036bc:	1009883a 	mov	r4,r2
 10036c0:	d8809415 	stw	r2,592(sp)
 10036c4:	10057400 	call	1005740 <__floatsidf>
 10036c8:	880b883a 	mov	r5,r17
 10036cc:	8009883a 	mov	r4,r16
 10036d0:	180f883a 	mov	r7,r3
 10036d4:	100d883a 	mov	r6,r2
 10036d8:	1004d880 	call	1004d88 <__subdf3>
 10036dc:	d9c0a017 	ldw	r7,640(sp)
 10036e0:	180d883a 	mov	r6,r3
 10036e4:	1021883a 	mov	r16,r2
 10036e8:	1823883a 	mov	r17,r3
 10036ec:	38017d1e 	bne	r7,zero,1003ce4 <__kernel_rem_pio2+0x948>
 10036f0:	da808d17 	ldw	r10,564(sp)
 10036f4:	d9009317 	ldw	r4,588(sp)
 10036f8:	00c00604 	movi	r3,24
 10036fc:	50bfffc4 	addi	r2,r10,-1
 1003700:	1085883a 	add	r2,r2,r2
 1003704:	1085883a 	add	r2,r2,r2
 1003708:	16c5883a 	add	r2,r2,sp
 100370c:	11400017 	ldw	r5,0(r2)
 1003710:	1907c83a 	sub	r3,r3,r4
 1003714:	d9c09317 	ldw	r7,588(sp)
 1003718:	28cdd83a 	sra	r6,r5,r3
 100371c:	010005c4 	movi	r4,23
 1003720:	da809417 	ldw	r10,592(sp)
 1003724:	30c6983a 	sll	r3,r6,r3
 1003728:	21c9c83a 	sub	r4,r4,r7
 100372c:	5195883a 	add	r10,r10,r6
 1003730:	28cbc83a 	sub	r5,r5,r3
 1003734:	2909d83a 	sra	r4,r5,r4
 1003738:	da809415 	stw	r10,592(sp)
 100373c:	11400015 	stw	r5,0(r2)
 1003740:	d9009215 	stw	r4,584(sp)
 1003744:	d9409217 	ldw	r5,584(sp)
 1003748:	0140270e 	bge	zero,r5,10037e8 <__kernel_rem_pio2+0x44c>
 100374c:	d9809417 	ldw	r6,592(sp)
 1003750:	d9c08d17 	ldw	r7,564(sp)
 1003754:	31800044 	addi	r6,r6,1
 1003758:	d9809415 	stw	r6,592(sp)
 100375c:	01c1a50e 	bge	zero,r7,1003df4 <__kernel_rem_pio2+0xa58>
 1003760:	002d883a 	mov	r22,zero
 1003764:	000b883a 	mov	r5,zero
 1003768:	d809883a 	mov	r4,sp
 100376c:	01c04034 	movhi	r7,256
 1003770:	01804034 	movhi	r6,256
 1003774:	31bfffc4 	addi	r6,r6,-1
 1003778:	00000806 	br	100379c <__kernel_rem_pio2+0x400>
 100377c:	38c5c83a 	sub	r2,r7,r3
 1003780:	18000226 	beq	r3,zero,100378c <__kernel_rem_pio2+0x3f0>
 1003784:	05800044 	movi	r22,1
 1003788:	20800015 	stw	r2,0(r4)
 100378c:	da808d17 	ldw	r10,564(sp)
 1003790:	29400044 	addi	r5,r5,1
 1003794:	21000104 	addi	r4,r4,4
 1003798:	51400926 	beq	r10,r5,10037c0 <__kernel_rem_pio2+0x424>
 100379c:	b004c03a 	cmpne	r2,r22,zero
 10037a0:	20c00017 	ldw	r3,0(r4)
 10037a4:	103ff526 	beq	r2,zero,100377c <__kernel_rem_pio2+0x3e0>
 10037a8:	da808d17 	ldw	r10,564(sp)
 10037ac:	30c5c83a 	sub	r2,r6,r3
 10037b0:	29400044 	addi	r5,r5,1
 10037b4:	20800015 	stw	r2,0(r4)
 10037b8:	21000104 	addi	r4,r4,4
 10037bc:	517ff71e 	bne	r10,r5,100379c <__kernel_rem_pio2+0x400>
 10037c0:	d880a017 	ldw	r2,640(sp)
 10037c4:	1000051e 	bne	r2,zero,10037dc <__kernel_rem_pio2+0x440>
 10037c8:	d8c09317 	ldw	r3,588(sp)
 10037cc:	00800044 	movi	r2,1
 10037d0:	18814e26 	beq	r3,r2,1003d0c <__kernel_rem_pio2+0x970>
 10037d4:	00800084 	movi	r2,2
 10037d8:	18815826 	beq	r3,r2,1003d3c <__kernel_rem_pio2+0x9a0>
 10037dc:	d9c09217 	ldw	r7,584(sp)
 10037e0:	00800084 	movi	r2,2
 10037e4:	38806926 	beq	r7,r2,100398c <__kernel_rem_pio2+0x5f0>
 10037e8:	000d883a 	mov	r6,zero
 10037ec:	000f883a 	mov	r7,zero
 10037f0:	8009883a 	mov	r4,r16
 10037f4:	880b883a 	mov	r5,r17
 10037f8:	10054980 	call	1005498 <__eqdf2>
 10037fc:	1000811e 	bne	r2,zero,1003a04 <__kernel_rem_pio2+0x668>
 1003800:	da808d17 	ldw	r10,564(sp)
 1003804:	d8809517 	ldw	r2,596(sp)
 1003808:	51bfffc4 	addi	r6,r10,-1
 100380c:	30800c16 	blt	r6,r2,1003840 <__kernel_rem_pio2+0x4a4>
 1003810:	3185883a 	add	r2,r6,r6
 1003814:	1085883a 	add	r2,r2,r2
 1003818:	16c9883a 	add	r4,r2,sp
 100381c:	3007883a 	mov	r3,r6
 1003820:	000b883a 	mov	r5,zero
 1003824:	20800017 	ldw	r2,0(r4)
 1003828:	d9c09517 	ldw	r7,596(sp)
 100382c:	18ffffc4 	addi	r3,r3,-1
 1003830:	213fff04 	addi	r4,r4,-4
 1003834:	288ab03a 	or	r5,r5,r2
 1003838:	19fffa0e 	bge	r3,r7,1003824 <__kernel_rem_pio2+0x488>
 100383c:	2800791e 	bne	r5,zero,1003a24 <__kernel_rem_pio2+0x688>
 1003840:	da809917 	ldw	r10,612(sp)
 1003844:	50bfff17 	ldw	r2,-4(r10)
 1003848:	1001511e 	bne	r2,zero,1003d90 <__kernel_rem_pio2+0x9f4>
 100384c:	d880a117 	ldw	r2,644(sp)
 1003850:	01000044 	movi	r4,1
 1003854:	10ffff04 	addi	r3,r2,-4
 1003858:	18ffff04 	addi	r3,r3,-4
 100385c:	18800017 	ldw	r2,0(r3)
 1003860:	21000044 	addi	r4,r4,1
 1003864:	103ffc26 	beq	r2,zero,1003858 <__kernel_rem_pio2+0x4bc>
 1003868:	d8c08d17 	ldw	r3,564(sp)
 100386c:	192f883a 	add	r23,r3,r4
 1003870:	1f000044 	addi	fp,r3,1
 1003874:	bf00020e 	bge	r23,fp,1003880 <__kernel_rem_pio2+0x4e4>
 1003878:	ddc08d15 	stw	r23,564(sp)
 100387c:	003f3a06 	br	1003568 <__kernel_rem_pio2+0x1cc>
 1003880:	d9408c17 	ldw	r5,560(sp)
 1003884:	d9009817 	ldw	r4,608(sp)
 1003888:	da80ae17 	ldw	r10,696(sp)
 100388c:	1945883a 	add	r2,r3,r5
 1003890:	190f883a 	add	r7,r3,r4
 1003894:	1085883a 	add	r2,r2,r2
 1003898:	380a90fa 	slli	r5,r7,3
 100389c:	e00c90fa 	slli	r6,fp,3
 10038a0:	1085883a 	add	r2,r2,r2
 10038a4:	5085883a 	add	r2,r10,r2
 10038a8:	d8c01404 	addi	r3,sp,80
 10038ac:	d9006404 	addi	r4,sp,400
 10038b0:	10800104 	addi	r2,r2,4
 10038b4:	196b883a 	add	r21,r3,r5
 10038b8:	21a1883a 	add	r16,r4,r6
 10038bc:	d8809115 	stw	r2,580(sp)
 10038c0:	d9c09015 	stw	r7,576(sp)
 10038c4:	d8809117 	ldw	r2,580(sp)
 10038c8:	11000017 	ldw	r4,0(r2)
 10038cc:	10057400 	call	1005740 <__floatsidf>
 10038d0:	a8c00115 	stw	r3,4(r21)
 10038d4:	d8c0a217 	ldw	r3,648(sp)
 10038d8:	a8800015 	stw	r2,0(r21)
 10038dc:	18002826 	beq	r3,zero,1003980 <__kernel_rem_pio2+0x5e4>
 10038e0:	d9009017 	ldw	r4,576(sp)
 10038e4:	dd009617 	ldw	r20,600(sp)
 10038e8:	0023883a 	mov	r17,zero
 10038ec:	200490fa 	slli	r2,r4,3
 10038f0:	002d883a 	mov	r22,zero
 10038f4:	0025883a 	mov	r18,zero
 10038f8:	16e7883a 	add	r19,r2,sp
 10038fc:	98801417 	ldw	r2,80(r19)
 1003900:	98c01517 	ldw	r3,84(r19)
 1003904:	a1800017 	ldw	r6,0(r20)
 1003908:	a1c00117 	ldw	r7,4(r20)
 100390c:	180b883a 	mov	r5,r3
 1003910:	1009883a 	mov	r4,r2
 1003914:	1004e7c0 	call	1004e7c <__muldf3>
 1003918:	180f883a 	mov	r7,r3
 100391c:	900b883a 	mov	r5,r18
 1003920:	8809883a 	mov	r4,r17
 1003924:	100d883a 	mov	r6,r2
 1003928:	1004e080 	call	1004e08 <__adddf3>
 100392c:	d9409817 	ldw	r5,608(sp)
 1003930:	b5800044 	addi	r22,r22,1
 1003934:	9cfffe04 	addi	r19,r19,-8
 1003938:	1023883a 	mov	r17,r2
 100393c:	1825883a 	mov	r18,r3
 1003940:	a5000204 	addi	r20,r20,8
 1003944:	2dbfed1e 	bne	r5,r22,10038fc <__kernel_rem_pio2+0x560>
 1003948:	d9809117 	ldw	r6,580(sp)
 100394c:	d9c09017 	ldw	r7,576(sp)
 1003950:	e7000044 	addi	fp,fp,1
 1003954:	31800104 	addi	r6,r6,4
 1003958:	39c00044 	addi	r7,r7,1
 100395c:	84800115 	stw	r18,4(r16)
 1003960:	84400015 	stw	r17,0(r16)
 1003964:	d9809115 	stw	r6,580(sp)
 1003968:	ad400204 	addi	r21,r21,8
 100396c:	84000204 	addi	r16,r16,8
 1003970:	d9c09015 	stw	r7,576(sp)
 1003974:	bf3fd30e 	bge	r23,fp,10038c4 <__kernel_rem_pio2+0x528>
 1003978:	ddc08d15 	stw	r23,564(sp)
 100397c:	003efa06 	br	1003568 <__kernel_rem_pio2+0x1cc>
 1003980:	0023883a 	mov	r17,zero
 1003984:	0025883a 	mov	r18,zero
 1003988:	003fef06 	br	1003948 <__kernel_rem_pio2+0x5ac>
 100398c:	0029883a 	mov	r20,zero
 1003990:	054ffc34 	movhi	r21,16368
 1003994:	880f883a 	mov	r7,r17
 1003998:	800d883a 	mov	r6,r16
 100399c:	a009883a 	mov	r4,r20
 10039a0:	a80b883a 	mov	r5,r21
 10039a4:	1004d880 	call	1004d88 <__subdf3>
 10039a8:	1025883a 	mov	r18,r2
 10039ac:	b005003a 	cmpeq	r2,r22,zero
 10039b0:	1827883a 	mov	r19,r3
 10039b4:	9021883a 	mov	r16,r18
 10039b8:	1823883a 	mov	r17,r3
 10039bc:	103f8a1e 	bne	r2,zero,10037e8 <__kernel_rem_pio2+0x44c>
 10039c0:	d9809317 	ldw	r6,588(sp)
 10039c4:	0009883a 	mov	r4,zero
 10039c8:	a80b883a 	mov	r5,r21
 10039cc:	10047740 	call	1004774 <scalbn>
 10039d0:	180f883a 	mov	r7,r3
 10039d4:	9009883a 	mov	r4,r18
 10039d8:	980b883a 	mov	r5,r19
 10039dc:	100d883a 	mov	r6,r2
 10039e0:	1004d880 	call	1004d88 <__subdf3>
 10039e4:	1021883a 	mov	r16,r2
 10039e8:	1823883a 	mov	r17,r3
 10039ec:	000d883a 	mov	r6,zero
 10039f0:	000f883a 	mov	r7,zero
 10039f4:	8009883a 	mov	r4,r16
 10039f8:	880b883a 	mov	r5,r17
 10039fc:	10054980 	call	1005498 <__eqdf2>
 1003a00:	103f7f26 	beq	r2,zero,1003800 <__kernel_rem_pio2+0x464>
 1003a04:	000d883a 	mov	r6,zero
 1003a08:	000f883a 	mov	r7,zero
 1003a0c:	8009883a 	mov	r4,r16
 1003a10:	880b883a 	mov	r5,r17
 1003a14:	10054980 	call	1005498 <__eqdf2>
 1003a18:	10019a1e 	bne	r2,zero,1004084 <__kernel_rem_pio2+0xce8>
 1003a1c:	da808d17 	ldw	r10,564(sp)
 1003a20:	51bfffc4 	addi	r6,r10,-1
 1003a24:	3185883a 	add	r2,r6,r6
 1003a28:	1085883a 	add	r2,r2,r2
 1003a2c:	d9009317 	ldw	r4,588(sp)
 1003a30:	16c5883a 	add	r2,r2,sp
 1003a34:	10c00017 	ldw	r3,0(r2)
 1003a38:	213ffa04 	addi	r4,r4,-24
 1003a3c:	d9009315 	stw	r4,588(sp)
 1003a40:	1801d41e 	bne	r3,zero,1004194 <__kernel_rem_pio2+0xdf8>
 1003a44:	d9808d15 	stw	r6,564(sp)
 1003a48:	1007883a 	mov	r3,r2
 1003a4c:	d9408d17 	ldw	r5,564(sp)
 1003a50:	d9809317 	ldw	r6,588(sp)
 1003a54:	18ffff04 	addi	r3,r3,-4
 1003a58:	18800017 	ldw	r2,0(r3)
 1003a5c:	297fffc4 	addi	r5,r5,-1
 1003a60:	31bffa04 	addi	r6,r6,-24
 1003a64:	d9408d15 	stw	r5,564(sp)
 1003a68:	d9809315 	stw	r6,588(sp)
 1003a6c:	103ff726 	beq	r2,zero,1003a4c <__kernel_rem_pio2+0x6b0>
 1003a70:	d9809317 	ldw	r6,588(sp)
 1003a74:	0005883a 	mov	r2,zero
 1003a78:	00cffc34 	movhi	r3,16368
 1003a7c:	180b883a 	mov	r5,r3
 1003a80:	1009883a 	mov	r4,r2
 1003a84:	10047740 	call	1004774 <scalbn>
 1003a88:	d9808d17 	ldw	r6,564(sp)
 1003a8c:	1021883a 	mov	r16,r2
 1003a90:	1823883a 	mov	r17,r3
 1003a94:	30004616 	blt	r6,zero,1003bb0 <__kernel_rem_pio2+0x814>
 1003a98:	300690fa 	slli	r3,r6,3
 1003a9c:	3185883a 	add	r2,r6,r6
 1003aa0:	1085883a 	add	r2,r2,r2
 1003aa4:	16e9883a 	add	r20,r2,sp
 1003aa8:	1ee5883a 	add	r18,r3,sp
 1003aac:	3027883a 	mov	r19,r6
 1003ab0:	057fffc4 	movi	r21,-1
 1003ab4:	a1000017 	ldw	r4,0(r20)
 1003ab8:	9cffffc4 	addi	r19,r19,-1
 1003abc:	a53fff04 	addi	r20,r20,-4
 1003ac0:	10057400 	call	1005740 <__floatsidf>
 1003ac4:	800d883a 	mov	r6,r16
 1003ac8:	880f883a 	mov	r7,r17
 1003acc:	180b883a 	mov	r5,r3
 1003ad0:	1009883a 	mov	r4,r2
 1003ad4:	1004e7c0 	call	1004e7c <__muldf3>
 1003ad8:	0015883a 	mov	r10,zero
 1003adc:	02cf9c34 	movhi	r11,15984
 1003ae0:	880b883a 	mov	r5,r17
 1003ae4:	8009883a 	mov	r4,r16
 1003ae8:	90c06515 	stw	r3,404(r18)
 1003aec:	90806415 	stw	r2,400(r18)
 1003af0:	580f883a 	mov	r7,r11
 1003af4:	500d883a 	mov	r6,r10
 1003af8:	1004e7c0 	call	1004e7c <__muldf3>
 1003afc:	1021883a 	mov	r16,r2
 1003b00:	1823883a 	mov	r17,r3
 1003b04:	94bffe04 	addi	r18,r18,-8
 1003b08:	9d7fea1e 	bne	r19,r21,1003ab4 <__kernel_rem_pio2+0x718>
 1003b0c:	d9c09517 	ldw	r7,596(sp)
 1003b10:	dd808d17 	ldw	r22,564(sp)
 1003b14:	002b883a 	mov	r21,zero
 1003b18:	382e403a 	cmpge	r23,r7,zero
 1003b1c:	b800aa26 	beq	r23,zero,1003dc8 <__kernel_rem_pio2+0xa2c>
 1003b20:	a800a916 	blt	r21,zero,1003dc8 <__kernel_rem_pio2+0xa2c>
 1003b24:	b00690fa 	slli	r3,r22,3
 1003b28:	d8806404 	addi	r2,sp,400
 1003b2c:	0021883a 	mov	r16,zero
 1003b30:	10e9883a 	add	r20,r2,r3
 1003b34:	0027883a 	mov	r19,zero
 1003b38:	0023883a 	mov	r17,zero
 1003b3c:	04804134 	movhi	r18,260
 1003b40:	9499aa04 	addi	r18,r18,26280
 1003b44:	00000106 	br	1003b4c <__kernel_rem_pio2+0x7b0>
 1003b48:	acc01116 	blt	r21,r19,1003b90 <__kernel_rem_pio2+0x7f4>
 1003b4c:	91000017 	ldw	r4,0(r18)
 1003b50:	91400117 	ldw	r5,4(r18)
 1003b54:	a1800017 	ldw	r6,0(r20)
 1003b58:	a1c00117 	ldw	r7,4(r20)
 1003b5c:	9cc00044 	addi	r19,r19,1
 1003b60:	94800204 	addi	r18,r18,8
 1003b64:	1004e7c0 	call	1004e7c <__muldf3>
 1003b68:	180f883a 	mov	r7,r3
 1003b6c:	880b883a 	mov	r5,r17
 1003b70:	8009883a 	mov	r4,r16
 1003b74:	100d883a 	mov	r6,r2
 1003b78:	1004e080 	call	1004e08 <__adddf3>
 1003b7c:	da809517 	ldw	r10,596(sp)
 1003b80:	a5000204 	addi	r20,r20,8
 1003b84:	1021883a 	mov	r16,r2
 1003b88:	1823883a 	mov	r17,r3
 1003b8c:	54ffee0e 	bge	r10,r19,1003b48 <__kernel_rem_pio2+0x7ac>
 1003b90:	a80490fa 	slli	r2,r21,3
 1003b94:	b5bfffc4 	addi	r22,r22,-1
 1003b98:	ad400044 	addi	r21,r21,1
 1003b9c:	16c5883a 	add	r2,r2,sp
 1003ba0:	14403d15 	stw	r17,244(r2)
 1003ba4:	14003c15 	stw	r16,240(r2)
 1003ba8:	00bfffc4 	movi	r2,-1
 1003bac:	b0bfdb1e 	bne	r22,r2,1003b1c <__kernel_rem_pio2+0x780>
 1003bb0:	d8c0ad17 	ldw	r3,692(sp)
 1003bb4:	00800084 	movi	r2,2
 1003bb8:	10c09316 	blt	r2,r3,1003e08 <__kernel_rem_pio2+0xa6c>
 1003bbc:	00c1120e 	bge	zero,r3,1004008 <__kernel_rem_pio2+0xc6c>
 1003bc0:	d9808d17 	ldw	r6,564(sp)
 1003bc4:	30018d16 	blt	r6,zero,10041fc <__kernel_rem_pio2+0xe60>
 1003bc8:	d8c08d17 	ldw	r3,564(sp)
 1003bcc:	0011883a 	mov	r8,zero
 1003bd0:	0013883a 	mov	r9,zero
 1003bd4:	180490fa 	slli	r2,r3,3
 1003bd8:	1823883a 	mov	r17,r3
 1003bdc:	04bfffc4 	movi	r18,-1
 1003be0:	16e1883a 	add	r16,r2,sp
 1003be4:	80803c17 	ldw	r2,240(r16)
 1003be8:	80c03d17 	ldw	r3,244(r16)
 1003bec:	480b883a 	mov	r5,r9
 1003bf0:	4009883a 	mov	r4,r8
 1003bf4:	180f883a 	mov	r7,r3
 1003bf8:	100d883a 	mov	r6,r2
 1003bfc:	1004e080 	call	1004e08 <__adddf3>
 1003c00:	8c7fffc4 	addi	r17,r17,-1
 1003c04:	843ffe04 	addi	r16,r16,-8
 1003c08:	1011883a 	mov	r8,r2
 1003c0c:	1813883a 	mov	r9,r3
 1003c10:	8cbff41e 	bne	r17,r18,1003be4 <__kernel_rem_pio2+0x848>
 1003c14:	d9009217 	ldw	r4,584(sp)
 1003c18:	20015b1e 	bne	r4,zero,1004188 <__kernel_rem_pio2+0xdec>
 1003c1c:	4009883a 	mov	r4,r8
 1003c20:	480b883a 	mov	r5,r9
 1003c24:	d9809717 	ldw	r6,604(sp)
 1003c28:	d8803c17 	ldw	r2,240(sp)
 1003c2c:	480f883a 	mov	r7,r9
 1003c30:	31400115 	stw	r5,4(r6)
 1003c34:	31000015 	stw	r4,0(r6)
 1003c38:	d8c03d17 	ldw	r3,244(sp)
 1003c3c:	400d883a 	mov	r6,r8
 1003c40:	1009883a 	mov	r4,r2
 1003c44:	180b883a 	mov	r5,r3
 1003c48:	1004d880 	call	1004d88 <__subdf3>
 1003c4c:	d9c08d17 	ldw	r7,564(sp)
 1003c50:	1011883a 	mov	r8,r2
 1003c54:	1813883a 	mov	r9,r3
 1003c58:	01c00d0e 	bge	zero,r7,1003c90 <__kernel_rem_pio2+0x8f4>
 1003c5c:	0023883a 	mov	r17,zero
 1003c60:	dc003e04 	addi	r16,sp,248
 1003c64:	81800017 	ldw	r6,0(r16)
 1003c68:	81c00117 	ldw	r7,4(r16)
 1003c6c:	480b883a 	mov	r5,r9
 1003c70:	4009883a 	mov	r4,r8
 1003c74:	1004e080 	call	1004e08 <__adddf3>
 1003c78:	da808d17 	ldw	r10,564(sp)
 1003c7c:	8c400044 	addi	r17,r17,1
 1003c80:	1011883a 	mov	r8,r2
 1003c84:	1813883a 	mov	r9,r3
 1003c88:	84000204 	addi	r16,r16,8
 1003c8c:	8abff51e 	bne	r17,r10,1003c64 <__kernel_rem_pio2+0x8c8>
 1003c90:	d8809217 	ldw	r2,584(sp)
 1003c94:	10000226 	beq	r2,zero,1003ca0 <__kernel_rem_pio2+0x904>
 1003c98:	48e0003c 	xorhi	r3,r9,32768
 1003c9c:	1813883a 	mov	r9,r3
 1003ca0:	d8c09717 	ldw	r3,604(sp)
 1003ca4:	1a400315 	stw	r9,12(r3)
 1003ca8:	1a000215 	stw	r8,8(r3)
 1003cac:	d8c09417 	ldw	r3,592(sp)
 1003cb0:	188001cc 	andi	r2,r3,7
 1003cb4:	dfc0ac17 	ldw	ra,688(sp)
 1003cb8:	df00ab17 	ldw	fp,684(sp)
 1003cbc:	ddc0aa17 	ldw	r23,680(sp)
 1003cc0:	dd80a917 	ldw	r22,676(sp)
 1003cc4:	dd40a817 	ldw	r21,672(sp)
 1003cc8:	dd00a717 	ldw	r20,668(sp)
 1003ccc:	dcc0a617 	ldw	r19,664(sp)
 1003cd0:	dc80a517 	ldw	r18,660(sp)
 1003cd4:	dc40a417 	ldw	r17,656(sp)
 1003cd8:	dc00a317 	ldw	r16,652(sp)
 1003cdc:	dec0ad04 	addi	sp,sp,692
 1003ce0:	f800283a 	ret
 1003ce4:	d8809317 	ldw	r2,588(sp)
 1003ce8:	10001f1e 	bne	r2,zero,1003d68 <__kernel_rem_pio2+0x9cc>
 1003cec:	d8c08d17 	ldw	r3,564(sp)
 1003cf0:	18c5883a 	add	r2,r3,r3
 1003cf4:	1085883a 	add	r2,r2,r2
 1003cf8:	16c5883a 	add	r2,r2,sp
 1003cfc:	10ffff17 	ldw	r3,-4(r2)
 1003d00:	1807d5fa 	srai	r3,r3,23
 1003d04:	d8c09215 	stw	r3,584(sp)
 1003d08:	003e8e06 	br	1003744 <__kernel_rem_pio2+0x3a8>
 1003d0c:	d9008d17 	ldw	r4,564(sp)
 1003d10:	d9409317 	ldw	r5,588(sp)
 1003d14:	2145c83a 	sub	r2,r4,r5
 1003d18:	1085883a 	add	r2,r2,r2
 1003d1c:	1085883a 	add	r2,r2,r2
 1003d20:	16c5883a 	add	r2,r2,sp
 1003d24:	10c00017 	ldw	r3,0(r2)
 1003d28:	01002034 	movhi	r4,128
 1003d2c:	213fffc4 	addi	r4,r4,-1
 1003d30:	1906703a 	and	r3,r3,r4
 1003d34:	10c00015 	stw	r3,0(r2)
 1003d38:	003ea806 	br	10037dc <__kernel_rem_pio2+0x440>
 1003d3c:	d9808d17 	ldw	r6,564(sp)
 1003d40:	01001034 	movhi	r4,64
 1003d44:	213fffc4 	addi	r4,r4,-1
 1003d48:	30bfffc4 	addi	r2,r6,-1
 1003d4c:	1085883a 	add	r2,r2,r2
 1003d50:	1085883a 	add	r2,r2,r2
 1003d54:	16c5883a 	add	r2,r2,sp
 1003d58:	10c00017 	ldw	r3,0(r2)
 1003d5c:	1906703a 	and	r3,r3,r4
 1003d60:	10c00015 	stw	r3,0(r2)
 1003d64:	003e9d06 	br	10037dc <__kernel_rem_pio2+0x440>
 1003d68:	0005883a 	mov	r2,zero
 1003d6c:	00cff834 	movhi	r3,16352
 1003d70:	300b883a 	mov	r5,r6
 1003d74:	180f883a 	mov	r7,r3
 1003d78:	8009883a 	mov	r4,r16
 1003d7c:	100d883a 	mov	r6,r2
 1003d80:	10055a80 	call	10055a8 <__gedf2>
 1003d84:	10001d0e 	bge	r2,zero,1003dfc <__kernel_rem_pio2+0xa60>
 1003d88:	d8009215 	stw	zero,584(sp)
 1003d8c:	003e9606 	br	10037e8 <__kernel_rem_pio2+0x44c>
 1003d90:	d8c08d17 	ldw	r3,564(sp)
 1003d94:	01000044 	movi	r4,1
 1003d98:	192f883a 	add	r23,r3,r4
 1003d9c:	1f000044 	addi	fp,r3,1
 1003da0:	bf3eb516 	blt	r23,fp,1003878 <__kernel_rem_pio2+0x4dc>
 1003da4:	003eb606 	br	1003880 <__kernel_rem_pio2+0x4e4>
 1003da8:	0021883a 	mov	r16,zero
 1003dac:	0023883a 	mov	r17,zero
 1003db0:	a5000044 	addi	r20,r20,1
 1003db4:	ac400115 	stw	r17,4(r21)
 1003db8:	ac000015 	stw	r16,0(r21)
 1003dbc:	ad400204 	addi	r21,r21,8
 1003dc0:	a5fdba1e 	bne	r20,r23,10034ac <__kernel_rem_pio2+0x110>
 1003dc4:	003dd806 	br	1003528 <__kernel_rem_pio2+0x18c>
 1003dc8:	a80490fa 	slli	r2,r21,3
 1003dcc:	0021883a 	mov	r16,zero
 1003dd0:	0023883a 	mov	r17,zero
 1003dd4:	16c5883a 	add	r2,r2,sp
 1003dd8:	14403d15 	stw	r17,244(r2)
 1003ddc:	14003c15 	stw	r16,240(r2)
 1003de0:	b5bfffc4 	addi	r22,r22,-1
 1003de4:	00bfffc4 	movi	r2,-1
 1003de8:	ad400044 	addi	r21,r21,1
 1003dec:	b0bf4b1e 	bne	r22,r2,1003b1c <__kernel_rem_pio2+0x780>
 1003df0:	003f6f06 	br	1003bb0 <__kernel_rem_pio2+0x814>
 1003df4:	002d883a 	mov	r22,zero
 1003df8:	003e7106 	br	10037c0 <__kernel_rem_pio2+0x424>
 1003dfc:	01000084 	movi	r4,2
 1003e00:	d9009215 	stw	r4,584(sp)
 1003e04:	003e5106 	br	100374c <__kernel_rem_pio2+0x3b0>
 1003e08:	d900ad17 	ldw	r4,692(sp)
 1003e0c:	008000c4 	movi	r2,3
 1003e10:	20bfa61e 	bne	r4,r2,1003cac <__kernel_rem_pio2+0x910>
 1003e14:	d9c08d17 	ldw	r7,564(sp)
 1003e18:	01c02c0e 	bge	zero,r7,1003ecc <__kernel_rem_pio2+0xb30>
 1003e1c:	3805883a 	mov	r2,r7
 1003e20:	00000106 	br	1003e28 <__kernel_rem_pio2+0xa8c>
 1003e24:	d8808e17 	ldw	r2,568(sp)
 1003e28:	113fffc4 	addi	r4,r2,-1
 1003e2c:	100690fa 	slli	r3,r2,3
 1003e30:	200490fa 	slli	r2,r4,3
 1003e34:	d9008e15 	stw	r4,568(sp)
 1003e38:	1ef9883a 	add	fp,r3,sp
 1003e3c:	16c5883a 	add	r2,r2,sp
 1003e40:	d8809a15 	stw	r2,616(sp)
 1003e44:	11403c04 	addi	r5,r2,240
 1003e48:	e1803c04 	addi	r6,fp,240
 1003e4c:	14003c17 	ldw	r16,240(r2)
 1003e50:	e5003c17 	ldw	r20,240(fp)
 1003e54:	d9409b15 	stw	r5,620(sp)
 1003e58:	d9809c15 	stw	r6,624(sp)
 1003e5c:	35400117 	ldw	r21,4(r6)
 1003e60:	2c400117 	ldw	r17,4(r5)
 1003e64:	8009883a 	mov	r4,r16
 1003e68:	a00d883a 	mov	r6,r20
 1003e6c:	880b883a 	mov	r5,r17
 1003e70:	a80f883a 	mov	r7,r21
 1003e74:	1004e080 	call	1004e08 <__adddf3>
 1003e78:	100d883a 	mov	r6,r2
 1003e7c:	880b883a 	mov	r5,r17
 1003e80:	8009883a 	mov	r4,r16
 1003e84:	180f883a 	mov	r7,r3
 1003e88:	1025883a 	mov	r18,r2
 1003e8c:	1827883a 	mov	r19,r3
 1003e90:	1004d880 	call	1004d88 <__subdf3>
 1003e94:	180f883a 	mov	r7,r3
 1003e98:	a80b883a 	mov	r5,r21
 1003e9c:	a009883a 	mov	r4,r20
 1003ea0:	100d883a 	mov	r6,r2
 1003ea4:	1004e080 	call	1004e08 <__adddf3>
 1003ea8:	e0803c15 	stw	r2,240(fp)
 1003eac:	d9c09c17 	ldw	r7,624(sp)
 1003eb0:	38c00115 	stw	r3,4(r7)
 1003eb4:	da809a17 	ldw	r10,616(sp)
 1003eb8:	54803c15 	stw	r18,240(r10)
 1003ebc:	d8809b17 	ldw	r2,620(sp)
 1003ec0:	14c00115 	stw	r19,4(r2)
 1003ec4:	d8c08e17 	ldw	r3,568(sp)
 1003ec8:	183fd61e 	bne	r3,zero,1003e24 <__kernel_rem_pio2+0xa88>
 1003ecc:	d9008d17 	ldw	r4,564(sp)
 1003ed0:	00800044 	movi	r2,1
 1003ed4:	1100cc0e 	bge	r2,r4,1004208 <__kernel_rem_pio2+0xe6c>
 1003ed8:	d8808d17 	ldw	r2,564(sp)
 1003edc:	117fffc4 	addi	r5,r2,-1
 1003ee0:	100690fa 	slli	r3,r2,3
 1003ee4:	280490fa 	slli	r2,r5,3
 1003ee8:	d9408f15 	stw	r5,572(sp)
 1003eec:	1ef9883a 	add	fp,r3,sp
 1003ef0:	16c5883a 	add	r2,r2,sp
 1003ef4:	d8809d15 	stw	r2,628(sp)
 1003ef8:	11803c04 	addi	r6,r2,240
 1003efc:	e1c03c04 	addi	r7,fp,240
 1003f00:	14003c17 	ldw	r16,240(r2)
 1003f04:	e5003c17 	ldw	r20,240(fp)
 1003f08:	d9809e15 	stw	r6,632(sp)
 1003f0c:	d9c09f15 	stw	r7,636(sp)
 1003f10:	34400117 	ldw	r17,4(r6)
 1003f14:	3d400117 	ldw	r21,4(r7)
 1003f18:	8009883a 	mov	r4,r16
 1003f1c:	880b883a 	mov	r5,r17
 1003f20:	a00d883a 	mov	r6,r20
 1003f24:	a80f883a 	mov	r7,r21
 1003f28:	1004e080 	call	1004e08 <__adddf3>
 1003f2c:	100d883a 	mov	r6,r2
 1003f30:	880b883a 	mov	r5,r17
 1003f34:	8009883a 	mov	r4,r16
 1003f38:	180f883a 	mov	r7,r3
 1003f3c:	1025883a 	mov	r18,r2
 1003f40:	1827883a 	mov	r19,r3
 1003f44:	1004d880 	call	1004d88 <__subdf3>
 1003f48:	180f883a 	mov	r7,r3
 1003f4c:	a80b883a 	mov	r5,r21
 1003f50:	a009883a 	mov	r4,r20
 1003f54:	100d883a 	mov	r6,r2
 1003f58:	1004e080 	call	1004e08 <__adddf3>
 1003f5c:	e0803c15 	stw	r2,240(fp)
 1003f60:	da809f17 	ldw	r10,636(sp)
 1003f64:	50c00115 	stw	r3,4(r10)
 1003f68:	d8c09d17 	ldw	r3,628(sp)
 1003f6c:	d8808f17 	ldw	r2,572(sp)
 1003f70:	1c803c15 	stw	r18,240(r3)
 1003f74:	d9009e17 	ldw	r4,632(sp)
 1003f78:	00c00044 	movi	r3,1
 1003f7c:	24c00115 	stw	r19,4(r4)
 1003f80:	d9408f17 	ldw	r5,572(sp)
 1003f84:	28ffd51e 	bne	r5,r3,1003edc <__kernel_rem_pio2+0xb40>
 1003f88:	dc008d17 	ldw	r16,564(sp)
 1003f8c:	0011883a 	mov	r8,zero
 1003f90:	1825883a 	mov	r18,r3
 1003f94:	800490fa 	slli	r2,r16,3
 1003f98:	0013883a 	mov	r9,zero
 1003f9c:	16e3883a 	add	r17,r2,sp
 1003fa0:	88803c17 	ldw	r2,240(r17)
 1003fa4:	88c03d17 	ldw	r3,244(r17)
 1003fa8:	480b883a 	mov	r5,r9
 1003fac:	4009883a 	mov	r4,r8
 1003fb0:	180f883a 	mov	r7,r3
 1003fb4:	100d883a 	mov	r6,r2
 1003fb8:	1004e080 	call	1004e08 <__adddf3>
 1003fbc:	843fffc4 	addi	r16,r16,-1
 1003fc0:	8c7ffe04 	addi	r17,r17,-8
 1003fc4:	1011883a 	mov	r8,r2
 1003fc8:	1813883a 	mov	r9,r3
 1003fcc:	84bff41e 	bne	r16,r18,1003fa0 <__kernel_rem_pio2+0xc04>
 1003fd0:	d9809217 	ldw	r6,584(sp)
 1003fd4:	30007a1e 	bne	r6,zero,10041c0 <__kernel_rem_pio2+0xe24>
 1003fd8:	d9c09717 	ldw	r7,604(sp)
 1003fdc:	d8803c17 	ldw	r2,240(sp)
 1003fe0:	d9003e17 	ldw	r4,248(sp)
 1003fe4:	3a400515 	stw	r9,20(r7)
 1003fe8:	d8c03d17 	ldw	r3,244(sp)
 1003fec:	d9403f17 	ldw	r5,252(sp)
 1003ff0:	3a000415 	stw	r8,16(r7)
 1003ff4:	38c00115 	stw	r3,4(r7)
 1003ff8:	39400315 	stw	r5,12(r7)
 1003ffc:	38800015 	stw	r2,0(r7)
 1004000:	39000215 	stw	r4,8(r7)
 1004004:	003f2906 	br	1003cac <__kernel_rem_pio2+0x910>
 1004008:	183f281e 	bne	r3,zero,1003cac <__kernel_rem_pio2+0x910>
 100400c:	d9408d17 	ldw	r5,564(sp)
 1004010:	28008016 	blt	r5,zero,1004214 <__kernel_rem_pio2+0xe78>
 1004014:	dc008d17 	ldw	r16,564(sp)
 1004018:	000d883a 	mov	r6,zero
 100401c:	000f883a 	mov	r7,zero
 1004020:	800490fa 	slli	r2,r16,3
 1004024:	04bfffc4 	movi	r18,-1
 1004028:	16e3883a 	add	r17,r2,sp
 100402c:	88803c17 	ldw	r2,240(r17)
 1004030:	88c03d17 	ldw	r3,244(r17)
 1004034:	380b883a 	mov	r5,r7
 1004038:	3009883a 	mov	r4,r6
 100403c:	180f883a 	mov	r7,r3
 1004040:	100d883a 	mov	r6,r2
 1004044:	1004e080 	call	1004e08 <__adddf3>
 1004048:	843fffc4 	addi	r16,r16,-1
 100404c:	8c7ffe04 	addi	r17,r17,-8
 1004050:	100d883a 	mov	r6,r2
 1004054:	180f883a 	mov	r7,r3
 1004058:	84bff41e 	bne	r16,r18,100402c <__kernel_rem_pio2+0xc90>
 100405c:	da809217 	ldw	r10,584(sp)
 1004060:	50000226 	beq	r10,zero,100406c <__kernel_rem_pio2+0xcd0>
 1004064:	38e0003c 	xorhi	r3,r7,32768
 1004068:	180f883a 	mov	r7,r3
 100406c:	d8809717 	ldw	r2,604(sp)
 1004070:	11c00115 	stw	r7,4(r2)
 1004074:	11800015 	stw	r6,0(r2)
 1004078:	003f0c06 	br	1003cac <__kernel_rem_pio2+0x910>
 100407c:	d8008c15 	stw	zero,560(sp)
 1004080:	003ce406 	br	1003414 <__kernel_rem_pio2+0x78>
 1004084:	d9c09317 	ldw	r7,588(sp)
 1004088:	880b883a 	mov	r5,r17
 100408c:	8009883a 	mov	r4,r16
 1004090:	01cdc83a 	sub	r6,zero,r7
 1004094:	10047740 	call	1004774 <scalbn>
 1004098:	0011883a 	mov	r8,zero
 100409c:	02505c34 	movhi	r9,16752
 10040a0:	480f883a 	mov	r7,r9
 10040a4:	1009883a 	mov	r4,r2
 10040a8:	180b883a 	mov	r5,r3
 10040ac:	400d883a 	mov	r6,r8
 10040b0:	102d883a 	mov	r22,r2
 10040b4:	182f883a 	mov	r23,r3
 10040b8:	10055a80 	call	10055a8 <__gedf2>
 10040bc:	10003716 	blt	r2,zero,100419c <__kernel_rem_pio2+0xe00>
 10040c0:	0005883a 	mov	r2,zero
 10040c4:	00cf9c34 	movhi	r3,15984
 10040c8:	180f883a 	mov	r7,r3
 10040cc:	100d883a 	mov	r6,r2
 10040d0:	b009883a 	mov	r4,r22
 10040d4:	b80b883a 	mov	r5,r23
 10040d8:	1004e7c0 	call	1004e7c <__muldf3>
 10040dc:	180b883a 	mov	r5,r3
 10040e0:	1009883a 	mov	r4,r2
 10040e4:	10058380 	call	1005838 <__fixdfsi>
 10040e8:	1009883a 	mov	r4,r2
 10040ec:	10057400 	call	1005740 <__floatsidf>
 10040f0:	da808d17 	ldw	r10,564(sp)
 10040f4:	1023883a 	mov	r17,r2
 10040f8:	1825883a 	mov	r18,r3
 10040fc:	0005883a 	mov	r2,zero
 1004100:	00f05c34 	movhi	r3,49520
 1004104:	180f883a 	mov	r7,r3
 1004108:	8809883a 	mov	r4,r17
 100410c:	900b883a 	mov	r5,r18
 1004110:	100d883a 	mov	r6,r2
 1004114:	52ab883a 	add	r21,r10,r10
 1004118:	1004e7c0 	call	1004e7c <__muldf3>
 100411c:	180f883a 	mov	r7,r3
 1004120:	b80b883a 	mov	r5,r23
 1004124:	100d883a 	mov	r6,r2
 1004128:	b009883a 	mov	r4,r22
 100412c:	1004e080 	call	1004e08 <__adddf3>
 1004130:	100d883a 	mov	r6,r2
 1004134:	d8808d17 	ldw	r2,564(sp)
 1004138:	180b883a 	mov	r5,r3
 100413c:	3009883a 	mov	r4,r6
 1004140:	10800044 	addi	r2,r2,1
 1004144:	ad6b883a 	add	r21,r21,r21
 1004148:	d8808d15 	stw	r2,564(sp)
 100414c:	10058380 	call	1005838 <__fixdfsi>
 1004150:	d8c08d17 	ldw	r3,564(sp)
 1004154:	aeeb883a 	add	r21,r21,sp
 1004158:	8809883a 	mov	r4,r17
 100415c:	900b883a 	mov	r5,r18
 1004160:	a8800015 	stw	r2,0(r21)
 1004164:	18e1883a 	add	r16,r3,r3
 1004168:	10058380 	call	1005838 <__fixdfsi>
 100416c:	d9009317 	ldw	r4,588(sp)
 1004170:	8421883a 	add	r16,r16,r16
 1004174:	86e1883a 	add	r16,r16,sp
 1004178:	21000604 	addi	r4,r4,24
 100417c:	d9009315 	stw	r4,588(sp)
 1004180:	80800015 	stw	r2,0(r16)
 1004184:	003e3a06 	br	1003a70 <__kernel_rem_pio2+0x6d4>
 1004188:	4009883a 	mov	r4,r8
 100418c:	4960003c 	xorhi	r5,r9,32768
 1004190:	003ea406 	br	1003c24 <__kernel_rem_pio2+0x888>
 1004194:	d9808d15 	stw	r6,564(sp)
 1004198:	003e3506 	br	1003a70 <__kernel_rem_pio2+0x6d4>
 100419c:	d9408d17 	ldw	r5,564(sp)
 10041a0:	b009883a 	mov	r4,r22
 10041a4:	2961883a 	add	r16,r5,r5
 10041a8:	8421883a 	add	r16,r16,r16
 10041ac:	b80b883a 	mov	r5,r23
 10041b0:	86e1883a 	add	r16,r16,sp
 10041b4:	10058380 	call	1005838 <__fixdfsi>
 10041b8:	80800015 	stw	r2,0(r16)
 10041bc:	003e2c06 	br	1003a70 <__kernel_rem_pio2+0x6d4>
 10041c0:	d8c03d17 	ldw	r3,244(sp)
 10041c4:	d9403f17 	ldw	r5,252(sp)
 10041c8:	da809717 	ldw	r10,604(sp)
 10041cc:	d8803c17 	ldw	r2,240(sp)
 10041d0:	d9003e17 	ldw	r4,248(sp)
 10041d4:	49e0003c 	xorhi	r7,r9,32768
 10041d8:	51c00515 	stw	r7,20(r10)
 10041dc:	19a0003c 	xorhi	r6,r3,32768
 10041e0:	29e0003c 	xorhi	r7,r5,32768
 10041e4:	51800115 	stw	r6,4(r10)
 10041e8:	51c00315 	stw	r7,12(r10)
 10041ec:	50800015 	stw	r2,0(r10)
 10041f0:	51000215 	stw	r4,8(r10)
 10041f4:	52000415 	stw	r8,16(r10)
 10041f8:	003eac06 	br	1003cac <__kernel_rem_pio2+0x910>
 10041fc:	0011883a 	mov	r8,zero
 1004200:	0013883a 	mov	r9,zero
 1004204:	003e8306 	br	1003c14 <__kernel_rem_pio2+0x878>
 1004208:	0011883a 	mov	r8,zero
 100420c:	0013883a 	mov	r9,zero
 1004210:	003f6f06 	br	1003fd0 <__kernel_rem_pio2+0xc34>
 1004214:	000d883a 	mov	r6,zero
 1004218:	000f883a 	mov	r7,zero
 100421c:	003f8f06 	br	100405c <__kernel_rem_pio2+0xcc0>

01004220 <__kernel_sin>:
 1004220:	00a00034 	movhi	r2,32768
 1004224:	10bfffc4 	addi	r2,r2,-1
 1004228:	deffef04 	addi	sp,sp,-68
 100422c:	1144703a 	and	r2,r2,r5
 1004230:	00cf9034 	movhi	r3,15936
 1004234:	18ffffc4 	addi	r3,r3,-1
 1004238:	dd400d15 	stw	r21,52(sp)
 100423c:	dd000c15 	stw	r20,48(sp)
 1004240:	dfc01015 	stw	ra,64(sp)
 1004244:	ddc00f15 	stw	r23,60(sp)
 1004248:	dd800e15 	stw	r22,56(sp)
 100424c:	dcc00b15 	stw	r19,44(sp)
 1004250:	dc800a15 	stw	r18,40(sp)
 1004254:	dc400915 	stw	r17,36(sp)
 1004258:	dc000815 	stw	r16,32(sp)
 100425c:	2029883a 	mov	r20,r4
 1004260:	282b883a 	mov	r21,r5
 1004264:	d9800415 	stw	r6,16(sp)
 1004268:	d9c00515 	stw	r7,20(sp)
 100426c:	18800216 	blt	r3,r2,1004278 <__kernel_sin+0x58>
 1004270:	10058380 	call	1005838 <__fixdfsi>
 1004274:	10008826 	beq	r2,zero,1004498 <__kernel_sin+0x278>
 1004278:	a009883a 	mov	r4,r20
 100427c:	a80b883a 	mov	r5,r21
 1004280:	a00d883a 	mov	r6,r20
 1004284:	a80f883a 	mov	r7,r21
 1004288:	1004e7c0 	call	1004e7c <__muldf3>
 100428c:	102d883a 	mov	r22,r2
 1004290:	a009883a 	mov	r4,r20
 1004294:	a80b883a 	mov	r5,r21
 1004298:	b00d883a 	mov	r6,r22
 100429c:	180f883a 	mov	r7,r3
 10042a0:	182f883a 	mov	r23,r3
 10042a4:	d8800215 	stw	r2,8(sp)
 10042a8:	d8c00315 	stw	r3,12(sp)
 10042ac:	1004e7c0 	call	1004e7c <__muldf3>
 10042b0:	d9000217 	ldw	r4,8(sp)
 10042b4:	0216b434 	movhi	r8,23248
 10042b8:	42355f04 	addi	r8,r8,-10884
 10042bc:	024f79b4 	movhi	r9,15846
 10042c0:	4a764e84 	addi	r9,r9,-9926
 10042c4:	480f883a 	mov	r7,r9
 10042c8:	400d883a 	mov	r6,r8
 10042cc:	b80b883a 	mov	r5,r23
 10042d0:	d8800615 	stw	r2,24(sp)
 10042d4:	d8c00715 	stw	r3,28(sp)
 10042d8:	1004e7c0 	call	1004e7c <__muldf3>
 10042dc:	02228b34 	movhi	r8,35372
 10042e0:	42273ac4 	addi	r8,r8,-25365
 10042e4:	024f96f4 	movhi	r9,15963
 10042e8:	4a797984 	addi	r9,r9,-6682
 10042ec:	480f883a 	mov	r7,r9
 10042f0:	400d883a 	mov	r6,r8
 10042f4:	180b883a 	mov	r5,r3
 10042f8:	1009883a 	mov	r4,r2
 10042fc:	1004d880 	call	1004d88 <__subdf3>
 1004300:	d9000217 	ldw	r4,8(sp)
 1004304:	180f883a 	mov	r7,r3
 1004308:	b80b883a 	mov	r5,r23
 100430c:	100d883a 	mov	r6,r2
 1004310:	1004e7c0 	call	1004e7c <__muldf3>
 1004314:	0215ecb4 	movhi	r8,22450
 1004318:	423f9f44 	addi	r8,r8,-387
 100431c:	024fb1f4 	movhi	r9,16071
 1004320:	4a4778c4 	addi	r9,r9,7651
 1004324:	480f883a 	mov	r7,r9
 1004328:	400d883a 	mov	r6,r8
 100432c:	180b883a 	mov	r5,r3
 1004330:	1009883a 	mov	r4,r2
 1004334:	1004e080 	call	1004e08 <__adddf3>
 1004338:	d9000217 	ldw	r4,8(sp)
 100433c:	180f883a 	mov	r7,r3
 1004340:	b80b883a 	mov	r5,r23
 1004344:	100d883a 	mov	r6,r2
 1004348:	1004e7c0 	call	1004e7c <__muldf3>
 100434c:	02067074 	movhi	r8,6593
 1004350:	42187544 	addi	r8,r8,25045
 1004354:	024fcab4 	movhi	r9,16170
 1004358:	4a406804 	addi	r9,r9,416
 100435c:	480f883a 	mov	r7,r9
 1004360:	400d883a 	mov	r6,r8
 1004364:	180b883a 	mov	r5,r3
 1004368:	1009883a 	mov	r4,r2
 100436c:	1004d880 	call	1004d88 <__subdf3>
 1004370:	d9000217 	ldw	r4,8(sp)
 1004374:	180f883a 	mov	r7,r3
 1004378:	b80b883a 	mov	r5,r23
 100437c:	100d883a 	mov	r6,r2
 1004380:	1004e7c0 	call	1004e7c <__muldf3>
 1004384:	02044474 	movhi	r8,4369
 1004388:	423e2984 	addi	r8,r8,-1882
 100438c:	024fe074 	movhi	r9,16257
 1004390:	4a444444 	addi	r9,r9,4369
 1004394:	180b883a 	mov	r5,r3
 1004398:	480f883a 	mov	r7,r9
 100439c:	1009883a 	mov	r4,r2
 10043a0:	400d883a 	mov	r6,r8
 10043a4:	1004e080 	call	1004e08 <__adddf3>
 10043a8:	1021883a 	mov	r16,r2
 10043ac:	d8800617 	ldw	r2,24(sp)
 10043b0:	1823883a 	mov	r17,r3
 10043b4:	d8800015 	stw	r2,0(sp)
 10043b8:	d8800717 	ldw	r2,28(sp)
 10043bc:	d8800115 	stw	r2,4(sp)
 10043c0:	d8801117 	ldw	r2,68(sp)
 10043c4:	10004126 	beq	r2,zero,10044cc <__kernel_sin+0x2ac>
 10043c8:	d9000417 	ldw	r4,16(sp)
 10043cc:	d9400517 	ldw	r5,20(sp)
 10043d0:	0005883a 	mov	r2,zero
 10043d4:	00cff834 	movhi	r3,16352
 10043d8:	180f883a 	mov	r7,r3
 10043dc:	100d883a 	mov	r6,r2
 10043e0:	1004e7c0 	call	1004e7c <__muldf3>
 10043e4:	d9000017 	ldw	r4,0(sp)
 10043e8:	d9400717 	ldw	r5,28(sp)
 10043ec:	800d883a 	mov	r6,r16
 10043f0:	880f883a 	mov	r7,r17
 10043f4:	1021883a 	mov	r16,r2
 10043f8:	1823883a 	mov	r17,r3
 10043fc:	1004e7c0 	call	1004e7c <__muldf3>
 1004400:	180f883a 	mov	r7,r3
 1004404:	880b883a 	mov	r5,r17
 1004408:	8009883a 	mov	r4,r16
 100440c:	100d883a 	mov	r6,r2
 1004410:	1004d880 	call	1004d88 <__subdf3>
 1004414:	d9000217 	ldw	r4,8(sp)
 1004418:	b80b883a 	mov	r5,r23
 100441c:	180f883a 	mov	r7,r3
 1004420:	100d883a 	mov	r6,r2
 1004424:	1004e7c0 	call	1004e7c <__muldf3>
 1004428:	d9c00517 	ldw	r7,20(sp)
 100442c:	d9800417 	ldw	r6,16(sp)
 1004430:	180b883a 	mov	r5,r3
 1004434:	1009883a 	mov	r4,r2
 1004438:	1004d880 	call	1004d88 <__subdf3>
 100443c:	d9000017 	ldw	r4,0(sp)
 1004440:	d9400717 	ldw	r5,28(sp)
 1004444:	02155574 	movhi	r8,21845
 1004448:	42155244 	addi	r8,r8,21833
 100444c:	024ff174 	movhi	r9,16325
 1004450:	4a555544 	addi	r9,r9,21845
 1004454:	480f883a 	mov	r7,r9
 1004458:	400d883a 	mov	r6,r8
 100445c:	1021883a 	mov	r16,r2
 1004460:	1823883a 	mov	r17,r3
 1004464:	1004e7c0 	call	1004e7c <__muldf3>
 1004468:	180f883a 	mov	r7,r3
 100446c:	880b883a 	mov	r5,r17
 1004470:	8009883a 	mov	r4,r16
 1004474:	100d883a 	mov	r6,r2
 1004478:	1004e080 	call	1004e08 <__adddf3>
 100447c:	180f883a 	mov	r7,r3
 1004480:	a80b883a 	mov	r5,r21
 1004484:	a009883a 	mov	r4,r20
 1004488:	100d883a 	mov	r6,r2
 100448c:	1004d880 	call	1004d88 <__subdf3>
 1004490:	1029883a 	mov	r20,r2
 1004494:	182b883a 	mov	r21,r3
 1004498:	a005883a 	mov	r2,r20
 100449c:	a807883a 	mov	r3,r21
 10044a0:	dfc01017 	ldw	ra,64(sp)
 10044a4:	ddc00f17 	ldw	r23,60(sp)
 10044a8:	dd800e17 	ldw	r22,56(sp)
 10044ac:	dd400d17 	ldw	r21,52(sp)
 10044b0:	dd000c17 	ldw	r20,48(sp)
 10044b4:	dcc00b17 	ldw	r19,44(sp)
 10044b8:	dc800a17 	ldw	r18,40(sp)
 10044bc:	dc400917 	ldw	r17,36(sp)
 10044c0:	dc000817 	ldw	r16,32(sp)
 10044c4:	dec01104 	addi	sp,sp,68
 10044c8:	f800283a 	ret
 10044cc:	d9000217 	ldw	r4,8(sp)
 10044d0:	b80b883a 	mov	r5,r23
 10044d4:	800d883a 	mov	r6,r16
 10044d8:	180f883a 	mov	r7,r3
 10044dc:	1004e7c0 	call	1004e7c <__muldf3>
 10044e0:	02155574 	movhi	r8,21845
 10044e4:	42155244 	addi	r8,r8,21833
 10044e8:	024ff174 	movhi	r9,16325
 10044ec:	4a555544 	addi	r9,r9,21845
 10044f0:	480f883a 	mov	r7,r9
 10044f4:	400d883a 	mov	r6,r8
 10044f8:	180b883a 	mov	r5,r3
 10044fc:	1009883a 	mov	r4,r2
 1004500:	1004d880 	call	1004d88 <__subdf3>
 1004504:	d9000017 	ldw	r4,0(sp)
 1004508:	d9400717 	ldw	r5,28(sp)
 100450c:	180f883a 	mov	r7,r3
 1004510:	100d883a 	mov	r6,r2
 1004514:	1004e7c0 	call	1004e7c <__muldf3>
 1004518:	180f883a 	mov	r7,r3
 100451c:	a80b883a 	mov	r5,r21
 1004520:	a009883a 	mov	r4,r20
 1004524:	100d883a 	mov	r6,r2
 1004528:	1004e080 	call	1004e08 <__adddf3>
 100452c:	1029883a 	mov	r20,r2
 1004530:	182b883a 	mov	r21,r3
 1004534:	003fd806 	br	1004498 <__kernel_sin+0x278>

01004538 <fabs>:
 1004538:	01e00034 	movhi	r7,32768
 100453c:	39ffffc4 	addi	r7,r7,-1
 1004540:	394e703a 	and	r7,r7,r5
 1004544:	2005883a 	mov	r2,r4
 1004548:	3807883a 	mov	r3,r7
 100454c:	f800283a 	ret

01004550 <floor>:
 1004550:	2805d53a 	srai	r2,r5,20
 1004554:	defff604 	addi	sp,sp,-40
 1004558:	dd800615 	stw	r22,24(sp)
 100455c:	10c1ffcc 	andi	r3,r2,2047
 1004560:	1dbf0044 	addi	r22,r3,-1023
 1004564:	008004c4 	movi	r2,19
 1004568:	ddc00715 	stw	r23,28(sp)
 100456c:	dc800215 	stw	r18,8(sp)
 1004570:	dc400115 	stw	r17,4(sp)
 1004574:	dc000015 	stw	r16,0(sp)
 1004578:	dfc00915 	stw	ra,36(sp)
 100457c:	df000815 	stw	fp,32(sp)
 1004580:	dd400515 	stw	r21,20(sp)
 1004584:	dd000415 	stw	r20,16(sp)
 1004588:	dcc00315 	stw	r19,12(sp)
 100458c:	2021883a 	mov	r16,r4
 1004590:	2823883a 	mov	r17,r5
 1004594:	282f883a 	mov	r23,r5
 1004598:	2025883a 	mov	r18,r4
 100459c:	15802916 	blt	r2,r22,1004644 <floor+0xf4>
 10045a0:	b0004816 	blt	r22,zero,10046c4 <floor+0x174>
 10045a4:	00800434 	movhi	r2,16
 10045a8:	10bfffc4 	addi	r2,r2,-1
 10045ac:	15b9d83a 	sra	fp,r2,r22
 10045b0:	282f883a 	mov	r23,r5
 10045b4:	e144703a 	and	r2,fp,r5
 10045b8:	1104b03a 	or	r2,r2,r4
 10045bc:	10001326 	beq	r2,zero,100460c <floor+0xbc>
 10045c0:	00a20034 	movhi	r2,34816
 10045c4:	109d6704 	addi	r2,r2,30108
 10045c8:	00df8e34 	movhi	r3,32312
 10045cc:	18f90f04 	addi	r3,r3,-7108
 10045d0:	180f883a 	mov	r7,r3
 10045d4:	100d883a 	mov	r6,r2
 10045d8:	1004e080 	call	1004e08 <__adddf3>
 10045dc:	180b883a 	mov	r5,r3
 10045e0:	000d883a 	mov	r6,zero
 10045e4:	000f883a 	mov	r7,zero
 10045e8:	1009883a 	mov	r4,r2
 10045ec:	10055200 	call	1005520 <__gtdf2>
 10045f0:	0080040e 	bge	zero,r2,1004604 <floor+0xb4>
 10045f4:	88004416 	blt	r17,zero,1004708 <floor+0x1b8>
 10045f8:	0704303a 	nor	r2,zero,fp
 10045fc:	b8ae703a 	and	r23,r23,r2
 1004600:	0025883a 	mov	r18,zero
 1004604:	9021883a 	mov	r16,r18
 1004608:	b823883a 	mov	r17,r23
 100460c:	8005883a 	mov	r2,r16
 1004610:	8807883a 	mov	r3,r17
 1004614:	dfc00917 	ldw	ra,36(sp)
 1004618:	df000817 	ldw	fp,32(sp)
 100461c:	ddc00717 	ldw	r23,28(sp)
 1004620:	dd800617 	ldw	r22,24(sp)
 1004624:	dd400517 	ldw	r21,20(sp)
 1004628:	dd000417 	ldw	r20,16(sp)
 100462c:	dcc00317 	ldw	r19,12(sp)
 1004630:	dc800217 	ldw	r18,8(sp)
 1004634:	dc400117 	ldw	r17,4(sp)
 1004638:	dc000017 	ldw	r16,0(sp)
 100463c:	dec00a04 	addi	sp,sp,40
 1004640:	f800283a 	ret
 1004644:	00800cc4 	movi	r2,51
 1004648:	15801616 	blt	r2,r22,10046a4 <floor+0x154>
 100464c:	18befb44 	addi	r2,r3,-1043
 1004650:	00ffffc4 	movi	r3,-1
 1004654:	18b8d83a 	srl	fp,r3,r2
 1004658:	e104703a 	and	r2,fp,r4
 100465c:	103feb26 	beq	r2,zero,100460c <floor+0xbc>
 1004660:	00a20034 	movhi	r2,34816
 1004664:	109d6704 	addi	r2,r2,30108
 1004668:	00df8e34 	movhi	r3,32312
 100466c:	18f90f04 	addi	r3,r3,-7108
 1004670:	180f883a 	mov	r7,r3
 1004674:	100d883a 	mov	r6,r2
 1004678:	1004e080 	call	1004e08 <__adddf3>
 100467c:	180b883a 	mov	r5,r3
 1004680:	000d883a 	mov	r6,zero
 1004684:	000f883a 	mov	r7,zero
 1004688:	1009883a 	mov	r4,r2
 100468c:	10055200 	call	1005520 <__gtdf2>
 1004690:	0080210e 	bge	zero,r2,1004718 <floor+0x1c8>
 1004694:	88002216 	blt	r17,zero,1004720 <floor+0x1d0>
 1004698:	0704303a 	nor	r2,zero,fp
 100469c:	90a4703a 	and	r18,r18,r2
 10046a0:	003fd806 	br	1004604 <floor+0xb4>
 10046a4:	00810004 	movi	r2,1024
 10046a8:	b0bfd81e 	bne	r22,r2,100460c <floor+0xbc>
 10046ac:	800d883a 	mov	r6,r16
 10046b0:	280f883a 	mov	r7,r5
 10046b4:	1004e080 	call	1004e08 <__adddf3>
 10046b8:	1021883a 	mov	r16,r2
 10046bc:	1823883a 	mov	r17,r3
 10046c0:	003fd206 	br	100460c <floor+0xbc>
 10046c4:	00a20034 	movhi	r2,34816
 10046c8:	109d6704 	addi	r2,r2,30108
 10046cc:	00df8e34 	movhi	r3,32312
 10046d0:	18f90f04 	addi	r3,r3,-7108
 10046d4:	180f883a 	mov	r7,r3
 10046d8:	100d883a 	mov	r6,r2
 10046dc:	1004e080 	call	1004e08 <__adddf3>
 10046e0:	180b883a 	mov	r5,r3
 10046e4:	000d883a 	mov	r6,zero
 10046e8:	000f883a 	mov	r7,zero
 10046ec:	1009883a 	mov	r4,r2
 10046f0:	10055200 	call	1005520 <__gtdf2>
 10046f4:	00bfc30e 	bge	zero,r2,1004604 <floor+0xb4>
 10046f8:	88001416 	blt	r17,zero,100474c <floor+0x1fc>
 10046fc:	002f883a 	mov	r23,zero
 1004700:	0025883a 	mov	r18,zero
 1004704:	003fbf06 	br	1004604 <floor+0xb4>
 1004708:	00800434 	movhi	r2,16
 100470c:	1585d83a 	sra	r2,r2,r22
 1004710:	88af883a 	add	r23,r17,r2
 1004714:	003fb806 	br	10045f8 <floor+0xa8>
 1004718:	882f883a 	mov	r23,r17
 100471c:	003fb906 	br	1004604 <floor+0xb4>
 1004720:	00800504 	movi	r2,20
 1004724:	b0801126 	beq	r22,r2,100476c <floor+0x21c>
 1004728:	00c00d04 	movi	r3,52
 100472c:	1d87c83a 	sub	r3,r3,r22
 1004730:	00800044 	movi	r2,1
 1004734:	10c4983a 	sll	r2,r2,r3
 1004738:	8085883a 	add	r2,r16,r2
 100473c:	1400012e 	bgeu	r2,r16,1004744 <floor+0x1f4>
 1004740:	8dc00044 	addi	r23,r17,1
 1004744:	1025883a 	mov	r18,r2
 1004748:	003fd306 	br	1004698 <floor+0x148>
 100474c:	00a00034 	movhi	r2,32768
 1004750:	10bfffc4 	addi	r2,r2,-1
 1004754:	8884703a 	and	r2,r17,r2
 1004758:	8084b03a 	or	r2,r16,r2
 100475c:	103fee26 	beq	r2,zero,1004718 <floor+0x1c8>
 1004760:	05effc34 	movhi	r23,49136
 1004764:	0025883a 	mov	r18,zero
 1004768:	003fa606 	br	1004604 <floor+0xb4>
 100476c:	8dc00044 	addi	r23,r17,1
 1004770:	003fc906 	br	1004698 <floor+0x148>

01004774 <scalbn>:
 1004774:	2011883a 	mov	r8,r4
 1004778:	291ffc2c 	andhi	r4,r5,32752
 100477c:	2009d53a 	srai	r4,r4,20
 1004780:	defffd04 	addi	sp,sp,-12
 1004784:	dc000015 	stw	r16,0(sp)
 1004788:	dfc00215 	stw	ra,8(sp)
 100478c:	dc400115 	stw	r17,4(sp)
 1004790:	2813883a 	mov	r9,r5
 1004794:	2815883a 	mov	r10,r5
 1004798:	3021883a 	mov	r16,r6
 100479c:	2000281e 	bne	r4,zero,1004840 <scalbn+0xcc>
 10047a0:	00a00034 	movhi	r2,32768
 10047a4:	10bfffc4 	addi	r2,r2,-1
 10047a8:	2884703a 	and	r2,r5,r2
 10047ac:	4084b03a 	or	r2,r8,r2
 10047b0:	10001826 	beq	r2,zero,1004814 <scalbn+0xa0>
 10047b4:	0005883a 	mov	r2,zero
 10047b8:	00d0d434 	movhi	r3,17232
 10047bc:	4009883a 	mov	r4,r8
 10047c0:	100d883a 	mov	r6,r2
 10047c4:	180f883a 	mov	r7,r3
 10047c8:	1004e7c0 	call	1004e7c <__muldf3>
 10047cc:	100b883a 	mov	r5,r2
 10047d0:	1011883a 	mov	r8,r2
 10047d4:	00bffff4 	movhi	r2,65535
 10047d8:	108f2c04 	addi	r2,r2,15536
 10047dc:	180d883a 	mov	r6,r3
 10047e0:	1813883a 	mov	r9,r3
 10047e4:	8080120e 	bge	r16,r2,1004830 <scalbn+0xbc>
 10047e8:	00b0be74 	movhi	r2,49913
 10047ec:	10bcd644 	addi	r2,r2,-3239
 10047f0:	00c06974 	movhi	r3,421
 10047f4:	18db87c4 	addi	r3,r3,28191
 10047f8:	2809883a 	mov	r4,r5
 10047fc:	180f883a 	mov	r7,r3
 1004800:	300b883a 	mov	r5,r6
 1004804:	100d883a 	mov	r6,r2
 1004808:	1004e7c0 	call	1004e7c <__muldf3>
 100480c:	1011883a 	mov	r8,r2
 1004810:	1813883a 	mov	r9,r3
 1004814:	4005883a 	mov	r2,r8
 1004818:	4807883a 	mov	r3,r9
 100481c:	dfc00217 	ldw	ra,8(sp)
 1004820:	dc400117 	ldw	r17,4(sp)
 1004824:	dc000017 	ldw	r16,0(sp)
 1004828:	dec00304 	addi	sp,sp,12
 100482c:	f800283a 	ret
 1004830:	189ffc2c 	andhi	r2,r3,32752
 1004834:	1005d53a 	srai	r2,r2,20
 1004838:	1815883a 	mov	r10,r3
 100483c:	113ff284 	addi	r4,r2,-54
 1004840:	0081ffc4 	movi	r2,2047
 1004844:	20801126 	beq	r4,r2,100488c <scalbn+0x118>
 1004848:	2409883a 	add	r4,r4,r16
 100484c:	0081ff84 	movi	r2,2046
 1004850:	11001c16 	blt	r2,r4,10048c4 <scalbn+0x150>
 1004854:	0100290e 	bge	zero,r4,10048fc <scalbn+0x188>
 1004858:	200a953a 	slli	r5,r4,20
 100485c:	01200434 	movhi	r4,32784
 1004860:	213fffc4 	addi	r4,r4,-1
 1004864:	5108703a 	and	r4,r10,r4
 1004868:	2148b03a 	or	r4,r4,r5
 100486c:	2013883a 	mov	r9,r4
 1004870:	4005883a 	mov	r2,r8
 1004874:	4807883a 	mov	r3,r9
 1004878:	dfc00217 	ldw	ra,8(sp)
 100487c:	dc400117 	ldw	r17,4(sp)
 1004880:	dc000017 	ldw	r16,0(sp)
 1004884:	dec00304 	addi	sp,sp,12
 1004888:	f800283a 	ret
 100488c:	480f883a 	mov	r7,r9
 1004890:	4009883a 	mov	r4,r8
 1004894:	480b883a 	mov	r5,r9
 1004898:	400d883a 	mov	r6,r8
 100489c:	1004e080 	call	1004e08 <__adddf3>
 10048a0:	1011883a 	mov	r8,r2
 10048a4:	1813883a 	mov	r9,r3
 10048a8:	4005883a 	mov	r2,r8
 10048ac:	4807883a 	mov	r3,r9
 10048b0:	dfc00217 	ldw	ra,8(sp)
 10048b4:	dc400117 	ldw	r17,4(sp)
 10048b8:	dc000017 	ldw	r16,0(sp)
 10048bc:	dec00304 	addi	sp,sp,12
 10048c0:	f800283a 	ret
 10048c4:	04220034 	movhi	r16,34816
 10048c8:	841d6704 	addi	r16,r16,30108
 10048cc:	045f8e34 	movhi	r17,32312
 10048d0:	8c790f04 	addi	r17,r17,-7108
 10048d4:	480f883a 	mov	r7,r9
 10048d8:	400d883a 	mov	r6,r8
 10048dc:	8009883a 	mov	r4,r16
 10048e0:	880b883a 	mov	r5,r17
 10048e4:	10049540 	call	1004954 <copysign>
 10048e8:	180b883a 	mov	r5,r3
 10048ec:	800d883a 	mov	r6,r16
 10048f0:	880f883a 	mov	r7,r17
 10048f4:	1009883a 	mov	r4,r2
 10048f8:	003fc306 	br	1004808 <scalbn+0x94>
 10048fc:	00bff284 	movi	r2,-54
 1004900:	11000716 	blt	r2,r4,1004920 <scalbn+0x1ac>
 1004904:	00b0d414 	movui	r2,50000
 1004908:	143fee16 	blt	r2,r16,10048c4 <scalbn+0x150>
 100490c:	0430be74 	movhi	r16,49913
 1004910:	843cd644 	addi	r16,r16,-3239
 1004914:	04406974 	movhi	r17,421
 1004918:	8c5b87c4 	addi	r17,r17,28191
 100491c:	003fed06 	br	10048d4 <scalbn+0x160>
 1004920:	21000d84 	addi	r4,r4,54
 1004924:	2008953a 	slli	r4,r4,20
 1004928:	01e00434 	movhi	r7,32784
 100492c:	39ffffc4 	addi	r7,r7,-1
 1004930:	51ce703a 	and	r7,r10,r7
 1004934:	390eb03a 	or	r7,r7,r4
 1004938:	024f2434 	movhi	r9,15504
 100493c:	4009883a 	mov	r4,r8
 1004940:	0011883a 	mov	r8,zero
 1004944:	380b883a 	mov	r5,r7
 1004948:	400d883a 	mov	r6,r8
 100494c:	480f883a 	mov	r7,r9
 1004950:	003fad06 	br	1004808 <scalbn+0x94>

01004954 <copysign>:
 1004954:	3813883a 	mov	r9,r7
 1004958:	01e00034 	movhi	r7,32768
 100495c:	39ffffc4 	addi	r7,r7,-1
 1004960:	394e703a 	and	r7,r7,r5
 1004964:	4aa0002c 	andhi	r10,r9,32768
 1004968:	3a8eb03a 	or	r7,r7,r10
 100496c:	2005883a 	mov	r2,r4
 1004970:	3807883a 	mov	r3,r7
 1004974:	f800283a 	ret

01004978 <_fpadd_parts>:
 1004978:	defff804 	addi	sp,sp,-32
 100497c:	dcc00315 	stw	r19,12(sp)
 1004980:	2027883a 	mov	r19,r4
 1004984:	21000017 	ldw	r4,0(r4)
 1004988:	00c00044 	movi	r3,1
 100498c:	dd400515 	stw	r21,20(sp)
 1004990:	dd000415 	stw	r20,16(sp)
 1004994:	ddc00715 	stw	r23,28(sp)
 1004998:	dd800615 	stw	r22,24(sp)
 100499c:	dc800215 	stw	r18,8(sp)
 10049a0:	dc400115 	stw	r17,4(sp)
 10049a4:	dc000015 	stw	r16,0(sp)
 10049a8:	282b883a 	mov	r21,r5
 10049ac:	3029883a 	mov	r20,r6
 10049b0:	1900632e 	bgeu	r3,r4,1004b40 <_fpadd_parts+0x1c8>
 10049b4:	28800017 	ldw	r2,0(r5)
 10049b8:	1880812e 	bgeu	r3,r2,1004bc0 <_fpadd_parts+0x248>
 10049bc:	00c00104 	movi	r3,4
 10049c0:	20c0dc26 	beq	r4,r3,1004d34 <_fpadd_parts+0x3bc>
 10049c4:	10c07e26 	beq	r2,r3,1004bc0 <_fpadd_parts+0x248>
 10049c8:	00c00084 	movi	r3,2
 10049cc:	10c06726 	beq	r2,r3,1004b6c <_fpadd_parts+0x1f4>
 10049d0:	20c07b26 	beq	r4,r3,1004bc0 <_fpadd_parts+0x248>
 10049d4:	9dc00217 	ldw	r23,8(r19)
 10049d8:	28c00217 	ldw	r3,8(r5)
 10049dc:	9c400317 	ldw	r17,12(r19)
 10049e0:	2bc00317 	ldw	r15,12(r5)
 10049e4:	b8cdc83a 	sub	r6,r23,r3
 10049e8:	9c800417 	ldw	r18,16(r19)
 10049ec:	2c000417 	ldw	r16,16(r5)
 10049f0:	3009883a 	mov	r4,r6
 10049f4:	30009716 	blt	r6,zero,1004c54 <_fpadd_parts+0x2dc>
 10049f8:	00800fc4 	movi	r2,63
 10049fc:	11806b16 	blt	r2,r6,1004bac <_fpadd_parts+0x234>
 1004a00:	0100a40e 	bge	zero,r4,1004c94 <_fpadd_parts+0x31c>
 1004a04:	35bff804 	addi	r22,r6,-32
 1004a08:	b000bc16 	blt	r22,zero,1004cfc <_fpadd_parts+0x384>
 1004a0c:	8596d83a 	srl	r11,r16,r22
 1004a10:	0019883a 	mov	r12,zero
 1004a14:	0013883a 	mov	r9,zero
 1004a18:	01000044 	movi	r4,1
 1004a1c:	0015883a 	mov	r10,zero
 1004a20:	b000be16 	blt	r22,zero,1004d1c <_fpadd_parts+0x3a4>
 1004a24:	2590983a 	sll	r8,r4,r22
 1004a28:	000f883a 	mov	r7,zero
 1004a2c:	00bfffc4 	movi	r2,-1
 1004a30:	3889883a 	add	r4,r7,r2
 1004a34:	408b883a 	add	r5,r8,r2
 1004a38:	21cd803a 	cmpltu	r6,r4,r7
 1004a3c:	314b883a 	add	r5,r6,r5
 1004a40:	7904703a 	and	r2,r15,r4
 1004a44:	8146703a 	and	r3,r16,r5
 1004a48:	10c4b03a 	or	r2,r2,r3
 1004a4c:	10000226 	beq	r2,zero,1004a58 <_fpadd_parts+0xe0>
 1004a50:	02400044 	movi	r9,1
 1004a54:	0015883a 	mov	r10,zero
 1004a58:	5a5eb03a 	or	r15,r11,r9
 1004a5c:	62a0b03a 	or	r16,r12,r10
 1004a60:	99400117 	ldw	r5,4(r19)
 1004a64:	a8800117 	ldw	r2,4(r21)
 1004a68:	28806e26 	beq	r5,r2,1004c24 <_fpadd_parts+0x2ac>
 1004a6c:	28006626 	beq	r5,zero,1004c08 <_fpadd_parts+0x290>
 1004a70:	7c45c83a 	sub	r2,r15,r17
 1004a74:	7889803a 	cmpltu	r4,r15,r2
 1004a78:	8487c83a 	sub	r3,r16,r18
 1004a7c:	1909c83a 	sub	r4,r3,r4
 1004a80:	100d883a 	mov	r6,r2
 1004a84:	200f883a 	mov	r7,r4
 1004a88:	38007716 	blt	r7,zero,1004c68 <_fpadd_parts+0x2f0>
 1004a8c:	a5c00215 	stw	r23,8(r20)
 1004a90:	a1c00415 	stw	r7,16(r20)
 1004a94:	a0000115 	stw	zero,4(r20)
 1004a98:	a1800315 	stw	r6,12(r20)
 1004a9c:	a2000317 	ldw	r8,12(r20)
 1004aa0:	a2400417 	ldw	r9,16(r20)
 1004aa4:	00bfffc4 	movi	r2,-1
 1004aa8:	408b883a 	add	r5,r8,r2
 1004aac:	2a09803a 	cmpltu	r4,r5,r8
 1004ab0:	488d883a 	add	r6,r9,r2
 1004ab4:	01c40034 	movhi	r7,4096
 1004ab8:	39ffffc4 	addi	r7,r7,-1
 1004abc:	218d883a 	add	r6,r4,r6
 1004ac0:	39801736 	bltu	r7,r6,1004b20 <_fpadd_parts+0x1a8>
 1004ac4:	31c06526 	beq	r6,r7,1004c5c <_fpadd_parts+0x2e4>
 1004ac8:	a3000217 	ldw	r12,8(r20)
 1004acc:	4209883a 	add	r4,r8,r8
 1004ad0:	00bfffc4 	movi	r2,-1
 1004ad4:	220f803a 	cmpltu	r7,r4,r8
 1004ad8:	4a4b883a 	add	r5,r9,r9
 1004adc:	394f883a 	add	r7,r7,r5
 1004ae0:	2095883a 	add	r10,r4,r2
 1004ae4:	3897883a 	add	r11,r7,r2
 1004ae8:	510d803a 	cmpltu	r6,r10,r4
 1004aec:	6099883a 	add	r12,r12,r2
 1004af0:	32d7883a 	add	r11,r6,r11
 1004af4:	00840034 	movhi	r2,4096
 1004af8:	10bfffc4 	addi	r2,r2,-1
 1004afc:	2011883a 	mov	r8,r4
 1004b00:	3813883a 	mov	r9,r7
 1004b04:	a1000315 	stw	r4,12(r20)
 1004b08:	a1c00415 	stw	r7,16(r20)
 1004b0c:	a3000215 	stw	r12,8(r20)
 1004b10:	12c00336 	bltu	r2,r11,1004b20 <_fpadd_parts+0x1a8>
 1004b14:	58bfed1e 	bne	r11,r2,1004acc <_fpadd_parts+0x154>
 1004b18:	00bfff84 	movi	r2,-2
 1004b1c:	12bfeb2e 	bgeu	r2,r10,1004acc <_fpadd_parts+0x154>
 1004b20:	a2800417 	ldw	r10,16(r20)
 1004b24:	008000c4 	movi	r2,3
 1004b28:	00c80034 	movhi	r3,8192
 1004b2c:	18ffffc4 	addi	r3,r3,-1
 1004b30:	a2400317 	ldw	r9,12(r20)
 1004b34:	a0800015 	stw	r2,0(r20)
 1004b38:	1a802336 	bltu	r3,r10,1004bc8 <_fpadd_parts+0x250>
 1004b3c:	a027883a 	mov	r19,r20
 1004b40:	9805883a 	mov	r2,r19
 1004b44:	ddc00717 	ldw	r23,28(sp)
 1004b48:	dd800617 	ldw	r22,24(sp)
 1004b4c:	dd400517 	ldw	r21,20(sp)
 1004b50:	dd000417 	ldw	r20,16(sp)
 1004b54:	dcc00317 	ldw	r19,12(sp)
 1004b58:	dc800217 	ldw	r18,8(sp)
 1004b5c:	dc400117 	ldw	r17,4(sp)
 1004b60:	dc000017 	ldw	r16,0(sp)
 1004b64:	dec00804 	addi	sp,sp,32
 1004b68:	f800283a 	ret
 1004b6c:	20fff41e 	bne	r4,r3,1004b40 <_fpadd_parts+0x1c8>
 1004b70:	31000015 	stw	r4,0(r6)
 1004b74:	98800117 	ldw	r2,4(r19)
 1004b78:	30800115 	stw	r2,4(r6)
 1004b7c:	98c00217 	ldw	r3,8(r19)
 1004b80:	30c00215 	stw	r3,8(r6)
 1004b84:	98800317 	ldw	r2,12(r19)
 1004b88:	30800315 	stw	r2,12(r6)
 1004b8c:	98c00417 	ldw	r3,16(r19)
 1004b90:	30c00415 	stw	r3,16(r6)
 1004b94:	98800117 	ldw	r2,4(r19)
 1004b98:	28c00117 	ldw	r3,4(r5)
 1004b9c:	3027883a 	mov	r19,r6
 1004ba0:	10c4703a 	and	r2,r2,r3
 1004ba4:	30800115 	stw	r2,4(r6)
 1004ba8:	003fe506 	br	1004b40 <_fpadd_parts+0x1c8>
 1004bac:	1dc02616 	blt	r3,r23,1004c48 <_fpadd_parts+0x2d0>
 1004bb0:	0023883a 	mov	r17,zero
 1004bb4:	182f883a 	mov	r23,r3
 1004bb8:	0025883a 	mov	r18,zero
 1004bbc:	003fa806 	br	1004a60 <_fpadd_parts+0xe8>
 1004bc0:	a827883a 	mov	r19,r21
 1004bc4:	003fde06 	br	1004b40 <_fpadd_parts+0x1c8>
 1004bc8:	01800044 	movi	r6,1
 1004bcc:	500497fa 	slli	r2,r10,31
 1004bd0:	4808d07a 	srli	r4,r9,1
 1004bd4:	518ad83a 	srl	r5,r10,r6
 1004bd8:	a2000217 	ldw	r8,8(r20)
 1004bdc:	1108b03a 	or	r4,r2,r4
 1004be0:	0007883a 	mov	r3,zero
 1004be4:	4984703a 	and	r2,r9,r6
 1004be8:	208cb03a 	or	r6,r4,r2
 1004bec:	28ceb03a 	or	r7,r5,r3
 1004bf0:	42000044 	addi	r8,r8,1
 1004bf4:	a027883a 	mov	r19,r20
 1004bf8:	a1c00415 	stw	r7,16(r20)
 1004bfc:	a2000215 	stw	r8,8(r20)
 1004c00:	a1800315 	stw	r6,12(r20)
 1004c04:	003fce06 	br	1004b40 <_fpadd_parts+0x1c8>
 1004c08:	8bc5c83a 	sub	r2,r17,r15
 1004c0c:	8889803a 	cmpltu	r4,r17,r2
 1004c10:	9407c83a 	sub	r3,r18,r16
 1004c14:	1909c83a 	sub	r4,r3,r4
 1004c18:	100d883a 	mov	r6,r2
 1004c1c:	200f883a 	mov	r7,r4
 1004c20:	003f9906 	br	1004a88 <_fpadd_parts+0x110>
 1004c24:	7c45883a 	add	r2,r15,r17
 1004c28:	13c9803a 	cmpltu	r4,r2,r15
 1004c2c:	8487883a 	add	r3,r16,r18
 1004c30:	20c9883a 	add	r4,r4,r3
 1004c34:	a1400115 	stw	r5,4(r20)
 1004c38:	a5c00215 	stw	r23,8(r20)
 1004c3c:	a0800315 	stw	r2,12(r20)
 1004c40:	a1000415 	stw	r4,16(r20)
 1004c44:	003fb606 	br	1004b20 <_fpadd_parts+0x1a8>
 1004c48:	001f883a 	mov	r15,zero
 1004c4c:	0021883a 	mov	r16,zero
 1004c50:	003f8306 	br	1004a60 <_fpadd_parts+0xe8>
 1004c54:	018dc83a 	sub	r6,zero,r6
 1004c58:	003f6706 	br	10049f8 <_fpadd_parts+0x80>
 1004c5c:	00bfff84 	movi	r2,-2
 1004c60:	117faf36 	bltu	r2,r5,1004b20 <_fpadd_parts+0x1a8>
 1004c64:	003f9806 	br	1004ac8 <_fpadd_parts+0x150>
 1004c68:	0005883a 	mov	r2,zero
 1004c6c:	1189c83a 	sub	r4,r2,r6
 1004c70:	1105803a 	cmpltu	r2,r2,r4
 1004c74:	01cbc83a 	sub	r5,zero,r7
 1004c78:	2885c83a 	sub	r2,r5,r2
 1004c7c:	01800044 	movi	r6,1
 1004c80:	a1800115 	stw	r6,4(r20)
 1004c84:	a5c00215 	stw	r23,8(r20)
 1004c88:	a1000315 	stw	r4,12(r20)
 1004c8c:	a0800415 	stw	r2,16(r20)
 1004c90:	003f8206 	br	1004a9c <_fpadd_parts+0x124>
 1004c94:	203f7226 	beq	r4,zero,1004a60 <_fpadd_parts+0xe8>
 1004c98:	35bff804 	addi	r22,r6,-32
 1004c9c:	b9af883a 	add	r23,r23,r6
 1004ca0:	b0003116 	blt	r22,zero,1004d68 <_fpadd_parts+0x3f0>
 1004ca4:	959ad83a 	srl	r13,r18,r22
 1004ca8:	001d883a 	mov	r14,zero
 1004cac:	000f883a 	mov	r7,zero
 1004cb0:	01000044 	movi	r4,1
 1004cb4:	0011883a 	mov	r8,zero
 1004cb8:	b0002516 	blt	r22,zero,1004d50 <_fpadd_parts+0x3d8>
 1004cbc:	2594983a 	sll	r10,r4,r22
 1004cc0:	0013883a 	mov	r9,zero
 1004cc4:	00bfffc4 	movi	r2,-1
 1004cc8:	4889883a 	add	r4,r9,r2
 1004ccc:	508b883a 	add	r5,r10,r2
 1004cd0:	224d803a 	cmpltu	r6,r4,r9
 1004cd4:	314b883a 	add	r5,r6,r5
 1004cd8:	8904703a 	and	r2,r17,r4
 1004cdc:	9146703a 	and	r3,r18,r5
 1004ce0:	10c4b03a 	or	r2,r2,r3
 1004ce4:	10000226 	beq	r2,zero,1004cf0 <_fpadd_parts+0x378>
 1004ce8:	01c00044 	movi	r7,1
 1004cec:	0011883a 	mov	r8,zero
 1004cf0:	69e2b03a 	or	r17,r13,r7
 1004cf4:	7224b03a 	or	r18,r14,r8
 1004cf8:	003f5906 	br	1004a60 <_fpadd_parts+0xe8>
 1004cfc:	8407883a 	add	r3,r16,r16
 1004d00:	008007c4 	movi	r2,31
 1004d04:	1185c83a 	sub	r2,r2,r6
 1004d08:	1886983a 	sll	r3,r3,r2
 1004d0c:	7996d83a 	srl	r11,r15,r6
 1004d10:	8198d83a 	srl	r12,r16,r6
 1004d14:	1ad6b03a 	or	r11,r3,r11
 1004d18:	003f3e06 	br	1004a14 <_fpadd_parts+0x9c>
 1004d1c:	2006d07a 	srli	r3,r4,1
 1004d20:	008007c4 	movi	r2,31
 1004d24:	1185c83a 	sub	r2,r2,r6
 1004d28:	1890d83a 	srl	r8,r3,r2
 1004d2c:	218e983a 	sll	r7,r4,r6
 1004d30:	003f3e06 	br	1004a2c <_fpadd_parts+0xb4>
 1004d34:	113f821e 	bne	r2,r4,1004b40 <_fpadd_parts+0x1c8>
 1004d38:	28c00117 	ldw	r3,4(r5)
 1004d3c:	98800117 	ldw	r2,4(r19)
 1004d40:	10ff7f26 	beq	r2,r3,1004b40 <_fpadd_parts+0x1c8>
 1004d44:	04c04134 	movhi	r19,260
 1004d48:	9cd9ba04 	addi	r19,r19,26344
 1004d4c:	003f7c06 	br	1004b40 <_fpadd_parts+0x1c8>
 1004d50:	2006d07a 	srli	r3,r4,1
 1004d54:	008007c4 	movi	r2,31
 1004d58:	1185c83a 	sub	r2,r2,r6
 1004d5c:	1894d83a 	srl	r10,r3,r2
 1004d60:	2192983a 	sll	r9,r4,r6
 1004d64:	003fd706 	br	1004cc4 <_fpadd_parts+0x34c>
 1004d68:	9487883a 	add	r3,r18,r18
 1004d6c:	008007c4 	movi	r2,31
 1004d70:	1185c83a 	sub	r2,r2,r6
 1004d74:	1886983a 	sll	r3,r3,r2
 1004d78:	899ad83a 	srl	r13,r17,r6
 1004d7c:	919cd83a 	srl	r14,r18,r6
 1004d80:	1b5ab03a 	or	r13,r3,r13
 1004d84:	003fc906 	br	1004cac <_fpadd_parts+0x334>

01004d88 <__subdf3>:
 1004d88:	deffea04 	addi	sp,sp,-88
 1004d8c:	dcc01415 	stw	r19,80(sp)
 1004d90:	dcc00404 	addi	r19,sp,16
 1004d94:	2011883a 	mov	r8,r4
 1004d98:	2813883a 	mov	r9,r5
 1004d9c:	dc401315 	stw	r17,76(sp)
 1004da0:	d809883a 	mov	r4,sp
 1004da4:	980b883a 	mov	r5,r19
 1004da8:	dc400904 	addi	r17,sp,36
 1004dac:	dfc01515 	stw	ra,84(sp)
 1004db0:	da400115 	stw	r9,4(sp)
 1004db4:	d9c00315 	stw	r7,12(sp)
 1004db8:	da000015 	stw	r8,0(sp)
 1004dbc:	d9800215 	stw	r6,8(sp)
 1004dc0:	1005f4c0 	call	1005f4c <__unpack_d>
 1004dc4:	d9000204 	addi	r4,sp,8
 1004dc8:	880b883a 	mov	r5,r17
 1004dcc:	1005f4c0 	call	1005f4c <__unpack_d>
 1004dd0:	d8800a17 	ldw	r2,40(sp)
 1004dd4:	880b883a 	mov	r5,r17
 1004dd8:	9809883a 	mov	r4,r19
 1004ddc:	d9800e04 	addi	r6,sp,56
 1004de0:	1080005c 	xori	r2,r2,1
 1004de4:	d8800a15 	stw	r2,40(sp)
 1004de8:	10049780 	call	1004978 <_fpadd_parts>
 1004dec:	1009883a 	mov	r4,r2
 1004df0:	1005c380 	call	1005c38 <__pack_d>
 1004df4:	dfc01517 	ldw	ra,84(sp)
 1004df8:	dcc01417 	ldw	r19,80(sp)
 1004dfc:	dc401317 	ldw	r17,76(sp)
 1004e00:	dec01604 	addi	sp,sp,88
 1004e04:	f800283a 	ret

01004e08 <__adddf3>:
 1004e08:	deffea04 	addi	sp,sp,-88
 1004e0c:	dcc01415 	stw	r19,80(sp)
 1004e10:	dcc00404 	addi	r19,sp,16
 1004e14:	2011883a 	mov	r8,r4
 1004e18:	2813883a 	mov	r9,r5
 1004e1c:	dc401315 	stw	r17,76(sp)
 1004e20:	d809883a 	mov	r4,sp
 1004e24:	980b883a 	mov	r5,r19
 1004e28:	dc400904 	addi	r17,sp,36
 1004e2c:	dfc01515 	stw	ra,84(sp)
 1004e30:	da400115 	stw	r9,4(sp)
 1004e34:	d9c00315 	stw	r7,12(sp)
 1004e38:	da000015 	stw	r8,0(sp)
 1004e3c:	d9800215 	stw	r6,8(sp)
 1004e40:	1005f4c0 	call	1005f4c <__unpack_d>
 1004e44:	d9000204 	addi	r4,sp,8
 1004e48:	880b883a 	mov	r5,r17
 1004e4c:	1005f4c0 	call	1005f4c <__unpack_d>
 1004e50:	d9800e04 	addi	r6,sp,56
 1004e54:	9809883a 	mov	r4,r19
 1004e58:	880b883a 	mov	r5,r17
 1004e5c:	10049780 	call	1004978 <_fpadd_parts>
 1004e60:	1009883a 	mov	r4,r2
 1004e64:	1005c380 	call	1005c38 <__pack_d>
 1004e68:	dfc01517 	ldw	ra,84(sp)
 1004e6c:	dcc01417 	ldw	r19,80(sp)
 1004e70:	dc401317 	ldw	r17,76(sp)
 1004e74:	dec01604 	addi	sp,sp,88
 1004e78:	f800283a 	ret

01004e7c <__muldf3>:
 1004e7c:	deffe004 	addi	sp,sp,-128
 1004e80:	dc401815 	stw	r17,96(sp)
 1004e84:	dc400404 	addi	r17,sp,16
 1004e88:	2011883a 	mov	r8,r4
 1004e8c:	2813883a 	mov	r9,r5
 1004e90:	dc001715 	stw	r16,92(sp)
 1004e94:	d809883a 	mov	r4,sp
 1004e98:	880b883a 	mov	r5,r17
 1004e9c:	dc000904 	addi	r16,sp,36
 1004ea0:	dfc01f15 	stw	ra,124(sp)
 1004ea4:	da400115 	stw	r9,4(sp)
 1004ea8:	d9c00315 	stw	r7,12(sp)
 1004eac:	da000015 	stw	r8,0(sp)
 1004eb0:	d9800215 	stw	r6,8(sp)
 1004eb4:	ddc01e15 	stw	r23,120(sp)
 1004eb8:	dd801d15 	stw	r22,116(sp)
 1004ebc:	dd401c15 	stw	r21,112(sp)
 1004ec0:	dd001b15 	stw	r20,108(sp)
 1004ec4:	dcc01a15 	stw	r19,104(sp)
 1004ec8:	dc801915 	stw	r18,100(sp)
 1004ecc:	1005f4c0 	call	1005f4c <__unpack_d>
 1004ed0:	d9000204 	addi	r4,sp,8
 1004ed4:	800b883a 	mov	r5,r16
 1004ed8:	1005f4c0 	call	1005f4c <__unpack_d>
 1004edc:	d9000417 	ldw	r4,16(sp)
 1004ee0:	00800044 	movi	r2,1
 1004ee4:	1100102e 	bgeu	r2,r4,1004f28 <__muldf3+0xac>
 1004ee8:	d8c00917 	ldw	r3,36(sp)
 1004eec:	10c0062e 	bgeu	r2,r3,1004f08 <__muldf3+0x8c>
 1004ef0:	00800104 	movi	r2,4
 1004ef4:	20800a26 	beq	r4,r2,1004f20 <__muldf3+0xa4>
 1004ef8:	1880cc26 	beq	r3,r2,100522c <__muldf3+0x3b0>
 1004efc:	00800084 	movi	r2,2
 1004f00:	20800926 	beq	r4,r2,1004f28 <__muldf3+0xac>
 1004f04:	1880191e 	bne	r3,r2,1004f6c <__muldf3+0xf0>
 1004f08:	d8c00a17 	ldw	r3,40(sp)
 1004f0c:	d8800517 	ldw	r2,20(sp)
 1004f10:	8009883a 	mov	r4,r16
 1004f14:	10c4c03a 	cmpne	r2,r2,r3
 1004f18:	d8800a15 	stw	r2,40(sp)
 1004f1c:	00000706 	br	1004f3c <__muldf3+0xc0>
 1004f20:	00800084 	movi	r2,2
 1004f24:	1880c326 	beq	r3,r2,1005234 <__muldf3+0x3b8>
 1004f28:	d8800517 	ldw	r2,20(sp)
 1004f2c:	d8c00a17 	ldw	r3,40(sp)
 1004f30:	8809883a 	mov	r4,r17
 1004f34:	10c4c03a 	cmpne	r2,r2,r3
 1004f38:	d8800515 	stw	r2,20(sp)
 1004f3c:	1005c380 	call	1005c38 <__pack_d>
 1004f40:	dfc01f17 	ldw	ra,124(sp)
 1004f44:	ddc01e17 	ldw	r23,120(sp)
 1004f48:	dd801d17 	ldw	r22,116(sp)
 1004f4c:	dd401c17 	ldw	r21,112(sp)
 1004f50:	dd001b17 	ldw	r20,108(sp)
 1004f54:	dcc01a17 	ldw	r19,104(sp)
 1004f58:	dc801917 	ldw	r18,100(sp)
 1004f5c:	dc401817 	ldw	r17,96(sp)
 1004f60:	dc001717 	ldw	r16,92(sp)
 1004f64:	dec02004 	addi	sp,sp,128
 1004f68:	f800283a 	ret
 1004f6c:	dd800717 	ldw	r22,28(sp)
 1004f70:	dc800c17 	ldw	r18,48(sp)
 1004f74:	002b883a 	mov	r21,zero
 1004f78:	0023883a 	mov	r17,zero
 1004f7c:	a80b883a 	mov	r5,r21
 1004f80:	b00d883a 	mov	r6,r22
 1004f84:	880f883a 	mov	r7,r17
 1004f88:	ddc00817 	ldw	r23,32(sp)
 1004f8c:	dcc00d17 	ldw	r19,52(sp)
 1004f90:	9009883a 	mov	r4,r18
 1004f94:	1005a940 	call	1005a94 <__muldi3>
 1004f98:	001b883a 	mov	r13,zero
 1004f9c:	680f883a 	mov	r7,r13
 1004fa0:	b009883a 	mov	r4,r22
 1004fa4:	000b883a 	mov	r5,zero
 1004fa8:	980d883a 	mov	r6,r19
 1004fac:	b82d883a 	mov	r22,r23
 1004fb0:	002f883a 	mov	r23,zero
 1004fb4:	db401615 	stw	r13,88(sp)
 1004fb8:	d8801315 	stw	r2,76(sp)
 1004fbc:	d8c01415 	stw	r3,80(sp)
 1004fc0:	dcc01515 	stw	r19,84(sp)
 1004fc4:	1005a940 	call	1005a94 <__muldi3>
 1004fc8:	b00d883a 	mov	r6,r22
 1004fcc:	000b883a 	mov	r5,zero
 1004fd0:	9009883a 	mov	r4,r18
 1004fd4:	b80f883a 	mov	r7,r23
 1004fd8:	1021883a 	mov	r16,r2
 1004fdc:	1823883a 	mov	r17,r3
 1004fe0:	1005a940 	call	1005a94 <__muldi3>
 1004fe4:	8085883a 	add	r2,r16,r2
 1004fe8:	140d803a 	cmpltu	r6,r2,r16
 1004fec:	88c7883a 	add	r3,r17,r3
 1004ff0:	30cd883a 	add	r6,r6,r3
 1004ff4:	1029883a 	mov	r20,r2
 1004ff8:	302b883a 	mov	r21,r6
 1004ffc:	da801317 	ldw	r10,76(sp)
 1005000:	dac01417 	ldw	r11,80(sp)
 1005004:	db001517 	ldw	r12,84(sp)
 1005008:	db401617 	ldw	r13,88(sp)
 100500c:	3440612e 	bgeu	r6,r17,1005194 <__muldf3+0x318>
 1005010:	0009883a 	mov	r4,zero
 1005014:	5105883a 	add	r2,r10,r4
 1005018:	128d803a 	cmpltu	r6,r2,r10
 100501c:	5d07883a 	add	r3,r11,r20
 1005020:	30cd883a 	add	r6,r6,r3
 1005024:	0021883a 	mov	r16,zero
 1005028:	04400044 	movi	r17,1
 100502c:	1025883a 	mov	r18,r2
 1005030:	3027883a 	mov	r19,r6
 1005034:	32c06236 	bltu	r6,r11,10051c0 <__muldf3+0x344>
 1005038:	59807a26 	beq	r11,r6,1005224 <__muldf3+0x3a8>
 100503c:	680b883a 	mov	r5,r13
 1005040:	b80f883a 	mov	r7,r23
 1005044:	6009883a 	mov	r4,r12
 1005048:	b00d883a 	mov	r6,r22
 100504c:	1005a940 	call	1005a94 <__muldi3>
 1005050:	1009883a 	mov	r4,r2
 1005054:	000f883a 	mov	r7,zero
 1005058:	1545883a 	add	r2,r2,r21
 100505c:	1111803a 	cmpltu	r8,r2,r4
 1005060:	19c7883a 	add	r3,r3,r7
 1005064:	40c7883a 	add	r3,r8,r3
 1005068:	88cb883a 	add	r5,r17,r3
 100506c:	d8c00617 	ldw	r3,24(sp)
 1005070:	8089883a 	add	r4,r16,r2
 1005074:	d8800b17 	ldw	r2,44(sp)
 1005078:	18c00104 	addi	r3,r3,4
 100507c:	240d803a 	cmpltu	r6,r4,r16
 1005080:	10c7883a 	add	r3,r2,r3
 1005084:	2013883a 	mov	r9,r4
 1005088:	d8800a17 	ldw	r2,40(sp)
 100508c:	d9000517 	ldw	r4,20(sp)
 1005090:	314d883a 	add	r6,r6,r5
 1005094:	3015883a 	mov	r10,r6
 1005098:	2088c03a 	cmpne	r4,r4,r2
 100509c:	00880034 	movhi	r2,8192
 10050a0:	10bfffc4 	addi	r2,r2,-1
 10050a4:	d9000f15 	stw	r4,60(sp)
 10050a8:	d8c01015 	stw	r3,64(sp)
 10050ac:	1180162e 	bgeu	r2,r6,1005108 <__muldf3+0x28c>
 10050b0:	1811883a 	mov	r8,r3
 10050b4:	101f883a 	mov	r15,r2
 10050b8:	980497fa 	slli	r2,r19,31
 10050bc:	9016d07a 	srli	r11,r18,1
 10050c0:	500697fa 	slli	r3,r10,31
 10050c4:	480cd07a 	srli	r6,r9,1
 10050c8:	500ed07a 	srli	r7,r10,1
 10050cc:	12d6b03a 	or	r11,r2,r11
 10050d0:	00800044 	movi	r2,1
 10050d4:	198cb03a 	or	r6,r3,r6
 10050d8:	4888703a 	and	r4,r9,r2
 10050dc:	9818d07a 	srli	r12,r19,1
 10050e0:	001b883a 	mov	r13,zero
 10050e4:	03a00034 	movhi	r14,32768
 10050e8:	3013883a 	mov	r9,r6
 10050ec:	3815883a 	mov	r10,r7
 10050f0:	4091883a 	add	r8,r8,r2
 10050f4:	20000226 	beq	r4,zero,1005100 <__muldf3+0x284>
 10050f8:	5b64b03a 	or	r18,r11,r13
 10050fc:	63a6b03a 	or	r19,r12,r14
 1005100:	7abfed36 	bltu	r15,r10,10050b8 <__muldf3+0x23c>
 1005104:	da001015 	stw	r8,64(sp)
 1005108:	00840034 	movhi	r2,4096
 100510c:	10bfffc4 	addi	r2,r2,-1
 1005110:	12801436 	bltu	r2,r10,1005164 <__muldf3+0x2e8>
 1005114:	da001017 	ldw	r8,64(sp)
 1005118:	101f883a 	mov	r15,r2
 100511c:	4a45883a 	add	r2,r9,r9
 1005120:	124d803a 	cmpltu	r6,r2,r9
 1005124:	5287883a 	add	r3,r10,r10
 1005128:	9497883a 	add	r11,r18,r18
 100512c:	5c8f803a 	cmpltu	r7,r11,r18
 1005130:	9cd9883a 	add	r12,r19,r19
 1005134:	01000044 	movi	r4,1
 1005138:	30cd883a 	add	r6,r6,r3
 100513c:	3b0f883a 	add	r7,r7,r12
 1005140:	423fffc4 	addi	r8,r8,-1
 1005144:	1013883a 	mov	r9,r2
 1005148:	3015883a 	mov	r10,r6
 100514c:	111ab03a 	or	r13,r2,r4
 1005150:	98003016 	blt	r19,zero,1005214 <__muldf3+0x398>
 1005154:	5825883a 	mov	r18,r11
 1005158:	3827883a 	mov	r19,r7
 100515c:	7abfef2e 	bgeu	r15,r10,100511c <__muldf3+0x2a0>
 1005160:	da001015 	stw	r8,64(sp)
 1005164:	00803fc4 	movi	r2,255
 1005168:	488e703a 	and	r7,r9,r2
 100516c:	00802004 	movi	r2,128
 1005170:	0007883a 	mov	r3,zero
 1005174:	0011883a 	mov	r8,zero
 1005178:	38801826 	beq	r7,r2,10051dc <__muldf3+0x360>
 100517c:	008000c4 	movi	r2,3
 1005180:	d9000e04 	addi	r4,sp,56
 1005184:	da801215 	stw	r10,72(sp)
 1005188:	d8800e15 	stw	r2,56(sp)
 100518c:	da401115 	stw	r9,68(sp)
 1005190:	003f6a06 	br	1004f3c <__muldf3+0xc0>
 1005194:	89802126 	beq	r17,r6,100521c <__muldf3+0x3a0>
 1005198:	0009883a 	mov	r4,zero
 100519c:	5105883a 	add	r2,r10,r4
 10051a0:	128d803a 	cmpltu	r6,r2,r10
 10051a4:	5d07883a 	add	r3,r11,r20
 10051a8:	30cd883a 	add	r6,r6,r3
 10051ac:	0021883a 	mov	r16,zero
 10051b0:	0023883a 	mov	r17,zero
 10051b4:	1025883a 	mov	r18,r2
 10051b8:	3027883a 	mov	r19,r6
 10051bc:	32ff9e2e 	bgeu	r6,r11,1005038 <__muldf3+0x1bc>
 10051c0:	00800044 	movi	r2,1
 10051c4:	8089883a 	add	r4,r16,r2
 10051c8:	240d803a 	cmpltu	r6,r4,r16
 10051cc:	344d883a 	add	r6,r6,r17
 10051d0:	2021883a 	mov	r16,r4
 10051d4:	3023883a 	mov	r17,r6
 10051d8:	003f9806 	br	100503c <__muldf3+0x1c0>
 10051dc:	403fe71e 	bne	r8,zero,100517c <__muldf3+0x300>
 10051e0:	01004004 	movi	r4,256
 10051e4:	4904703a 	and	r2,r9,r4
 10051e8:	10c4b03a 	or	r2,r2,r3
 10051ec:	103fe31e 	bne	r2,zero,100517c <__muldf3+0x300>
 10051f0:	94c4b03a 	or	r2,r18,r19
 10051f4:	103fe126 	beq	r2,zero,100517c <__muldf3+0x300>
 10051f8:	49c5883a 	add	r2,r9,r7
 10051fc:	1251803a 	cmpltu	r8,r2,r9
 1005200:	4291883a 	add	r8,r8,r10
 1005204:	013fc004 	movi	r4,-256
 1005208:	1112703a 	and	r9,r2,r4
 100520c:	4015883a 	mov	r10,r8
 1005210:	003fda06 	br	100517c <__muldf3+0x300>
 1005214:	6813883a 	mov	r9,r13
 1005218:	003fce06 	br	1005154 <__muldf3+0x2d8>
 100521c:	143f7c36 	bltu	r2,r16,1005010 <__muldf3+0x194>
 1005220:	003fdd06 	br	1005198 <__muldf3+0x31c>
 1005224:	12bf852e 	bgeu	r2,r10,100503c <__muldf3+0x1c0>
 1005228:	003fe506 	br	10051c0 <__muldf3+0x344>
 100522c:	00800084 	movi	r2,2
 1005230:	20bf351e 	bne	r4,r2,1004f08 <__muldf3+0x8c>
 1005234:	01004134 	movhi	r4,260
 1005238:	2119ba04 	addi	r4,r4,26344
 100523c:	003f3f06 	br	1004f3c <__muldf3+0xc0>

01005240 <__divdf3>:
 1005240:	deffed04 	addi	sp,sp,-76
 1005244:	dcc01115 	stw	r19,68(sp)
 1005248:	dcc00404 	addi	r19,sp,16
 100524c:	2011883a 	mov	r8,r4
 1005250:	2813883a 	mov	r9,r5
 1005254:	dc000e15 	stw	r16,56(sp)
 1005258:	d809883a 	mov	r4,sp
 100525c:	980b883a 	mov	r5,r19
 1005260:	dc000904 	addi	r16,sp,36
 1005264:	dfc01215 	stw	ra,72(sp)
 1005268:	da400115 	stw	r9,4(sp)
 100526c:	d9c00315 	stw	r7,12(sp)
 1005270:	da000015 	stw	r8,0(sp)
 1005274:	d9800215 	stw	r6,8(sp)
 1005278:	dc801015 	stw	r18,64(sp)
 100527c:	dc400f15 	stw	r17,60(sp)
 1005280:	1005f4c0 	call	1005f4c <__unpack_d>
 1005284:	d9000204 	addi	r4,sp,8
 1005288:	800b883a 	mov	r5,r16
 100528c:	1005f4c0 	call	1005f4c <__unpack_d>
 1005290:	d9000417 	ldw	r4,16(sp)
 1005294:	00800044 	movi	r2,1
 1005298:	11000b2e 	bgeu	r2,r4,10052c8 <__divdf3+0x88>
 100529c:	d9400917 	ldw	r5,36(sp)
 10052a0:	1140762e 	bgeu	r2,r5,100547c <__divdf3+0x23c>
 10052a4:	d8800517 	ldw	r2,20(sp)
 10052a8:	d8c00a17 	ldw	r3,40(sp)
 10052ac:	01800104 	movi	r6,4
 10052b0:	10c4f03a 	xor	r2,r2,r3
 10052b4:	d8800515 	stw	r2,20(sp)
 10052b8:	21800226 	beq	r4,r6,10052c4 <__divdf3+0x84>
 10052bc:	00800084 	movi	r2,2
 10052c0:	2080141e 	bne	r4,r2,1005314 <__divdf3+0xd4>
 10052c4:	29000926 	beq	r5,r4,10052ec <__divdf3+0xac>
 10052c8:	9809883a 	mov	r4,r19
 10052cc:	1005c380 	call	1005c38 <__pack_d>
 10052d0:	dfc01217 	ldw	ra,72(sp)
 10052d4:	dcc01117 	ldw	r19,68(sp)
 10052d8:	dc801017 	ldw	r18,64(sp)
 10052dc:	dc400f17 	ldw	r17,60(sp)
 10052e0:	dc000e17 	ldw	r16,56(sp)
 10052e4:	dec01304 	addi	sp,sp,76
 10052e8:	f800283a 	ret
 10052ec:	01004134 	movhi	r4,260
 10052f0:	2119ba04 	addi	r4,r4,26344
 10052f4:	1005c380 	call	1005c38 <__pack_d>
 10052f8:	dfc01217 	ldw	ra,72(sp)
 10052fc:	dcc01117 	ldw	r19,68(sp)
 1005300:	dc801017 	ldw	r18,64(sp)
 1005304:	dc400f17 	ldw	r17,60(sp)
 1005308:	dc000e17 	ldw	r16,56(sp)
 100530c:	dec01304 	addi	sp,sp,76
 1005310:	f800283a 	ret
 1005314:	29805b26 	beq	r5,r6,1005484 <__divdf3+0x244>
 1005318:	28802d26 	beq	r5,r2,10053d0 <__divdf3+0x190>
 100531c:	d8c00617 	ldw	r3,24(sp)
 1005320:	d8800b17 	ldw	r2,44(sp)
 1005324:	d9c00817 	ldw	r7,32(sp)
 1005328:	dc400d17 	ldw	r17,52(sp)
 100532c:	188bc83a 	sub	r5,r3,r2
 1005330:	d9800717 	ldw	r6,28(sp)
 1005334:	dc000c17 	ldw	r16,48(sp)
 1005338:	d9400615 	stw	r5,24(sp)
 100533c:	3c403836 	bltu	r7,r17,1005420 <__divdf3+0x1e0>
 1005340:	89c03626 	beq	r17,r7,100541c <__divdf3+0x1dc>
 1005344:	0015883a 	mov	r10,zero
 1005348:	001d883a 	mov	r14,zero
 100534c:	02c40034 	movhi	r11,4096
 1005350:	001f883a 	mov	r15,zero
 1005354:	003f883a 	mov	ra,zero
 1005358:	04800f44 	movi	r18,61
 100535c:	00000f06 	br	100539c <__divdf3+0x15c>
 1005360:	601d883a 	mov	r14,r12
 1005364:	681f883a 	mov	r15,r13
 1005368:	400d883a 	mov	r6,r8
 100536c:	100f883a 	mov	r7,r2
 1005370:	3191883a 	add	r8,r6,r6
 1005374:	5808d07a 	srli	r4,r11,1
 1005378:	4185803a 	cmpltu	r2,r8,r6
 100537c:	39d3883a 	add	r9,r7,r7
 1005380:	28c6b03a 	or	r3,r5,r3
 1005384:	1245883a 	add	r2,r2,r9
 1005388:	1815883a 	mov	r10,r3
 100538c:	2017883a 	mov	r11,r4
 1005390:	400d883a 	mov	r6,r8
 1005394:	100f883a 	mov	r7,r2
 1005398:	fc801726 	beq	ra,r18,10053f8 <__divdf3+0x1b8>
 100539c:	580a97fa 	slli	r5,r11,31
 10053a0:	5006d07a 	srli	r3,r10,1
 10053a4:	ffc00044 	addi	ra,ra,1
 10053a8:	3c7ff136 	bltu	r7,r17,1005370 <__divdf3+0x130>
 10053ac:	3411c83a 	sub	r8,r6,r16
 10053b0:	3205803a 	cmpltu	r2,r6,r8
 10053b4:	3c53c83a 	sub	r9,r7,r17
 10053b8:	7298b03a 	or	r12,r14,r10
 10053bc:	7adab03a 	or	r13,r15,r11
 10053c0:	4885c83a 	sub	r2,r9,r2
 10053c4:	89ffe61e 	bne	r17,r7,1005360 <__divdf3+0x120>
 10053c8:	343fe936 	bltu	r6,r16,1005370 <__divdf3+0x130>
 10053cc:	003fe406 	br	1005360 <__divdf3+0x120>
 10053d0:	9809883a 	mov	r4,r19
 10053d4:	d9800415 	stw	r6,16(sp)
 10053d8:	1005c380 	call	1005c38 <__pack_d>
 10053dc:	dfc01217 	ldw	ra,72(sp)
 10053e0:	dcc01117 	ldw	r19,68(sp)
 10053e4:	dc801017 	ldw	r18,64(sp)
 10053e8:	dc400f17 	ldw	r17,60(sp)
 10053ec:	dc000e17 	ldw	r16,56(sp)
 10053f0:	dec01304 	addi	sp,sp,76
 10053f4:	f800283a 	ret
 10053f8:	00803fc4 	movi	r2,255
 10053fc:	7090703a 	and	r8,r14,r2
 1005400:	00802004 	movi	r2,128
 1005404:	0007883a 	mov	r3,zero
 1005408:	0013883a 	mov	r9,zero
 100540c:	40800d26 	beq	r8,r2,1005444 <__divdf3+0x204>
 1005410:	dbc00815 	stw	r15,32(sp)
 1005414:	db800715 	stw	r14,28(sp)
 1005418:	003fab06 	br	10052c8 <__divdf3+0x88>
 100541c:	343fc92e 	bgeu	r6,r16,1005344 <__divdf3+0x104>
 1005420:	3185883a 	add	r2,r6,r6
 1005424:	1189803a 	cmpltu	r4,r2,r6
 1005428:	39c7883a 	add	r3,r7,r7
 100542c:	20c9883a 	add	r4,r4,r3
 1005430:	297fffc4 	addi	r5,r5,-1
 1005434:	100d883a 	mov	r6,r2
 1005438:	200f883a 	mov	r7,r4
 100543c:	d9400615 	stw	r5,24(sp)
 1005440:	003fc006 	br	1005344 <__divdf3+0x104>
 1005444:	483ff21e 	bne	r9,zero,1005410 <__divdf3+0x1d0>
 1005448:	01004004 	movi	r4,256
 100544c:	7104703a 	and	r2,r14,r4
 1005450:	10c4b03a 	or	r2,r2,r3
 1005454:	103fee1e 	bne	r2,zero,1005410 <__divdf3+0x1d0>
 1005458:	31c4b03a 	or	r2,r6,r7
 100545c:	103fec26 	beq	r2,zero,1005410 <__divdf3+0x1d0>
 1005460:	7205883a 	add	r2,r14,r8
 1005464:	1391803a 	cmpltu	r8,r2,r14
 1005468:	43d1883a 	add	r8,r8,r15
 100546c:	013fc004 	movi	r4,-256
 1005470:	111c703a 	and	r14,r2,r4
 1005474:	401f883a 	mov	r15,r8
 1005478:	003fe506 	br	1005410 <__divdf3+0x1d0>
 100547c:	8009883a 	mov	r4,r16
 1005480:	003f9206 	br	10052cc <__divdf3+0x8c>
 1005484:	9809883a 	mov	r4,r19
 1005488:	d8000715 	stw	zero,28(sp)
 100548c:	d8000815 	stw	zero,32(sp)
 1005490:	d8000615 	stw	zero,24(sp)
 1005494:	003f8d06 	br	10052cc <__divdf3+0x8c>

01005498 <__eqdf2>:
 1005498:	deffef04 	addi	sp,sp,-68
 100549c:	dc400f15 	stw	r17,60(sp)
 10054a0:	dc400404 	addi	r17,sp,16
 10054a4:	2005883a 	mov	r2,r4
 10054a8:	2807883a 	mov	r3,r5
 10054ac:	dc000e15 	stw	r16,56(sp)
 10054b0:	d809883a 	mov	r4,sp
 10054b4:	880b883a 	mov	r5,r17
 10054b8:	dc000904 	addi	r16,sp,36
 10054bc:	d8c00115 	stw	r3,4(sp)
 10054c0:	d8800015 	stw	r2,0(sp)
 10054c4:	d9800215 	stw	r6,8(sp)
 10054c8:	dfc01015 	stw	ra,64(sp)
 10054cc:	d9c00315 	stw	r7,12(sp)
 10054d0:	1005f4c0 	call	1005f4c <__unpack_d>
 10054d4:	d9000204 	addi	r4,sp,8
 10054d8:	800b883a 	mov	r5,r16
 10054dc:	1005f4c0 	call	1005f4c <__unpack_d>
 10054e0:	d8800417 	ldw	r2,16(sp)
 10054e4:	00c00044 	movi	r3,1
 10054e8:	180d883a 	mov	r6,r3
 10054ec:	1880062e 	bgeu	r3,r2,1005508 <__eqdf2+0x70>
 10054f0:	d8800917 	ldw	r2,36(sp)
 10054f4:	8809883a 	mov	r4,r17
 10054f8:	800b883a 	mov	r5,r16
 10054fc:	1880022e 	bgeu	r3,r2,1005508 <__eqdf2+0x70>
 1005500:	10060840 	call	1006084 <__fpcmp_parts_d>
 1005504:	100d883a 	mov	r6,r2
 1005508:	3005883a 	mov	r2,r6
 100550c:	dfc01017 	ldw	ra,64(sp)
 1005510:	dc400f17 	ldw	r17,60(sp)
 1005514:	dc000e17 	ldw	r16,56(sp)
 1005518:	dec01104 	addi	sp,sp,68
 100551c:	f800283a 	ret

01005520 <__gtdf2>:
 1005520:	deffef04 	addi	sp,sp,-68
 1005524:	dc400f15 	stw	r17,60(sp)
 1005528:	dc400404 	addi	r17,sp,16
 100552c:	2005883a 	mov	r2,r4
 1005530:	2807883a 	mov	r3,r5
 1005534:	dc000e15 	stw	r16,56(sp)
 1005538:	d809883a 	mov	r4,sp
 100553c:	880b883a 	mov	r5,r17
 1005540:	dc000904 	addi	r16,sp,36
 1005544:	d8c00115 	stw	r3,4(sp)
 1005548:	d8800015 	stw	r2,0(sp)
 100554c:	d9800215 	stw	r6,8(sp)
 1005550:	dfc01015 	stw	ra,64(sp)
 1005554:	d9c00315 	stw	r7,12(sp)
 1005558:	1005f4c0 	call	1005f4c <__unpack_d>
 100555c:	d9000204 	addi	r4,sp,8
 1005560:	800b883a 	mov	r5,r16
 1005564:	1005f4c0 	call	1005f4c <__unpack_d>
 1005568:	d8800417 	ldw	r2,16(sp)
 100556c:	00c00044 	movi	r3,1
 1005570:	01bfffc4 	movi	r6,-1
 1005574:	1880062e 	bgeu	r3,r2,1005590 <__gtdf2+0x70>
 1005578:	d8800917 	ldw	r2,36(sp)
 100557c:	8809883a 	mov	r4,r17
 1005580:	800b883a 	mov	r5,r16
 1005584:	1880022e 	bgeu	r3,r2,1005590 <__gtdf2+0x70>
 1005588:	10060840 	call	1006084 <__fpcmp_parts_d>
 100558c:	100d883a 	mov	r6,r2
 1005590:	3005883a 	mov	r2,r6
 1005594:	dfc01017 	ldw	ra,64(sp)
 1005598:	dc400f17 	ldw	r17,60(sp)
 100559c:	dc000e17 	ldw	r16,56(sp)
 10055a0:	dec01104 	addi	sp,sp,68
 10055a4:	f800283a 	ret

010055a8 <__gedf2>:
 10055a8:	deffef04 	addi	sp,sp,-68
 10055ac:	dc400f15 	stw	r17,60(sp)
 10055b0:	dc400404 	addi	r17,sp,16
 10055b4:	2005883a 	mov	r2,r4
 10055b8:	2807883a 	mov	r3,r5
 10055bc:	dc000e15 	stw	r16,56(sp)
 10055c0:	d809883a 	mov	r4,sp
 10055c4:	880b883a 	mov	r5,r17
 10055c8:	dc000904 	addi	r16,sp,36
 10055cc:	d8c00115 	stw	r3,4(sp)
 10055d0:	d8800015 	stw	r2,0(sp)
 10055d4:	d9800215 	stw	r6,8(sp)
 10055d8:	dfc01015 	stw	ra,64(sp)
 10055dc:	d9c00315 	stw	r7,12(sp)
 10055e0:	1005f4c0 	call	1005f4c <__unpack_d>
 10055e4:	d9000204 	addi	r4,sp,8
 10055e8:	800b883a 	mov	r5,r16
 10055ec:	1005f4c0 	call	1005f4c <__unpack_d>
 10055f0:	d8800417 	ldw	r2,16(sp)
 10055f4:	00c00044 	movi	r3,1
 10055f8:	01bfffc4 	movi	r6,-1
 10055fc:	1880062e 	bgeu	r3,r2,1005618 <__gedf2+0x70>
 1005600:	d8800917 	ldw	r2,36(sp)
 1005604:	8809883a 	mov	r4,r17
 1005608:	800b883a 	mov	r5,r16
 100560c:	1880022e 	bgeu	r3,r2,1005618 <__gedf2+0x70>
 1005610:	10060840 	call	1006084 <__fpcmp_parts_d>
 1005614:	100d883a 	mov	r6,r2
 1005618:	3005883a 	mov	r2,r6
 100561c:	dfc01017 	ldw	ra,64(sp)
 1005620:	dc400f17 	ldw	r17,60(sp)
 1005624:	dc000e17 	ldw	r16,56(sp)
 1005628:	dec01104 	addi	sp,sp,68
 100562c:	f800283a 	ret

01005630 <__ltdf2>:
 1005630:	deffef04 	addi	sp,sp,-68
 1005634:	dc400f15 	stw	r17,60(sp)
 1005638:	dc400404 	addi	r17,sp,16
 100563c:	2005883a 	mov	r2,r4
 1005640:	2807883a 	mov	r3,r5
 1005644:	dc000e15 	stw	r16,56(sp)
 1005648:	d809883a 	mov	r4,sp
 100564c:	880b883a 	mov	r5,r17
 1005650:	dc000904 	addi	r16,sp,36
 1005654:	d8c00115 	stw	r3,4(sp)
 1005658:	d8800015 	stw	r2,0(sp)
 100565c:	d9800215 	stw	r6,8(sp)
 1005660:	dfc01015 	stw	ra,64(sp)
 1005664:	d9c00315 	stw	r7,12(sp)
 1005668:	1005f4c0 	call	1005f4c <__unpack_d>
 100566c:	d9000204 	addi	r4,sp,8
 1005670:	800b883a 	mov	r5,r16
 1005674:	1005f4c0 	call	1005f4c <__unpack_d>
 1005678:	d8800417 	ldw	r2,16(sp)
 100567c:	00c00044 	movi	r3,1
 1005680:	180d883a 	mov	r6,r3
 1005684:	1880062e 	bgeu	r3,r2,10056a0 <__ltdf2+0x70>
 1005688:	d8800917 	ldw	r2,36(sp)
 100568c:	8809883a 	mov	r4,r17
 1005690:	800b883a 	mov	r5,r16
 1005694:	1880022e 	bgeu	r3,r2,10056a0 <__ltdf2+0x70>
 1005698:	10060840 	call	1006084 <__fpcmp_parts_d>
 100569c:	100d883a 	mov	r6,r2
 10056a0:	3005883a 	mov	r2,r6
 10056a4:	dfc01017 	ldw	ra,64(sp)
 10056a8:	dc400f17 	ldw	r17,60(sp)
 10056ac:	dc000e17 	ldw	r16,56(sp)
 10056b0:	dec01104 	addi	sp,sp,68
 10056b4:	f800283a 	ret

010056b8 <__ledf2>:
 10056b8:	deffef04 	addi	sp,sp,-68
 10056bc:	dc400f15 	stw	r17,60(sp)
 10056c0:	dc400404 	addi	r17,sp,16
 10056c4:	2005883a 	mov	r2,r4
 10056c8:	2807883a 	mov	r3,r5
 10056cc:	dc000e15 	stw	r16,56(sp)
 10056d0:	d809883a 	mov	r4,sp
 10056d4:	880b883a 	mov	r5,r17
 10056d8:	dc000904 	addi	r16,sp,36
 10056dc:	d8c00115 	stw	r3,4(sp)
 10056e0:	d8800015 	stw	r2,0(sp)
 10056e4:	d9800215 	stw	r6,8(sp)
 10056e8:	dfc01015 	stw	ra,64(sp)
 10056ec:	d9c00315 	stw	r7,12(sp)
 10056f0:	1005f4c0 	call	1005f4c <__unpack_d>
 10056f4:	d9000204 	addi	r4,sp,8
 10056f8:	800b883a 	mov	r5,r16
 10056fc:	1005f4c0 	call	1005f4c <__unpack_d>
 1005700:	d8800417 	ldw	r2,16(sp)
 1005704:	00c00044 	movi	r3,1
 1005708:	180d883a 	mov	r6,r3
 100570c:	1880062e 	bgeu	r3,r2,1005728 <__ledf2+0x70>
 1005710:	d8800917 	ldw	r2,36(sp)
 1005714:	8809883a 	mov	r4,r17
 1005718:	800b883a 	mov	r5,r16
 100571c:	1880022e 	bgeu	r3,r2,1005728 <__ledf2+0x70>
 1005720:	10060840 	call	1006084 <__fpcmp_parts_d>
 1005724:	100d883a 	mov	r6,r2
 1005728:	3005883a 	mov	r2,r6
 100572c:	dfc01017 	ldw	ra,64(sp)
 1005730:	dc400f17 	ldw	r17,60(sp)
 1005734:	dc000e17 	ldw	r16,56(sp)
 1005738:	dec01104 	addi	sp,sp,68
 100573c:	f800283a 	ret

01005740 <__floatsidf>:
 1005740:	2006d7fa 	srli	r3,r4,31
 1005744:	defff604 	addi	sp,sp,-40
 1005748:	008000c4 	movi	r2,3
 100574c:	dfc00915 	stw	ra,36(sp)
 1005750:	dcc00815 	stw	r19,32(sp)
 1005754:	dc800715 	stw	r18,28(sp)
 1005758:	dc400615 	stw	r17,24(sp)
 100575c:	dc000515 	stw	r16,20(sp)
 1005760:	d8800015 	stw	r2,0(sp)
 1005764:	d8c00115 	stw	r3,4(sp)
 1005768:	20000f1e 	bne	r4,zero,10057a8 <__floatsidf+0x68>
 100576c:	00800084 	movi	r2,2
 1005770:	d8800015 	stw	r2,0(sp)
 1005774:	d809883a 	mov	r4,sp
 1005778:	1005c380 	call	1005c38 <__pack_d>
 100577c:	1009883a 	mov	r4,r2
 1005780:	180b883a 	mov	r5,r3
 1005784:	2005883a 	mov	r2,r4
 1005788:	2807883a 	mov	r3,r5
 100578c:	dfc00917 	ldw	ra,36(sp)
 1005790:	dcc00817 	ldw	r19,32(sp)
 1005794:	dc800717 	ldw	r18,28(sp)
 1005798:	dc400617 	ldw	r17,24(sp)
 100579c:	dc000517 	ldw	r16,20(sp)
 10057a0:	dec00a04 	addi	sp,sp,40
 10057a4:	f800283a 	ret
 10057a8:	00800f04 	movi	r2,60
 10057ac:	1807003a 	cmpeq	r3,r3,zero
 10057b0:	d8800215 	stw	r2,8(sp)
 10057b4:	18001126 	beq	r3,zero,10057fc <__floatsidf+0xbc>
 10057b8:	0027883a 	mov	r19,zero
 10057bc:	2025883a 	mov	r18,r4
 10057c0:	d9000315 	stw	r4,12(sp)
 10057c4:	dcc00415 	stw	r19,16(sp)
 10057c8:	1005bb80 	call	1005bb8 <__clzsi2>
 10057cc:	11000744 	addi	r4,r2,29
 10057d0:	013fe80e 	bge	zero,r4,1005774 <__floatsidf+0x34>
 10057d4:	10bfff44 	addi	r2,r2,-3
 10057d8:	10000c16 	blt	r2,zero,100580c <__floatsidf+0xcc>
 10057dc:	90a2983a 	sll	r17,r18,r2
 10057e0:	0021883a 	mov	r16,zero
 10057e4:	d8800217 	ldw	r2,8(sp)
 10057e8:	dc400415 	stw	r17,16(sp)
 10057ec:	dc000315 	stw	r16,12(sp)
 10057f0:	1105c83a 	sub	r2,r2,r4
 10057f4:	d8800215 	stw	r2,8(sp)
 10057f8:	003fde06 	br	1005774 <__floatsidf+0x34>
 10057fc:	00a00034 	movhi	r2,32768
 1005800:	20800a26 	beq	r4,r2,100582c <__floatsidf+0xec>
 1005804:	0109c83a 	sub	r4,zero,r4
 1005808:	003feb06 	br	10057b8 <__floatsidf+0x78>
 100580c:	9006d07a 	srli	r3,r18,1
 1005810:	008007c4 	movi	r2,31
 1005814:	1105c83a 	sub	r2,r2,r4
 1005818:	1886d83a 	srl	r3,r3,r2
 100581c:	9922983a 	sll	r17,r19,r4
 1005820:	9120983a 	sll	r16,r18,r4
 1005824:	1c62b03a 	or	r17,r3,r17
 1005828:	003fee06 	br	10057e4 <__floatsidf+0xa4>
 100582c:	0009883a 	mov	r4,zero
 1005830:	01707834 	movhi	r5,49632
 1005834:	003fd306 	br	1005784 <__floatsidf+0x44>

01005838 <__fixdfsi>:
 1005838:	defff804 	addi	sp,sp,-32
 100583c:	2005883a 	mov	r2,r4
 1005840:	2807883a 	mov	r3,r5
 1005844:	d809883a 	mov	r4,sp
 1005848:	d9400204 	addi	r5,sp,8
 100584c:	d8c00115 	stw	r3,4(sp)
 1005850:	d8800015 	stw	r2,0(sp)
 1005854:	dfc00715 	stw	ra,28(sp)
 1005858:	1005f4c0 	call	1005f4c <__unpack_d>
 100585c:	d8c00217 	ldw	r3,8(sp)
 1005860:	00800084 	movi	r2,2
 1005864:	1880051e 	bne	r3,r2,100587c <__fixdfsi+0x44>
 1005868:	0007883a 	mov	r3,zero
 100586c:	1805883a 	mov	r2,r3
 1005870:	dfc00717 	ldw	ra,28(sp)
 1005874:	dec00804 	addi	sp,sp,32
 1005878:	f800283a 	ret
 100587c:	00800044 	movi	r2,1
 1005880:	10fff92e 	bgeu	r2,r3,1005868 <__fixdfsi+0x30>
 1005884:	00800104 	movi	r2,4
 1005888:	18800426 	beq	r3,r2,100589c <__fixdfsi+0x64>
 100588c:	d8c00417 	ldw	r3,16(sp)
 1005890:	183ff516 	blt	r3,zero,1005868 <__fixdfsi+0x30>
 1005894:	00800784 	movi	r2,30
 1005898:	10c0080e 	bge	r2,r3,10058bc <__fixdfsi+0x84>
 100589c:	d8800317 	ldw	r2,12(sp)
 10058a0:	1000121e 	bne	r2,zero,10058ec <__fixdfsi+0xb4>
 10058a4:	00e00034 	movhi	r3,32768
 10058a8:	18ffffc4 	addi	r3,r3,-1
 10058ac:	1805883a 	mov	r2,r3
 10058b0:	dfc00717 	ldw	ra,28(sp)
 10058b4:	dec00804 	addi	sp,sp,32
 10058b8:	f800283a 	ret
 10058bc:	00800f04 	movi	r2,60
 10058c0:	10d1c83a 	sub	r8,r2,r3
 10058c4:	40bff804 	addi	r2,r8,-32
 10058c8:	d9800517 	ldw	r6,20(sp)
 10058cc:	d9c00617 	ldw	r7,24(sp)
 10058d0:	10000816 	blt	r2,zero,10058f4 <__fixdfsi+0xbc>
 10058d4:	3888d83a 	srl	r4,r7,r2
 10058d8:	d8800317 	ldw	r2,12(sp)
 10058dc:	2007883a 	mov	r3,r4
 10058e0:	103fe226 	beq	r2,zero,100586c <__fixdfsi+0x34>
 10058e4:	0107c83a 	sub	r3,zero,r4
 10058e8:	003fe006 	br	100586c <__fixdfsi+0x34>
 10058ec:	00e00034 	movhi	r3,32768
 10058f0:	003fde06 	br	100586c <__fixdfsi+0x34>
 10058f4:	39c7883a 	add	r3,r7,r7
 10058f8:	008007c4 	movi	r2,31
 10058fc:	1205c83a 	sub	r2,r2,r8
 1005900:	1886983a 	sll	r3,r3,r2
 1005904:	3208d83a 	srl	r4,r6,r8
 1005908:	1908b03a 	or	r4,r3,r4
 100590c:	003ff206 	br	10058d8 <__fixdfsi+0xa0>

01005910 <udivmodsi4>:
 1005910:	29001b2e 	bgeu	r5,r4,1005980 <udivmodsi4+0x70>
 1005914:	28001a16 	blt	r5,zero,1005980 <udivmodsi4+0x70>
 1005918:	00800044 	movi	r2,1
 100591c:	0007883a 	mov	r3,zero
 1005920:	01c007c4 	movi	r7,31
 1005924:	00000306 	br	1005934 <udivmodsi4+0x24>
 1005928:	19c01326 	beq	r3,r7,1005978 <udivmodsi4+0x68>
 100592c:	18c00044 	addi	r3,r3,1
 1005930:	28000416 	blt	r5,zero,1005944 <udivmodsi4+0x34>
 1005934:	294b883a 	add	r5,r5,r5
 1005938:	1085883a 	add	r2,r2,r2
 100593c:	293ffa36 	bltu	r5,r4,1005928 <udivmodsi4+0x18>
 1005940:	10000d26 	beq	r2,zero,1005978 <udivmodsi4+0x68>
 1005944:	0007883a 	mov	r3,zero
 1005948:	21400236 	bltu	r4,r5,1005954 <udivmodsi4+0x44>
 100594c:	2149c83a 	sub	r4,r4,r5
 1005950:	1886b03a 	or	r3,r3,r2
 1005954:	1004d07a 	srli	r2,r2,1
 1005958:	280ad07a 	srli	r5,r5,1
 100595c:	103ffa1e 	bne	r2,zero,1005948 <udivmodsi4+0x38>
 1005960:	30000226 	beq	r6,zero,100596c <udivmodsi4+0x5c>
 1005964:	2005883a 	mov	r2,r4
 1005968:	f800283a 	ret
 100596c:	1809883a 	mov	r4,r3
 1005970:	2005883a 	mov	r2,r4
 1005974:	f800283a 	ret
 1005978:	0007883a 	mov	r3,zero
 100597c:	003ff806 	br	1005960 <udivmodsi4+0x50>
 1005980:	00800044 	movi	r2,1
 1005984:	0007883a 	mov	r3,zero
 1005988:	003fef06 	br	1005948 <udivmodsi4+0x38>

0100598c <__divsi3>:
 100598c:	defffe04 	addi	sp,sp,-8
 1005990:	dc000015 	stw	r16,0(sp)
 1005994:	dfc00115 	stw	ra,4(sp)
 1005998:	0021883a 	mov	r16,zero
 100599c:	20000c16 	blt	r4,zero,10059d0 <__divsi3+0x44>
 10059a0:	000d883a 	mov	r6,zero
 10059a4:	28000e16 	blt	r5,zero,10059e0 <__divsi3+0x54>
 10059a8:	10059100 	call	1005910 <udivmodsi4>
 10059ac:	1007883a 	mov	r3,r2
 10059b0:	8005003a 	cmpeq	r2,r16,zero
 10059b4:	1000011e 	bne	r2,zero,10059bc <__divsi3+0x30>
 10059b8:	00c7c83a 	sub	r3,zero,r3
 10059bc:	1805883a 	mov	r2,r3
 10059c0:	dfc00117 	ldw	ra,4(sp)
 10059c4:	dc000017 	ldw	r16,0(sp)
 10059c8:	dec00204 	addi	sp,sp,8
 10059cc:	f800283a 	ret
 10059d0:	0109c83a 	sub	r4,zero,r4
 10059d4:	04000044 	movi	r16,1
 10059d8:	000d883a 	mov	r6,zero
 10059dc:	283ff20e 	bge	r5,zero,10059a8 <__divsi3+0x1c>
 10059e0:	014bc83a 	sub	r5,zero,r5
 10059e4:	8021003a 	cmpeq	r16,r16,zero
 10059e8:	003fef06 	br	10059a8 <__divsi3+0x1c>

010059ec <__modsi3>:
 10059ec:	deffff04 	addi	sp,sp,-4
 10059f0:	dfc00015 	stw	ra,0(sp)
 10059f4:	01800044 	movi	r6,1
 10059f8:	2807883a 	mov	r3,r5
 10059fc:	20000416 	blt	r4,zero,1005a10 <__modsi3+0x24>
 1005a00:	28000c16 	blt	r5,zero,1005a34 <__modsi3+0x48>
 1005a04:	dfc00017 	ldw	ra,0(sp)
 1005a08:	dec00104 	addi	sp,sp,4
 1005a0c:	10059101 	jmpi	1005910 <udivmodsi4>
 1005a10:	0109c83a 	sub	r4,zero,r4
 1005a14:	28000b16 	blt	r5,zero,1005a44 <__modsi3+0x58>
 1005a18:	180b883a 	mov	r5,r3
 1005a1c:	01800044 	movi	r6,1
 1005a20:	10059100 	call	1005910 <udivmodsi4>
 1005a24:	0085c83a 	sub	r2,zero,r2
 1005a28:	dfc00017 	ldw	ra,0(sp)
 1005a2c:	dec00104 	addi	sp,sp,4
 1005a30:	f800283a 	ret
 1005a34:	014bc83a 	sub	r5,zero,r5
 1005a38:	dfc00017 	ldw	ra,0(sp)
 1005a3c:	dec00104 	addi	sp,sp,4
 1005a40:	10059101 	jmpi	1005910 <udivmodsi4>
 1005a44:	0147c83a 	sub	r3,zero,r5
 1005a48:	003ff306 	br	1005a18 <__modsi3+0x2c>

01005a4c <__udivsi3>:
 1005a4c:	000d883a 	mov	r6,zero
 1005a50:	10059101 	jmpi	1005910 <udivmodsi4>

01005a54 <__umodsi3>:
 1005a54:	01800044 	movi	r6,1
 1005a58:	10059101 	jmpi	1005910 <udivmodsi4>

01005a5c <__mulsi3>:
 1005a5c:	20000a26 	beq	r4,zero,1005a88 <__mulsi3+0x2c>
 1005a60:	0007883a 	mov	r3,zero
 1005a64:	2080004c 	andi	r2,r4,1
 1005a68:	1005003a 	cmpeq	r2,r2,zero
 1005a6c:	2008d07a 	srli	r4,r4,1
 1005a70:	1000011e 	bne	r2,zero,1005a78 <__mulsi3+0x1c>
 1005a74:	1947883a 	add	r3,r3,r5
 1005a78:	294b883a 	add	r5,r5,r5
 1005a7c:	203ff91e 	bne	r4,zero,1005a64 <__mulsi3+0x8>
 1005a80:	1805883a 	mov	r2,r3
 1005a84:	f800283a 	ret
 1005a88:	0007883a 	mov	r3,zero
 1005a8c:	1805883a 	mov	r2,r3
 1005a90:	f800283a 	ret

01005a94 <__muldi3>:
 1005a94:	defff204 	addi	sp,sp,-56
 1005a98:	df000c15 	stw	fp,48(sp)
 1005a9c:	3038d43a 	srli	fp,r6,16
 1005aa0:	dd000815 	stw	r20,32(sp)
 1005aa4:	dc400515 	stw	r17,20(sp)
 1005aa8:	2028d43a 	srli	r20,r4,16
 1005aac:	247fffcc 	andi	r17,r4,65535
 1005ab0:	dc000415 	stw	r16,16(sp)
 1005ab4:	343fffcc 	andi	r16,r6,65535
 1005ab8:	dcc00715 	stw	r19,28(sp)
 1005abc:	d9000015 	stw	r4,0(sp)
 1005ac0:	2827883a 	mov	r19,r5
 1005ac4:	8809883a 	mov	r4,r17
 1005ac8:	d9400115 	stw	r5,4(sp)
 1005acc:	800b883a 	mov	r5,r16
 1005ad0:	d9800215 	stw	r6,8(sp)
 1005ad4:	dfc00d15 	stw	ra,52(sp)
 1005ad8:	d9c00315 	stw	r7,12(sp)
 1005adc:	dd800a15 	stw	r22,40(sp)
 1005ae0:	dd400915 	stw	r21,36(sp)
 1005ae4:	302d883a 	mov	r22,r6
 1005ae8:	ddc00b15 	stw	r23,44(sp)
 1005aec:	dc800615 	stw	r18,24(sp)
 1005af0:	1005a5c0 	call	1005a5c <__mulsi3>
 1005af4:	8809883a 	mov	r4,r17
 1005af8:	e00b883a 	mov	r5,fp
 1005afc:	102b883a 	mov	r21,r2
 1005b00:	1005a5c0 	call	1005a5c <__mulsi3>
 1005b04:	800b883a 	mov	r5,r16
 1005b08:	a009883a 	mov	r4,r20
 1005b0c:	1023883a 	mov	r17,r2
 1005b10:	1005a5c0 	call	1005a5c <__mulsi3>
 1005b14:	a009883a 	mov	r4,r20
 1005b18:	e00b883a 	mov	r5,fp
 1005b1c:	1021883a 	mov	r16,r2
 1005b20:	1005a5c0 	call	1005a5c <__mulsi3>
 1005b24:	a8ffffcc 	andi	r3,r21,65535
 1005b28:	a82ad43a 	srli	r21,r21,16
 1005b2c:	8c23883a 	add	r17,r17,r16
 1005b30:	1011883a 	mov	r8,r2
 1005b34:	ac6b883a 	add	r21,r21,r17
 1005b38:	a804943a 	slli	r2,r21,16
 1005b3c:	b009883a 	mov	r4,r22
 1005b40:	980b883a 	mov	r5,r19
 1005b44:	10c7883a 	add	r3,r2,r3
 1005b48:	a812d43a 	srli	r9,r21,16
 1005b4c:	180d883a 	mov	r6,r3
 1005b50:	ac00022e 	bgeu	r21,r16,1005b5c <__muldi3+0xc8>
 1005b54:	00800074 	movhi	r2,1
 1005b58:	4091883a 	add	r8,r8,r2
 1005b5c:	4267883a 	add	r19,r8,r9
 1005b60:	302d883a 	mov	r22,r6
 1005b64:	1005a5c0 	call	1005a5c <__mulsi3>
 1005b68:	d9400317 	ldw	r5,12(sp)
 1005b6c:	d9000017 	ldw	r4,0(sp)
 1005b70:	1023883a 	mov	r17,r2
 1005b74:	1005a5c0 	call	1005a5c <__mulsi3>
 1005b78:	14cb883a 	add	r5,r2,r19
 1005b7c:	894b883a 	add	r5,r17,r5
 1005b80:	b005883a 	mov	r2,r22
 1005b84:	2807883a 	mov	r3,r5
 1005b88:	dfc00d17 	ldw	ra,52(sp)
 1005b8c:	df000c17 	ldw	fp,48(sp)
 1005b90:	ddc00b17 	ldw	r23,44(sp)
 1005b94:	dd800a17 	ldw	r22,40(sp)
 1005b98:	dd400917 	ldw	r21,36(sp)
 1005b9c:	dd000817 	ldw	r20,32(sp)
 1005ba0:	dcc00717 	ldw	r19,28(sp)
 1005ba4:	dc800617 	ldw	r18,24(sp)
 1005ba8:	dc400517 	ldw	r17,20(sp)
 1005bac:	dc000417 	ldw	r16,16(sp)
 1005bb0:	dec00e04 	addi	sp,sp,56
 1005bb4:	f800283a 	ret

01005bb8 <__clzsi2>:
 1005bb8:	00bfffd4 	movui	r2,65535
 1005bbc:	11000e36 	bltu	r2,r4,1005bf8 <__clzsi2+0x40>
 1005bc0:	00803fc4 	movi	r2,255
 1005bc4:	01400204 	movi	r5,8
 1005bc8:	0007883a 	mov	r3,zero
 1005bcc:	11001036 	bltu	r2,r4,1005c10 <__clzsi2+0x58>
 1005bd0:	000b883a 	mov	r5,zero
 1005bd4:	20c6d83a 	srl	r3,r4,r3
 1005bd8:	00804134 	movhi	r2,260
 1005bdc:	1099bf04 	addi	r2,r2,26364
 1005be0:	1887883a 	add	r3,r3,r2
 1005be4:	18800003 	ldbu	r2,0(r3)
 1005be8:	00c00804 	movi	r3,32
 1005bec:	2885883a 	add	r2,r5,r2
 1005bf0:	1885c83a 	sub	r2,r3,r2
 1005bf4:	f800283a 	ret
 1005bf8:	01400404 	movi	r5,16
 1005bfc:	00804034 	movhi	r2,256
 1005c00:	10bfffc4 	addi	r2,r2,-1
 1005c04:	2807883a 	mov	r3,r5
 1005c08:	113ff22e 	bgeu	r2,r4,1005bd4 <__clzsi2+0x1c>
 1005c0c:	01400604 	movi	r5,24
 1005c10:	2807883a 	mov	r3,r5
 1005c14:	20c6d83a 	srl	r3,r4,r3
 1005c18:	00804134 	movhi	r2,260
 1005c1c:	1099bf04 	addi	r2,r2,26364
 1005c20:	1887883a 	add	r3,r3,r2
 1005c24:	18800003 	ldbu	r2,0(r3)
 1005c28:	00c00804 	movi	r3,32
 1005c2c:	2885883a 	add	r2,r5,r2
 1005c30:	1885c83a 	sub	r2,r3,r2
 1005c34:	f800283a 	ret

01005c38 <__pack_d>:
 1005c38:	20c00017 	ldw	r3,0(r4)
 1005c3c:	defffd04 	addi	sp,sp,-12
 1005c40:	dc000015 	stw	r16,0(sp)
 1005c44:	dc800215 	stw	r18,8(sp)
 1005c48:	dc400115 	stw	r17,4(sp)
 1005c4c:	00800044 	movi	r2,1
 1005c50:	22000317 	ldw	r8,12(r4)
 1005c54:	001f883a 	mov	r15,zero
 1005c58:	22400417 	ldw	r9,16(r4)
 1005c5c:	24000117 	ldw	r16,4(r4)
 1005c60:	10c0552e 	bgeu	r2,r3,1005db8 <__pack_d+0x180>
 1005c64:	00800104 	movi	r2,4
 1005c68:	18804f26 	beq	r3,r2,1005da8 <__pack_d+0x170>
 1005c6c:	00800084 	movi	r2,2
 1005c70:	18800226 	beq	r3,r2,1005c7c <__pack_d+0x44>
 1005c74:	4244b03a 	or	r2,r8,r9
 1005c78:	10001a1e 	bne	r2,zero,1005ce4 <__pack_d+0xac>
 1005c7c:	000d883a 	mov	r6,zero
 1005c80:	000f883a 	mov	r7,zero
 1005c84:	0011883a 	mov	r8,zero
 1005c88:	00800434 	movhi	r2,16
 1005c8c:	10bfffc4 	addi	r2,r2,-1
 1005c90:	301d883a 	mov	r14,r6
 1005c94:	3884703a 	and	r2,r7,r2
 1005c98:	400a953a 	slli	r5,r8,20
 1005c9c:	79bffc2c 	andhi	r6,r15,65520
 1005ca0:	308cb03a 	or	r6,r6,r2
 1005ca4:	00e00434 	movhi	r3,32784
 1005ca8:	18ffffc4 	addi	r3,r3,-1
 1005cac:	800497fa 	slli	r2,r16,31
 1005cb0:	30c6703a 	and	r3,r6,r3
 1005cb4:	1946b03a 	or	r3,r3,r5
 1005cb8:	01600034 	movhi	r5,32768
 1005cbc:	297fffc4 	addi	r5,r5,-1
 1005cc0:	194a703a 	and	r5,r3,r5
 1005cc4:	288ab03a 	or	r5,r5,r2
 1005cc8:	2807883a 	mov	r3,r5
 1005ccc:	7005883a 	mov	r2,r14
 1005cd0:	dc800217 	ldw	r18,8(sp)
 1005cd4:	dc400117 	ldw	r17,4(sp)
 1005cd8:	dc000017 	ldw	r16,0(sp)
 1005cdc:	dec00304 	addi	sp,sp,12
 1005ce0:	f800283a 	ret
 1005ce4:	21000217 	ldw	r4,8(r4)
 1005ce8:	00bf0084 	movi	r2,-1022
 1005cec:	20803f16 	blt	r4,r2,1005dec <__pack_d+0x1b4>
 1005cf0:	0080ffc4 	movi	r2,1023
 1005cf4:	11002c16 	blt	r2,r4,1005da8 <__pack_d+0x170>
 1005cf8:	00803fc4 	movi	r2,255
 1005cfc:	408c703a 	and	r6,r8,r2
 1005d00:	00802004 	movi	r2,128
 1005d04:	0007883a 	mov	r3,zero
 1005d08:	000f883a 	mov	r7,zero
 1005d0c:	2280ffc4 	addi	r10,r4,1023
 1005d10:	30801e26 	beq	r6,r2,1005d8c <__pack_d+0x154>
 1005d14:	00801fc4 	movi	r2,127
 1005d18:	4089883a 	add	r4,r8,r2
 1005d1c:	220d803a 	cmpltu	r6,r4,r8
 1005d20:	324d883a 	add	r6,r6,r9
 1005d24:	2011883a 	mov	r8,r4
 1005d28:	3013883a 	mov	r9,r6
 1005d2c:	00880034 	movhi	r2,8192
 1005d30:	10bfffc4 	addi	r2,r2,-1
 1005d34:	12400d36 	bltu	r2,r9,1005d6c <__pack_d+0x134>
 1005d38:	4804963a 	slli	r2,r9,24
 1005d3c:	400cd23a 	srli	r6,r8,8
 1005d40:	480ed23a 	srli	r7,r9,8
 1005d44:	013fffc4 	movi	r4,-1
 1005d48:	118cb03a 	or	r6,r2,r6
 1005d4c:	01400434 	movhi	r5,16
 1005d50:	297fffc4 	addi	r5,r5,-1
 1005d54:	3104703a 	and	r2,r6,r4
 1005d58:	3946703a 	and	r3,r7,r5
 1005d5c:	5201ffcc 	andi	r8,r10,2047
 1005d60:	100d883a 	mov	r6,r2
 1005d64:	180f883a 	mov	r7,r3
 1005d68:	003fc706 	br	1005c88 <__pack_d+0x50>
 1005d6c:	480897fa 	slli	r4,r9,31
 1005d70:	4004d07a 	srli	r2,r8,1
 1005d74:	4806d07a 	srli	r3,r9,1
 1005d78:	52800044 	addi	r10,r10,1
 1005d7c:	2084b03a 	or	r2,r4,r2
 1005d80:	1011883a 	mov	r8,r2
 1005d84:	1813883a 	mov	r9,r3
 1005d88:	003feb06 	br	1005d38 <__pack_d+0x100>
 1005d8c:	383fe11e 	bne	r7,zero,1005d14 <__pack_d+0xdc>
 1005d90:	01004004 	movi	r4,256
 1005d94:	4104703a 	and	r2,r8,r4
 1005d98:	10c4b03a 	or	r2,r2,r3
 1005d9c:	103fe326 	beq	r2,zero,1005d2c <__pack_d+0xf4>
 1005da0:	3005883a 	mov	r2,r6
 1005da4:	003fdc06 	br	1005d18 <__pack_d+0xe0>
 1005da8:	000d883a 	mov	r6,zero
 1005dac:	000f883a 	mov	r7,zero
 1005db0:	0201ffc4 	movi	r8,2047
 1005db4:	003fb406 	br	1005c88 <__pack_d+0x50>
 1005db8:	0005883a 	mov	r2,zero
 1005dbc:	00c00234 	movhi	r3,8
 1005dc0:	408cb03a 	or	r6,r8,r2
 1005dc4:	48ceb03a 	or	r7,r9,r3
 1005dc8:	013fffc4 	movi	r4,-1
 1005dcc:	01400434 	movhi	r5,16
 1005dd0:	297fffc4 	addi	r5,r5,-1
 1005dd4:	3104703a 	and	r2,r6,r4
 1005dd8:	3946703a 	and	r3,r7,r5
 1005ddc:	100d883a 	mov	r6,r2
 1005de0:	180f883a 	mov	r7,r3
 1005de4:	0201ffc4 	movi	r8,2047
 1005de8:	003fa706 	br	1005c88 <__pack_d+0x50>
 1005dec:	1109c83a 	sub	r4,r2,r4
 1005df0:	00800e04 	movi	r2,56
 1005df4:	11004316 	blt	r2,r4,1005f04 <__pack_d+0x2cc>
 1005df8:	21fff804 	addi	r7,r4,-32
 1005dfc:	38004516 	blt	r7,zero,1005f14 <__pack_d+0x2dc>
 1005e00:	49d8d83a 	srl	r12,r9,r7
 1005e04:	001b883a 	mov	r13,zero
 1005e08:	0023883a 	mov	r17,zero
 1005e0c:	01400044 	movi	r5,1
 1005e10:	0025883a 	mov	r18,zero
 1005e14:	38004716 	blt	r7,zero,1005f34 <__pack_d+0x2fc>
 1005e18:	29d6983a 	sll	r11,r5,r7
 1005e1c:	0015883a 	mov	r10,zero
 1005e20:	00bfffc4 	movi	r2,-1
 1005e24:	5089883a 	add	r4,r10,r2
 1005e28:	588b883a 	add	r5,r11,r2
 1005e2c:	228d803a 	cmpltu	r6,r4,r10
 1005e30:	314b883a 	add	r5,r6,r5
 1005e34:	4104703a 	and	r2,r8,r4
 1005e38:	4946703a 	and	r3,r9,r5
 1005e3c:	10c4b03a 	or	r2,r2,r3
 1005e40:	10000226 	beq	r2,zero,1005e4c <__pack_d+0x214>
 1005e44:	04400044 	movi	r17,1
 1005e48:	0025883a 	mov	r18,zero
 1005e4c:	00803fc4 	movi	r2,255
 1005e50:	644eb03a 	or	r7,r12,r17
 1005e54:	3892703a 	and	r9,r7,r2
 1005e58:	00802004 	movi	r2,128
 1005e5c:	6c90b03a 	or	r8,r13,r18
 1005e60:	0015883a 	mov	r10,zero
 1005e64:	48801626 	beq	r9,r2,1005ec0 <__pack_d+0x288>
 1005e68:	01001fc4 	movi	r4,127
 1005e6c:	3905883a 	add	r2,r7,r4
 1005e70:	11cd803a 	cmpltu	r6,r2,r7
 1005e74:	320d883a 	add	r6,r6,r8
 1005e78:	100f883a 	mov	r7,r2
 1005e7c:	00840034 	movhi	r2,4096
 1005e80:	10bfffc4 	addi	r2,r2,-1
 1005e84:	3011883a 	mov	r8,r6
 1005e88:	0007883a 	mov	r3,zero
 1005e8c:	11801b36 	bltu	r2,r6,1005efc <__pack_d+0x2c4>
 1005e90:	4004963a 	slli	r2,r8,24
 1005e94:	3808d23a 	srli	r4,r7,8
 1005e98:	400ad23a 	srli	r5,r8,8
 1005e9c:	1813883a 	mov	r9,r3
 1005ea0:	1108b03a 	or	r4,r2,r4
 1005ea4:	00bfffc4 	movi	r2,-1
 1005ea8:	00c00434 	movhi	r3,16
 1005eac:	18ffffc4 	addi	r3,r3,-1
 1005eb0:	208c703a 	and	r6,r4,r2
 1005eb4:	28ce703a 	and	r7,r5,r3
 1005eb8:	4a01ffcc 	andi	r8,r9,2047
 1005ebc:	003f7206 	br	1005c88 <__pack_d+0x50>
 1005ec0:	503fe91e 	bne	r10,zero,1005e68 <__pack_d+0x230>
 1005ec4:	01004004 	movi	r4,256
 1005ec8:	3904703a 	and	r2,r7,r4
 1005ecc:	0007883a 	mov	r3,zero
 1005ed0:	10c4b03a 	or	r2,r2,r3
 1005ed4:	10000626 	beq	r2,zero,1005ef0 <__pack_d+0x2b8>
 1005ed8:	3a45883a 	add	r2,r7,r9
 1005edc:	11cd803a 	cmpltu	r6,r2,r7
 1005ee0:	320d883a 	add	r6,r6,r8
 1005ee4:	100f883a 	mov	r7,r2
 1005ee8:	3011883a 	mov	r8,r6
 1005eec:	0007883a 	mov	r3,zero
 1005ef0:	00840034 	movhi	r2,4096
 1005ef4:	10bfffc4 	addi	r2,r2,-1
 1005ef8:	123fe52e 	bgeu	r2,r8,1005e90 <__pack_d+0x258>
 1005efc:	00c00044 	movi	r3,1
 1005f00:	003fe306 	br	1005e90 <__pack_d+0x258>
 1005f04:	0009883a 	mov	r4,zero
 1005f08:	0013883a 	mov	r9,zero
 1005f0c:	000b883a 	mov	r5,zero
 1005f10:	003fe406 	br	1005ea4 <__pack_d+0x26c>
 1005f14:	4a47883a 	add	r3,r9,r9
 1005f18:	008007c4 	movi	r2,31
 1005f1c:	1105c83a 	sub	r2,r2,r4
 1005f20:	1886983a 	sll	r3,r3,r2
 1005f24:	4118d83a 	srl	r12,r8,r4
 1005f28:	491ad83a 	srl	r13,r9,r4
 1005f2c:	1b18b03a 	or	r12,r3,r12
 1005f30:	003fb506 	br	1005e08 <__pack_d+0x1d0>
 1005f34:	2806d07a 	srli	r3,r5,1
 1005f38:	008007c4 	movi	r2,31
 1005f3c:	1105c83a 	sub	r2,r2,r4
 1005f40:	1896d83a 	srl	r11,r3,r2
 1005f44:	2914983a 	sll	r10,r5,r4
 1005f48:	003fb506 	br	1005e20 <__pack_d+0x1e8>

01005f4c <__unpack_d>:
 1005f4c:	20c00117 	ldw	r3,4(r4)
 1005f50:	22400017 	ldw	r9,0(r4)
 1005f54:	00800434 	movhi	r2,16
 1005f58:	10bfffc4 	addi	r2,r2,-1
 1005f5c:	1808d53a 	srli	r4,r3,20
 1005f60:	180cd7fa 	srli	r6,r3,31
 1005f64:	1894703a 	and	r10,r3,r2
 1005f68:	2201ffcc 	andi	r8,r4,2047
 1005f6c:	281b883a 	mov	r13,r5
 1005f70:	4817883a 	mov	r11,r9
 1005f74:	29800115 	stw	r6,4(r5)
 1005f78:	5019883a 	mov	r12,r10
 1005f7c:	40001e1e 	bne	r8,zero,1005ff8 <__unpack_d+0xac>
 1005f80:	4a84b03a 	or	r2,r9,r10
 1005f84:	10001926 	beq	r2,zero,1005fec <__unpack_d+0xa0>
 1005f88:	4804d63a 	srli	r2,r9,24
 1005f8c:	500c923a 	slli	r6,r10,8
 1005f90:	013f0084 	movi	r4,-1022
 1005f94:	00c40034 	movhi	r3,4096
 1005f98:	18ffffc4 	addi	r3,r3,-1
 1005f9c:	118cb03a 	or	r6,r2,r6
 1005fa0:	008000c4 	movi	r2,3
 1005fa4:	480a923a 	slli	r5,r9,8
 1005fa8:	68800015 	stw	r2,0(r13)
 1005fac:	69000215 	stw	r4,8(r13)
 1005fb0:	19800b36 	bltu	r3,r6,1005fe0 <__unpack_d+0x94>
 1005fb4:	200f883a 	mov	r7,r4
 1005fb8:	1811883a 	mov	r8,r3
 1005fbc:	2945883a 	add	r2,r5,r5
 1005fc0:	1149803a 	cmpltu	r4,r2,r5
 1005fc4:	3187883a 	add	r3,r6,r6
 1005fc8:	20c9883a 	add	r4,r4,r3
 1005fcc:	100b883a 	mov	r5,r2
 1005fd0:	200d883a 	mov	r6,r4
 1005fd4:	39ffffc4 	addi	r7,r7,-1
 1005fd8:	413ff82e 	bgeu	r8,r4,1005fbc <__unpack_d+0x70>
 1005fdc:	69c00215 	stw	r7,8(r13)
 1005fe0:	69800415 	stw	r6,16(r13)
 1005fe4:	69400315 	stw	r5,12(r13)
 1005fe8:	f800283a 	ret
 1005fec:	00800084 	movi	r2,2
 1005ff0:	28800015 	stw	r2,0(r5)
 1005ff4:	f800283a 	ret
 1005ff8:	0081ffc4 	movi	r2,2047
 1005ffc:	40800f26 	beq	r8,r2,100603c <__unpack_d+0xf0>
 1006000:	480cd63a 	srli	r6,r9,24
 1006004:	5006923a 	slli	r3,r10,8
 1006008:	4804923a 	slli	r2,r9,8
 100600c:	0009883a 	mov	r4,zero
 1006010:	30c6b03a 	or	r3,r6,r3
 1006014:	01440034 	movhi	r5,4096
 1006018:	110cb03a 	or	r6,r2,r4
 100601c:	423f0044 	addi	r8,r8,-1023
 1006020:	194eb03a 	or	r7,r3,r5
 1006024:	008000c4 	movi	r2,3
 1006028:	69c00415 	stw	r7,16(r13)
 100602c:	6a000215 	stw	r8,8(r13)
 1006030:	68800015 	stw	r2,0(r13)
 1006034:	69800315 	stw	r6,12(r13)
 1006038:	f800283a 	ret
 100603c:	4a84b03a 	or	r2,r9,r10
 1006040:	1000031e 	bne	r2,zero,1006050 <__unpack_d+0x104>
 1006044:	00800104 	movi	r2,4
 1006048:	28800015 	stw	r2,0(r5)
 100604c:	f800283a 	ret
 1006050:	0009883a 	mov	r4,zero
 1006054:	01400234 	movhi	r5,8
 1006058:	4904703a 	and	r2,r9,r4
 100605c:	5146703a 	and	r3,r10,r5
 1006060:	10c4b03a 	or	r2,r2,r3
 1006064:	10000526 	beq	r2,zero,100607c <__unpack_d+0x130>
 1006068:	00800044 	movi	r2,1
 100606c:	68800015 	stw	r2,0(r13)
 1006070:	6b000415 	stw	r12,16(r13)
 1006074:	6ac00315 	stw	r11,12(r13)
 1006078:	f800283a 	ret
 100607c:	68000015 	stw	zero,0(r13)
 1006080:	003ffb06 	br	1006070 <__unpack_d+0x124>

01006084 <__fpcmp_parts_d>:
 1006084:	21800017 	ldw	r6,0(r4)
 1006088:	00c00044 	movi	r3,1
 100608c:	19800a2e 	bgeu	r3,r6,10060b8 <__fpcmp_parts_d+0x34>
 1006090:	28800017 	ldw	r2,0(r5)
 1006094:	1880082e 	bgeu	r3,r2,10060b8 <__fpcmp_parts_d+0x34>
 1006098:	00c00104 	movi	r3,4
 100609c:	30c02626 	beq	r6,r3,1006138 <__fpcmp_parts_d+0xb4>
 10060a0:	10c02226 	beq	r2,r3,100612c <__fpcmp_parts_d+0xa8>
 10060a4:	00c00084 	movi	r3,2
 10060a8:	30c00526 	beq	r6,r3,10060c0 <__fpcmp_parts_d+0x3c>
 10060ac:	10c0071e 	bne	r2,r3,10060cc <__fpcmp_parts_d+0x48>
 10060b0:	20800117 	ldw	r2,4(r4)
 10060b4:	1000091e 	bne	r2,zero,10060dc <__fpcmp_parts_d+0x58>
 10060b8:	00800044 	movi	r2,1
 10060bc:	f800283a 	ret
 10060c0:	10c01a1e 	bne	r2,r3,100612c <__fpcmp_parts_d+0xa8>
 10060c4:	0005883a 	mov	r2,zero
 10060c8:	f800283a 	ret
 10060cc:	22000117 	ldw	r8,4(r4)
 10060d0:	28800117 	ldw	r2,4(r5)
 10060d4:	40800326 	beq	r8,r2,10060e4 <__fpcmp_parts_d+0x60>
 10060d8:	403ff726 	beq	r8,zero,10060b8 <__fpcmp_parts_d+0x34>
 10060dc:	00bfffc4 	movi	r2,-1
 10060e0:	f800283a 	ret
 10060e4:	20c00217 	ldw	r3,8(r4)
 10060e8:	28800217 	ldw	r2,8(r5)
 10060ec:	10fffa16 	blt	r2,r3,10060d8 <__fpcmp_parts_d+0x54>
 10060f0:	18800916 	blt	r3,r2,1006118 <__fpcmp_parts_d+0x94>
 10060f4:	21c00417 	ldw	r7,16(r4)
 10060f8:	28c00417 	ldw	r3,16(r5)
 10060fc:	21800317 	ldw	r6,12(r4)
 1006100:	28800317 	ldw	r2,12(r5)
 1006104:	19fff436 	bltu	r3,r7,10060d8 <__fpcmp_parts_d+0x54>
 1006108:	38c00526 	beq	r7,r3,1006120 <__fpcmp_parts_d+0x9c>
 100610c:	38c00236 	bltu	r7,r3,1006118 <__fpcmp_parts_d+0x94>
 1006110:	19ffec1e 	bne	r3,r7,10060c4 <__fpcmp_parts_d+0x40>
 1006114:	30bfeb2e 	bgeu	r6,r2,10060c4 <__fpcmp_parts_d+0x40>
 1006118:	403fe71e 	bne	r8,zero,10060b8 <__fpcmp_parts_d+0x34>
 100611c:	003fef06 	br	10060dc <__fpcmp_parts_d+0x58>
 1006120:	11bffa2e 	bgeu	r2,r6,100610c <__fpcmp_parts_d+0x88>
 1006124:	403fe426 	beq	r8,zero,10060b8 <__fpcmp_parts_d+0x34>
 1006128:	003fec06 	br	10060dc <__fpcmp_parts_d+0x58>
 100612c:	28800117 	ldw	r2,4(r5)
 1006130:	103fe11e 	bne	r2,zero,10060b8 <__fpcmp_parts_d+0x34>
 1006134:	003fe906 	br	10060dc <__fpcmp_parts_d+0x58>
 1006138:	11bfdd1e 	bne	r2,r6,10060b0 <__fpcmp_parts_d+0x2c>
 100613c:	28c00117 	ldw	r3,4(r5)
 1006140:	20800117 	ldw	r2,4(r4)
 1006144:	1885c83a 	sub	r2,r3,r2
 1006148:	f800283a 	ret

0100614c <free>:
 100614c:	00804174 	movhi	r2,261
 1006150:	10a15a04 	addi	r2,r2,-31384
 1006154:	200b883a 	mov	r5,r4
 1006158:	11000017 	ldw	r4,0(r2)
 100615c:	100aa781 	jmpi	100aa78 <_free_r>

01006160 <malloc>:
 1006160:	00804174 	movhi	r2,261
 1006164:	10a15a04 	addi	r2,r2,-31384
 1006168:	200b883a 	mov	r5,r4
 100616c:	11000017 	ldw	r4,0(r2)
 1006170:	10061741 	jmpi	1006174 <_malloc_r>

01006174 <_malloc_r>:
 1006174:	defff604 	addi	sp,sp,-40
 1006178:	28c002c4 	addi	r3,r5,11
 100617c:	00800584 	movi	r2,22
 1006180:	dc800215 	stw	r18,8(sp)
 1006184:	dfc00915 	stw	ra,36(sp)
 1006188:	df000815 	stw	fp,32(sp)
 100618c:	ddc00715 	stw	r23,28(sp)
 1006190:	dd800615 	stw	r22,24(sp)
 1006194:	dd400515 	stw	r21,20(sp)
 1006198:	dd000415 	stw	r20,16(sp)
 100619c:	dcc00315 	stw	r19,12(sp)
 10061a0:	dc400115 	stw	r17,4(sp)
 10061a4:	dc000015 	stw	r16,0(sp)
 10061a8:	2025883a 	mov	r18,r4
 10061ac:	10c01236 	bltu	r2,r3,10061f8 <_malloc_r+0x84>
 10061b0:	04400404 	movi	r17,16
 10061b4:	8940142e 	bgeu	r17,r5,1006208 <_malloc_r+0x94>
 10061b8:	00800304 	movi	r2,12
 10061bc:	0007883a 	mov	r3,zero
 10061c0:	90800015 	stw	r2,0(r18)
 10061c4:	1805883a 	mov	r2,r3
 10061c8:	dfc00917 	ldw	ra,36(sp)
 10061cc:	df000817 	ldw	fp,32(sp)
 10061d0:	ddc00717 	ldw	r23,28(sp)
 10061d4:	dd800617 	ldw	r22,24(sp)
 10061d8:	dd400517 	ldw	r21,20(sp)
 10061dc:	dd000417 	ldw	r20,16(sp)
 10061e0:	dcc00317 	ldw	r19,12(sp)
 10061e4:	dc800217 	ldw	r18,8(sp)
 10061e8:	dc400117 	ldw	r17,4(sp)
 10061ec:	dc000017 	ldw	r16,0(sp)
 10061f0:	dec00a04 	addi	sp,sp,40
 10061f4:	f800283a 	ret
 10061f8:	00bffe04 	movi	r2,-8
 10061fc:	18a2703a 	and	r17,r3,r2
 1006200:	883fed16 	blt	r17,zero,10061b8 <_malloc_r+0x44>
 1006204:	897fec36 	bltu	r17,r5,10061b8 <_malloc_r+0x44>
 1006208:	9009883a 	mov	r4,r18
 100620c:	100eea80 	call	100eea8 <__malloc_lock>
 1006210:	00807dc4 	movi	r2,503
 1006214:	14402b2e 	bgeu	r2,r17,10062c4 <_malloc_r+0x150>
 1006218:	8806d27a 	srli	r3,r17,9
 100621c:	18003f1e 	bne	r3,zero,100631c <_malloc_r+0x1a8>
 1006220:	880cd0fa 	srli	r6,r17,3
 1006224:	300490fa 	slli	r2,r6,3
 1006228:	02c04134 	movhi	r11,260
 100622c:	5adaaa04 	addi	r11,r11,27304
 1006230:	12cb883a 	add	r5,r2,r11
 1006234:	2c000317 	ldw	r16,12(r5)
 1006238:	580f883a 	mov	r7,r11
 100623c:	2c00041e 	bne	r5,r16,1006250 <_malloc_r+0xdc>
 1006240:	00000a06 	br	100626c <_malloc_r+0xf8>
 1006244:	1800860e 	bge	r3,zero,1006460 <_malloc_r+0x2ec>
 1006248:	84000317 	ldw	r16,12(r16)
 100624c:	2c000726 	beq	r5,r16,100626c <_malloc_r+0xf8>
 1006250:	80800117 	ldw	r2,4(r16)
 1006254:	00ffff04 	movi	r3,-4
 1006258:	10c8703a 	and	r4,r2,r3
 100625c:	2447c83a 	sub	r3,r4,r17
 1006260:	008003c4 	movi	r2,15
 1006264:	10fff70e 	bge	r2,r3,1006244 <_malloc_r+0xd0>
 1006268:	31bfffc4 	addi	r6,r6,-1
 100626c:	32400044 	addi	r9,r6,1
 1006270:	02804134 	movhi	r10,260
 1006274:	529aac04 	addi	r10,r10,27312
 1006278:	54000217 	ldw	r16,8(r10)
 100627c:	8280a026 	beq	r16,r10,1006500 <_malloc_r+0x38c>
 1006280:	80800117 	ldw	r2,4(r16)
 1006284:	00ffff04 	movi	r3,-4
 1006288:	10ca703a 	and	r5,r2,r3
 100628c:	2c4dc83a 	sub	r6,r5,r17
 1006290:	008003c4 	movi	r2,15
 1006294:	11808316 	blt	r2,r6,10064a4 <_malloc_r+0x330>
 1006298:	52800315 	stw	r10,12(r10)
 100629c:	52800215 	stw	r10,8(r10)
 10062a0:	30002916 	blt	r6,zero,1006348 <_malloc_r+0x1d4>
 10062a4:	8147883a 	add	r3,r16,r5
 10062a8:	18800117 	ldw	r2,4(r3)
 10062ac:	9009883a 	mov	r4,r18
 10062b0:	10800054 	ori	r2,r2,1
 10062b4:	18800115 	stw	r2,4(r3)
 10062b8:	100eec80 	call	100eec8 <__malloc_unlock>
 10062bc:	80c00204 	addi	r3,r16,8
 10062c0:	003fc006 	br	10061c4 <_malloc_r+0x50>
 10062c4:	02c04134 	movhi	r11,260
 10062c8:	5adaaa04 	addi	r11,r11,27304
 10062cc:	8ac5883a 	add	r2,r17,r11
 10062d0:	14000317 	ldw	r16,12(r2)
 10062d4:	580f883a 	mov	r7,r11
 10062d8:	8806d0fa 	srli	r3,r17,3
 10062dc:	14006c26 	beq	r2,r16,1006490 <_malloc_r+0x31c>
 10062e0:	80c00117 	ldw	r3,4(r16)
 10062e4:	00bfff04 	movi	r2,-4
 10062e8:	81800317 	ldw	r6,12(r16)
 10062ec:	1886703a 	and	r3,r3,r2
 10062f0:	80c7883a 	add	r3,r16,r3
 10062f4:	18800117 	ldw	r2,4(r3)
 10062f8:	81400217 	ldw	r5,8(r16)
 10062fc:	9009883a 	mov	r4,r18
 1006300:	10800054 	ori	r2,r2,1
 1006304:	18800115 	stw	r2,4(r3)
 1006308:	31400215 	stw	r5,8(r6)
 100630c:	29800315 	stw	r6,12(r5)
 1006310:	100eec80 	call	100eec8 <__malloc_unlock>
 1006314:	80c00204 	addi	r3,r16,8
 1006318:	003faa06 	br	10061c4 <_malloc_r+0x50>
 100631c:	00800104 	movi	r2,4
 1006320:	10c0052e 	bgeu	r2,r3,1006338 <_malloc_r+0x1c4>
 1006324:	00800504 	movi	r2,20
 1006328:	10c07836 	bltu	r2,r3,100650c <_malloc_r+0x398>
 100632c:	198016c4 	addi	r6,r3,91
 1006330:	300490fa 	slli	r2,r6,3
 1006334:	003fbc06 	br	1006228 <_malloc_r+0xb4>
 1006338:	8804d1ba 	srli	r2,r17,6
 100633c:	11800e04 	addi	r6,r2,56
 1006340:	300490fa 	slli	r2,r6,3
 1006344:	003fb806 	br	1006228 <_malloc_r+0xb4>
 1006348:	00807fc4 	movi	r2,511
 100634c:	1140bb36 	bltu	r2,r5,100663c <_malloc_r+0x4c8>
 1006350:	2806d0fa 	srli	r3,r5,3
 1006354:	573ffe04 	addi	fp,r10,-8
 1006358:	00800044 	movi	r2,1
 100635c:	180890fa 	slli	r4,r3,3
 1006360:	1807d0ba 	srai	r3,r3,2
 1006364:	e1c00117 	ldw	r7,4(fp)
 1006368:	5909883a 	add	r4,r11,r4
 100636c:	21400217 	ldw	r5,8(r4)
 1006370:	10c4983a 	sll	r2,r2,r3
 1006374:	81000315 	stw	r4,12(r16)
 1006378:	81400215 	stw	r5,8(r16)
 100637c:	388eb03a 	or	r7,r7,r2
 1006380:	2c000315 	stw	r16,12(r5)
 1006384:	24000215 	stw	r16,8(r4)
 1006388:	e1c00115 	stw	r7,4(fp)
 100638c:	4807883a 	mov	r3,r9
 1006390:	4800cd16 	blt	r9,zero,10066c8 <_malloc_r+0x554>
 1006394:	1807d0ba 	srai	r3,r3,2
 1006398:	00800044 	movi	r2,1
 100639c:	10c8983a 	sll	r4,r2,r3
 10063a0:	39004436 	bltu	r7,r4,10064b4 <_malloc_r+0x340>
 10063a4:	21c4703a 	and	r2,r4,r7
 10063a8:	10000a1e 	bne	r2,zero,10063d4 <_malloc_r+0x260>
 10063ac:	2109883a 	add	r4,r4,r4
 10063b0:	00bfff04 	movi	r2,-4
 10063b4:	4884703a 	and	r2,r9,r2
 10063b8:	3906703a 	and	r3,r7,r4
 10063bc:	12400104 	addi	r9,r2,4
 10063c0:	1800041e 	bne	r3,zero,10063d4 <_malloc_r+0x260>
 10063c4:	2109883a 	add	r4,r4,r4
 10063c8:	3904703a 	and	r2,r7,r4
 10063cc:	4a400104 	addi	r9,r9,4
 10063d0:	103ffc26 	beq	r2,zero,10063c4 <_malloc_r+0x250>
 10063d4:	480490fa 	slli	r2,r9,3
 10063d8:	4819883a 	mov	r12,r9
 10063dc:	023fff04 	movi	r8,-4
 10063e0:	589b883a 	add	r13,r11,r2
 10063e4:	6807883a 	mov	r3,r13
 10063e8:	014003c4 	movi	r5,15
 10063ec:	1c000317 	ldw	r16,12(r3)
 10063f0:	1c00041e 	bne	r3,r16,1006404 <_malloc_r+0x290>
 10063f4:	0000a706 	br	1006694 <_malloc_r+0x520>
 10063f8:	3000ab0e 	bge	r6,zero,10066a8 <_malloc_r+0x534>
 10063fc:	84000317 	ldw	r16,12(r16)
 1006400:	1c00a426 	beq	r3,r16,1006694 <_malloc_r+0x520>
 1006404:	80800117 	ldw	r2,4(r16)
 1006408:	1204703a 	and	r2,r2,r8
 100640c:	144dc83a 	sub	r6,r2,r17
 1006410:	29bff90e 	bge	r5,r6,10063f8 <_malloc_r+0x284>
 1006414:	81000317 	ldw	r4,12(r16)
 1006418:	80c00217 	ldw	r3,8(r16)
 100641c:	89400054 	ori	r5,r17,1
 1006420:	8445883a 	add	r2,r16,r17
 1006424:	20c00215 	stw	r3,8(r4)
 1006428:	19000315 	stw	r4,12(r3)
 100642c:	81400115 	stw	r5,4(r16)
 1006430:	1187883a 	add	r3,r2,r6
 1006434:	31000054 	ori	r4,r6,1
 1006438:	50800315 	stw	r2,12(r10)
 100643c:	50800215 	stw	r2,8(r10)
 1006440:	19800015 	stw	r6,0(r3)
 1006444:	11000115 	stw	r4,4(r2)
 1006448:	12800215 	stw	r10,8(r2)
 100644c:	12800315 	stw	r10,12(r2)
 1006450:	9009883a 	mov	r4,r18
 1006454:	100eec80 	call	100eec8 <__malloc_unlock>
 1006458:	80c00204 	addi	r3,r16,8
 100645c:	003f5906 	br	10061c4 <_malloc_r+0x50>
 1006460:	8109883a 	add	r4,r16,r4
 1006464:	20800117 	ldw	r2,4(r4)
 1006468:	80c00217 	ldw	r3,8(r16)
 100646c:	81400317 	ldw	r5,12(r16)
 1006470:	10800054 	ori	r2,r2,1
 1006474:	20800115 	stw	r2,4(r4)
 1006478:	28c00215 	stw	r3,8(r5)
 100647c:	19400315 	stw	r5,12(r3)
 1006480:	9009883a 	mov	r4,r18
 1006484:	100eec80 	call	100eec8 <__malloc_unlock>
 1006488:	80c00204 	addi	r3,r16,8
 100648c:	003f4d06 	br	10061c4 <_malloc_r+0x50>
 1006490:	80800204 	addi	r2,r16,8
 1006494:	14000317 	ldw	r16,12(r2)
 1006498:	143f911e 	bne	r2,r16,10062e0 <_malloc_r+0x16c>
 100649c:	1a400084 	addi	r9,r3,2
 10064a0:	003f7306 	br	1006270 <_malloc_r+0xfc>
 10064a4:	88c00054 	ori	r3,r17,1
 10064a8:	8445883a 	add	r2,r16,r17
 10064ac:	80c00115 	stw	r3,4(r16)
 10064b0:	003fdf06 	br	1006430 <_malloc_r+0x2bc>
 10064b4:	e4000217 	ldw	r16,8(fp)
 10064b8:	00bfff04 	movi	r2,-4
 10064bc:	80c00117 	ldw	r3,4(r16)
 10064c0:	802d883a 	mov	r22,r16
 10064c4:	18aa703a 	and	r21,r3,r2
 10064c8:	ac401636 	bltu	r21,r17,1006524 <_malloc_r+0x3b0>
 10064cc:	ac49c83a 	sub	r4,r21,r17
 10064d0:	008003c4 	movi	r2,15
 10064d4:	1100130e 	bge	r2,r4,1006524 <_malloc_r+0x3b0>
 10064d8:	88800054 	ori	r2,r17,1
 10064dc:	8447883a 	add	r3,r16,r17
 10064e0:	80800115 	stw	r2,4(r16)
 10064e4:	20800054 	ori	r2,r4,1
 10064e8:	18800115 	stw	r2,4(r3)
 10064ec:	e0c00215 	stw	r3,8(fp)
 10064f0:	9009883a 	mov	r4,r18
 10064f4:	100eec80 	call	100eec8 <__malloc_unlock>
 10064f8:	80c00204 	addi	r3,r16,8
 10064fc:	003f3106 	br	10061c4 <_malloc_r+0x50>
 1006500:	39c00117 	ldw	r7,4(r7)
 1006504:	573ffe04 	addi	fp,r10,-8
 1006508:	003fa006 	br	100638c <_malloc_r+0x218>
 100650c:	00801504 	movi	r2,84
 1006510:	10c06736 	bltu	r2,r3,10066b0 <_malloc_r+0x53c>
 1006514:	8804d33a 	srli	r2,r17,12
 1006518:	11801b84 	addi	r6,r2,110
 100651c:	300490fa 	slli	r2,r6,3
 1006520:	003f4106 	br	1006228 <_malloc_r+0xb4>
 1006524:	d0a6cf17 	ldw	r2,-25796(gp)
 1006528:	d0e00117 	ldw	r3,-32764(gp)
 100652c:	053fffc4 	movi	r20,-1
 1006530:	10800404 	addi	r2,r2,16
 1006534:	88a7883a 	add	r19,r17,r2
 1006538:	1d000326 	beq	r3,r20,1006548 <_malloc_r+0x3d4>
 100653c:	98c3ffc4 	addi	r3,r19,4095
 1006540:	00bc0004 	movi	r2,-4096
 1006544:	18a6703a 	and	r19,r3,r2
 1006548:	9009883a 	mov	r4,r18
 100654c:	980b883a 	mov	r5,r19
 1006550:	1006a740 	call	1006a74 <_sbrk_r>
 1006554:	1009883a 	mov	r4,r2
 1006558:	15000426 	beq	r2,r20,100656c <_malloc_r+0x3f8>
 100655c:	854b883a 	add	r5,r16,r21
 1006560:	1029883a 	mov	r20,r2
 1006564:	11405a2e 	bgeu	r2,r5,10066d0 <_malloc_r+0x55c>
 1006568:	87000c26 	beq	r16,fp,100659c <_malloc_r+0x428>
 100656c:	e4000217 	ldw	r16,8(fp)
 1006570:	80c00117 	ldw	r3,4(r16)
 1006574:	00bfff04 	movi	r2,-4
 1006578:	1884703a 	and	r2,r3,r2
 100657c:	14400336 	bltu	r2,r17,100658c <_malloc_r+0x418>
 1006580:	1449c83a 	sub	r4,r2,r17
 1006584:	008003c4 	movi	r2,15
 1006588:	113fd316 	blt	r2,r4,10064d8 <_malloc_r+0x364>
 100658c:	9009883a 	mov	r4,r18
 1006590:	100eec80 	call	100eec8 <__malloc_unlock>
 1006594:	0007883a 	mov	r3,zero
 1006598:	003f0a06 	br	10061c4 <_malloc_r+0x50>
 100659c:	05c04174 	movhi	r23,261
 10065a0:	bde83804 	addi	r23,r23,-24352
 10065a4:	b8800017 	ldw	r2,0(r23)
 10065a8:	988d883a 	add	r6,r19,r2
 10065ac:	b9800015 	stw	r6,0(r23)
 10065b0:	d0e00117 	ldw	r3,-32764(gp)
 10065b4:	00bfffc4 	movi	r2,-1
 10065b8:	18808e26 	beq	r3,r2,10067f4 <_malloc_r+0x680>
 10065bc:	2145c83a 	sub	r2,r4,r5
 10065c0:	3085883a 	add	r2,r6,r2
 10065c4:	b8800015 	stw	r2,0(r23)
 10065c8:	20c001cc 	andi	r3,r4,7
 10065cc:	18005f1e 	bne	r3,zero,100674c <_malloc_r+0x5d8>
 10065d0:	000b883a 	mov	r5,zero
 10065d4:	a4c5883a 	add	r2,r20,r19
 10065d8:	1083ffcc 	andi	r2,r2,4095
 10065dc:	00c40004 	movi	r3,4096
 10065e0:	1887c83a 	sub	r3,r3,r2
 10065e4:	28e7883a 	add	r19,r5,r3
 10065e8:	9009883a 	mov	r4,r18
 10065ec:	980b883a 	mov	r5,r19
 10065f0:	1006a740 	call	1006a74 <_sbrk_r>
 10065f4:	1007883a 	mov	r3,r2
 10065f8:	00bfffc4 	movi	r2,-1
 10065fc:	18807a26 	beq	r3,r2,10067e8 <_malloc_r+0x674>
 1006600:	1d05c83a 	sub	r2,r3,r20
 1006604:	9885883a 	add	r2,r19,r2
 1006608:	10c00054 	ori	r3,r2,1
 100660c:	b8800017 	ldw	r2,0(r23)
 1006610:	a021883a 	mov	r16,r20
 1006614:	a0c00115 	stw	r3,4(r20)
 1006618:	9885883a 	add	r2,r19,r2
 100661c:	b8800015 	stw	r2,0(r23)
 1006620:	e5000215 	stw	r20,8(fp)
 1006624:	b7003626 	beq	r22,fp,1006700 <_malloc_r+0x58c>
 1006628:	018003c4 	movi	r6,15
 100662c:	35404b36 	bltu	r6,r21,100675c <_malloc_r+0x5e8>
 1006630:	00800044 	movi	r2,1
 1006634:	a0800115 	stw	r2,4(r20)
 1006638:	003fcd06 	br	1006570 <_malloc_r+0x3fc>
 100663c:	2808d27a 	srli	r4,r5,9
 1006640:	2000371e 	bne	r4,zero,1006720 <_malloc_r+0x5ac>
 1006644:	2808d0fa 	srli	r4,r5,3
 1006648:	200690fa 	slli	r3,r4,3
 100664c:	1ad1883a 	add	r8,r3,r11
 1006650:	41800217 	ldw	r6,8(r8)
 1006654:	41805b26 	beq	r8,r6,10067c4 <_malloc_r+0x650>
 1006658:	30800117 	ldw	r2,4(r6)
 100665c:	00ffff04 	movi	r3,-4
 1006660:	10c4703a 	and	r2,r2,r3
 1006664:	2880022e 	bgeu	r5,r2,1006670 <_malloc_r+0x4fc>
 1006668:	31800217 	ldw	r6,8(r6)
 100666c:	41bffa1e 	bne	r8,r6,1006658 <_malloc_r+0x4e4>
 1006670:	32000317 	ldw	r8,12(r6)
 1006674:	39c00117 	ldw	r7,4(r7)
 1006678:	82000315 	stw	r8,12(r16)
 100667c:	81800215 	stw	r6,8(r16)
 1006680:	07004134 	movhi	fp,260
 1006684:	e71aaa04 	addi	fp,fp,27304
 1006688:	34000315 	stw	r16,12(r6)
 100668c:	44000215 	stw	r16,8(r8)
 1006690:	003f3e06 	br	100638c <_malloc_r+0x218>
 1006694:	63000044 	addi	r12,r12,1
 1006698:	608000cc 	andi	r2,r12,3
 100669c:	10005d26 	beq	r2,zero,1006814 <_malloc_r+0x6a0>
 10066a0:	18c00204 	addi	r3,r3,8
 10066a4:	003f5106 	br	10063ec <_malloc_r+0x278>
 10066a8:	8089883a 	add	r4,r16,r2
 10066ac:	003f6d06 	br	1006464 <_malloc_r+0x2f0>
 10066b0:	00805504 	movi	r2,340
 10066b4:	10c02036 	bltu	r2,r3,1006738 <_malloc_r+0x5c4>
 10066b8:	8804d3fa 	srli	r2,r17,15
 10066bc:	11801dc4 	addi	r6,r2,119
 10066c0:	300490fa 	slli	r2,r6,3
 10066c4:	003ed806 	br	1006228 <_malloc_r+0xb4>
 10066c8:	48c000c4 	addi	r3,r9,3
 10066cc:	003f3106 	br	1006394 <_malloc_r+0x220>
 10066d0:	05c04174 	movhi	r23,261
 10066d4:	bde83804 	addi	r23,r23,-24352
 10066d8:	b8800017 	ldw	r2,0(r23)
 10066dc:	988d883a 	add	r6,r19,r2
 10066e0:	b9800015 	stw	r6,0(r23)
 10066e4:	293fb21e 	bne	r5,r4,10065b0 <_malloc_r+0x43c>
 10066e8:	2083ffcc 	andi	r2,r4,4095
 10066ec:	103fb01e 	bne	r2,zero,10065b0 <_malloc_r+0x43c>
 10066f0:	e4000217 	ldw	r16,8(fp)
 10066f4:	9d45883a 	add	r2,r19,r21
 10066f8:	10800054 	ori	r2,r2,1
 10066fc:	80800115 	stw	r2,4(r16)
 1006700:	b8c00017 	ldw	r3,0(r23)
 1006704:	d0a6d017 	ldw	r2,-25792(gp)
 1006708:	10c0012e 	bgeu	r2,r3,1006710 <_malloc_r+0x59c>
 100670c:	d0e6d015 	stw	r3,-25792(gp)
 1006710:	d0a6d117 	ldw	r2,-25788(gp)
 1006714:	10ff962e 	bgeu	r2,r3,1006570 <_malloc_r+0x3fc>
 1006718:	d0e6d115 	stw	r3,-25788(gp)
 100671c:	003f9406 	br	1006570 <_malloc_r+0x3fc>
 1006720:	00800104 	movi	r2,4
 1006724:	11001e36 	bltu	r2,r4,10067a0 <_malloc_r+0x62c>
 1006728:	2804d1ba 	srli	r2,r5,6
 100672c:	11000e04 	addi	r4,r2,56
 1006730:	200690fa 	slli	r3,r4,3
 1006734:	003fc506 	br	100664c <_malloc_r+0x4d8>
 1006738:	00815504 	movi	r2,1364
 100673c:	10c01d2e 	bgeu	r2,r3,10067b4 <_malloc_r+0x640>
 1006740:	01801f84 	movi	r6,126
 1006744:	0080fc04 	movi	r2,1008
 1006748:	003eb706 	br	1006228 <_malloc_r+0xb4>
 100674c:	00800204 	movi	r2,8
 1006750:	10cbc83a 	sub	r5,r2,r3
 1006754:	2169883a 	add	r20,r4,r5
 1006758:	003f9e06 	br	10065d4 <_malloc_r+0x460>
 100675c:	00bffe04 	movi	r2,-8
 1006760:	a93ffd04 	addi	r4,r21,-12
 1006764:	2088703a 	and	r4,r4,r2
 1006768:	b10b883a 	add	r5,r22,r4
 100676c:	00c00144 	movi	r3,5
 1006770:	28c00215 	stw	r3,8(r5)
 1006774:	28c00115 	stw	r3,4(r5)
 1006778:	b0800117 	ldw	r2,4(r22)
 100677c:	1080004c 	andi	r2,r2,1
 1006780:	2084b03a 	or	r2,r4,r2
 1006784:	b0800115 	stw	r2,4(r22)
 1006788:	313fdd2e 	bgeu	r6,r4,1006700 <_malloc_r+0x58c>
 100678c:	b1400204 	addi	r5,r22,8
 1006790:	9009883a 	mov	r4,r18
 1006794:	100aa780 	call	100aa78 <_free_r>
 1006798:	e4000217 	ldw	r16,8(fp)
 100679c:	003fd806 	br	1006700 <_malloc_r+0x58c>
 10067a0:	00800504 	movi	r2,20
 10067a4:	11001536 	bltu	r2,r4,10067fc <_malloc_r+0x688>
 10067a8:	210016c4 	addi	r4,r4,91
 10067ac:	200690fa 	slli	r3,r4,3
 10067b0:	003fa606 	br	100664c <_malloc_r+0x4d8>
 10067b4:	8804d4ba 	srli	r2,r17,18
 10067b8:	11801f04 	addi	r6,r2,124
 10067bc:	300490fa 	slli	r2,r6,3
 10067c0:	003e9906 	br	1006228 <_malloc_r+0xb4>
 10067c4:	2009d0ba 	srai	r4,r4,2
 10067c8:	01404134 	movhi	r5,260
 10067cc:	295aaa04 	addi	r5,r5,27304
 10067d0:	00c00044 	movi	r3,1
 10067d4:	28800117 	ldw	r2,4(r5)
 10067d8:	1906983a 	sll	r3,r3,r4
 10067dc:	10c4b03a 	or	r2,r2,r3
 10067e0:	28800115 	stw	r2,4(r5)
 10067e4:	003fa306 	br	1006674 <_malloc_r+0x500>
 10067e8:	0027883a 	mov	r19,zero
 10067ec:	00c00044 	movi	r3,1
 10067f0:	003f8606 	br	100660c <_malloc_r+0x498>
 10067f4:	d1200115 	stw	r4,-32764(gp)
 10067f8:	003f7306 	br	10065c8 <_malloc_r+0x454>
 10067fc:	00801504 	movi	r2,84
 1006800:	11001936 	bltu	r2,r4,1006868 <_malloc_r+0x6f4>
 1006804:	2804d33a 	srli	r2,r5,12
 1006808:	11001b84 	addi	r4,r2,110
 100680c:	200690fa 	slli	r3,r4,3
 1006810:	003f8e06 	br	100664c <_malloc_r+0x4d8>
 1006814:	480b883a 	mov	r5,r9
 1006818:	6807883a 	mov	r3,r13
 100681c:	288000cc 	andi	r2,r5,3
 1006820:	18fffe04 	addi	r3,r3,-8
 1006824:	297fffc4 	addi	r5,r5,-1
 1006828:	10001526 	beq	r2,zero,1006880 <_malloc_r+0x70c>
 100682c:	18800217 	ldw	r2,8(r3)
 1006830:	10fffa26 	beq	r2,r3,100681c <_malloc_r+0x6a8>
 1006834:	2109883a 	add	r4,r4,r4
 1006838:	393f1e36 	bltu	r7,r4,10064b4 <_malloc_r+0x340>
 100683c:	203f1d26 	beq	r4,zero,10064b4 <_malloc_r+0x340>
 1006840:	21c4703a 	and	r2,r4,r7
 1006844:	10000226 	beq	r2,zero,1006850 <_malloc_r+0x6dc>
 1006848:	6013883a 	mov	r9,r12
 100684c:	003ee106 	br	10063d4 <_malloc_r+0x260>
 1006850:	2109883a 	add	r4,r4,r4
 1006854:	3904703a 	and	r2,r7,r4
 1006858:	63000104 	addi	r12,r12,4
 100685c:	103ffc26 	beq	r2,zero,1006850 <_malloc_r+0x6dc>
 1006860:	6013883a 	mov	r9,r12
 1006864:	003edb06 	br	10063d4 <_malloc_r+0x260>
 1006868:	00805504 	movi	r2,340
 100686c:	11000836 	bltu	r2,r4,1006890 <_malloc_r+0x71c>
 1006870:	2804d3fa 	srli	r2,r5,15
 1006874:	11001dc4 	addi	r4,r2,119
 1006878:	200690fa 	slli	r3,r4,3
 100687c:	003f7306 	br	100664c <_malloc_r+0x4d8>
 1006880:	0104303a 	nor	r2,zero,r4
 1006884:	388e703a 	and	r7,r7,r2
 1006888:	e1c00115 	stw	r7,4(fp)
 100688c:	003fe906 	br	1006834 <_malloc_r+0x6c0>
 1006890:	00815504 	movi	r2,1364
 1006894:	1100032e 	bgeu	r2,r4,10068a4 <_malloc_r+0x730>
 1006898:	01001f84 	movi	r4,126
 100689c:	00c0fc04 	movi	r3,1008
 10068a0:	003f6a06 	br	100664c <_malloc_r+0x4d8>
 10068a4:	2804d4ba 	srli	r2,r5,18
 10068a8:	11001f04 	addi	r4,r2,124
 10068ac:	200690fa 	slli	r3,r4,3
 10068b0:	003f6606 	br	100664c <_malloc_r+0x4d8>

010068b4 <printf>:
 10068b4:	defffb04 	addi	sp,sp,-20
 10068b8:	dfc00115 	stw	ra,4(sp)
 10068bc:	d9400215 	stw	r5,8(sp)
 10068c0:	d9800315 	stw	r6,12(sp)
 10068c4:	d9c00415 	stw	r7,16(sp)
 10068c8:	00804174 	movhi	r2,261
 10068cc:	10a15a04 	addi	r2,r2,-31384
 10068d0:	10c00017 	ldw	r3,0(r2)
 10068d4:	200b883a 	mov	r5,r4
 10068d8:	d8800204 	addi	r2,sp,8
 10068dc:	19000217 	ldw	r4,8(r3)
 10068e0:	100d883a 	mov	r6,r2
 10068e4:	d8800015 	stw	r2,0(sp)
 10068e8:	1008ad00 	call	1008ad0 <__vfprintf_internal>
 10068ec:	dfc00117 	ldw	ra,4(sp)
 10068f0:	dec00504 	addi	sp,sp,20
 10068f4:	f800283a 	ret

010068f8 <_printf_r>:
 10068f8:	defffc04 	addi	sp,sp,-16
 10068fc:	dfc00115 	stw	ra,4(sp)
 1006900:	d9800215 	stw	r6,8(sp)
 1006904:	d9c00315 	stw	r7,12(sp)
 1006908:	280d883a 	mov	r6,r5
 100690c:	21400217 	ldw	r5,8(r4)
 1006910:	d8c00204 	addi	r3,sp,8
 1006914:	180f883a 	mov	r7,r3
 1006918:	d8c00015 	stw	r3,0(sp)
 100691c:	1006c0c0 	call	1006c0c <___vfprintf_internal_r>
 1006920:	dfc00117 	ldw	ra,4(sp)
 1006924:	dec00404 	addi	sp,sp,16
 1006928:	f800283a 	ret

0100692c <_puts_r>:
 100692c:	defff604 	addi	sp,sp,-40
 1006930:	dc400715 	stw	r17,28(sp)
 1006934:	2023883a 	mov	r17,r4
 1006938:	2809883a 	mov	r4,r5
 100693c:	dfc00915 	stw	ra,36(sp)
 1006940:	dcc00815 	stw	r19,32(sp)
 1006944:	2827883a 	mov	r19,r5
 1006948:	1006ae40 	call	1006ae4 <strlen>
 100694c:	89400217 	ldw	r5,8(r17)
 1006950:	00c04134 	movhi	r3,260
 1006954:	18d9ff04 	addi	r3,r3,26620
 1006958:	01c00044 	movi	r7,1
 100695c:	12000044 	addi	r8,r2,1
 1006960:	d8c00515 	stw	r3,20(sp)
 1006964:	d9c00615 	stw	r7,24(sp)
 1006968:	d8c00304 	addi	r3,sp,12
 100696c:	01c00084 	movi	r7,2
 1006970:	8809883a 	mov	r4,r17
 1006974:	d80d883a 	mov	r6,sp
 1006978:	d8c00015 	stw	r3,0(sp)
 100697c:	dcc00315 	stw	r19,12(sp)
 1006980:	da000215 	stw	r8,8(sp)
 1006984:	d9c00115 	stw	r7,4(sp)
 1006988:	d8800415 	stw	r2,16(sp)
 100698c:	100ad8c0 	call	100ad8c <__sfvwrite_r>
 1006990:	00ffffc4 	movi	r3,-1
 1006994:	10000626 	beq	r2,zero,10069b0 <_puts_r+0x84>
 1006998:	1805883a 	mov	r2,r3
 100699c:	dfc00917 	ldw	ra,36(sp)
 10069a0:	dcc00817 	ldw	r19,32(sp)
 10069a4:	dc400717 	ldw	r17,28(sp)
 10069a8:	dec00a04 	addi	sp,sp,40
 10069ac:	f800283a 	ret
 10069b0:	00c00284 	movi	r3,10
 10069b4:	1805883a 	mov	r2,r3
 10069b8:	dfc00917 	ldw	ra,36(sp)
 10069bc:	dcc00817 	ldw	r19,32(sp)
 10069c0:	dc400717 	ldw	r17,28(sp)
 10069c4:	dec00a04 	addi	sp,sp,40
 10069c8:	f800283a 	ret

010069cc <puts>:
 10069cc:	00804174 	movhi	r2,261
 10069d0:	10a15a04 	addi	r2,r2,-31384
 10069d4:	200b883a 	mov	r5,r4
 10069d8:	11000017 	ldw	r4,0(r2)
 10069dc:	100692c1 	jmpi	100692c <_puts_r>

010069e0 <srand>:
 10069e0:	00804174 	movhi	r2,261
 10069e4:	10a15a04 	addi	r2,r2,-31384
 10069e8:	11400017 	ldw	r5,0(r2)
 10069ec:	0007883a 	mov	r3,zero
 10069f0:	28c02a15 	stw	r3,168(r5)
 10069f4:	29002915 	stw	r4,164(r5)
 10069f8:	f800283a 	ret

010069fc <rand>:
 10069fc:	defffe04 	addi	sp,sp,-8
 1006a00:	00804174 	movhi	r2,261
 1006a04:	10a15a04 	addi	r2,r2,-31384
 1006a08:	dc000015 	stw	r16,0(sp)
 1006a0c:	14000017 	ldw	r16,0(r2)
 1006a10:	dfc00115 	stw	ra,4(sp)
 1006a14:	00932574 	movhi	r2,19605
 1006a18:	109fcb44 	addi	r2,r2,32557
 1006a1c:	82002917 	ldw	r8,164(r16)
 1006a20:	82402a17 	ldw	r9,168(r16)
 1006a24:	00d614b4 	movhi	r3,22610
 1006a28:	18fd0b44 	addi	r3,r3,-3027
 1006a2c:	4009883a 	mov	r4,r8
 1006a30:	180f883a 	mov	r7,r3
 1006a34:	100d883a 	mov	r6,r2
 1006a38:	480b883a 	mov	r5,r9
 1006a3c:	1005a940 	call	1005a94 <__muldi3>
 1006a40:	02000044 	movi	r8,1
 1006a44:	1209883a 	add	r4,r2,r8
 1006a48:	2095803a 	cmpltu	r10,r4,r2
 1006a4c:	50d5883a 	add	r10,r10,r3
 1006a50:	81002915 	stw	r4,164(r16)
 1006a54:	01200034 	movhi	r4,32768
 1006a58:	213fffc4 	addi	r4,r4,-1
 1006a5c:	2284703a 	and	r2,r4,r10
 1006a60:	82802a15 	stw	r10,168(r16)
 1006a64:	dfc00117 	ldw	ra,4(sp)
 1006a68:	dc000017 	ldw	r16,0(sp)
 1006a6c:	dec00204 	addi	sp,sp,8
 1006a70:	f800283a 	ret

01006a74 <_sbrk_r>:
 1006a74:	defffd04 	addi	sp,sp,-12
 1006a78:	dc000015 	stw	r16,0(sp)
 1006a7c:	04004174 	movhi	r16,261
 1006a80:	84282a04 	addi	r16,r16,-24408
 1006a84:	dc400115 	stw	r17,4(sp)
 1006a88:	80000015 	stw	zero,0(r16)
 1006a8c:	2023883a 	mov	r17,r4
 1006a90:	2809883a 	mov	r4,r5
 1006a94:	dfc00215 	stw	ra,8(sp)
 1006a98:	100f0e40 	call	100f0e4 <sbrk>
 1006a9c:	1007883a 	mov	r3,r2
 1006aa0:	00bfffc4 	movi	r2,-1
 1006aa4:	18800626 	beq	r3,r2,1006ac0 <_sbrk_r+0x4c>
 1006aa8:	1805883a 	mov	r2,r3
 1006aac:	dfc00217 	ldw	ra,8(sp)
 1006ab0:	dc400117 	ldw	r17,4(sp)
 1006ab4:	dc000017 	ldw	r16,0(sp)
 1006ab8:	dec00304 	addi	sp,sp,12
 1006abc:	f800283a 	ret
 1006ac0:	80800017 	ldw	r2,0(r16)
 1006ac4:	103ff826 	beq	r2,zero,1006aa8 <_sbrk_r+0x34>
 1006ac8:	88800015 	stw	r2,0(r17)
 1006acc:	1805883a 	mov	r2,r3
 1006ad0:	dfc00217 	ldw	ra,8(sp)
 1006ad4:	dc400117 	ldw	r17,4(sp)
 1006ad8:	dc000017 	ldw	r16,0(sp)
 1006adc:	dec00304 	addi	sp,sp,12
 1006ae0:	f800283a 	ret

01006ae4 <strlen>:
 1006ae4:	208000cc 	andi	r2,r4,3
 1006ae8:	2011883a 	mov	r8,r4
 1006aec:	1000161e 	bne	r2,zero,1006b48 <strlen+0x64>
 1006af0:	20c00017 	ldw	r3,0(r4)
 1006af4:	017fbff4 	movhi	r5,65279
 1006af8:	297fbfc4 	addi	r5,r5,-257
 1006afc:	01e02074 	movhi	r7,32897
 1006b00:	39e02004 	addi	r7,r7,-32640
 1006b04:	1945883a 	add	r2,r3,r5
 1006b08:	11c4703a 	and	r2,r2,r7
 1006b0c:	00c6303a 	nor	r3,zero,r3
 1006b10:	1886703a 	and	r3,r3,r2
 1006b14:	18000c1e 	bne	r3,zero,1006b48 <strlen+0x64>
 1006b18:	280d883a 	mov	r6,r5
 1006b1c:	380b883a 	mov	r5,r7
 1006b20:	21000104 	addi	r4,r4,4
 1006b24:	20800017 	ldw	r2,0(r4)
 1006b28:	1187883a 	add	r3,r2,r6
 1006b2c:	1946703a 	and	r3,r3,r5
 1006b30:	0084303a 	nor	r2,zero,r2
 1006b34:	10c4703a 	and	r2,r2,r3
 1006b38:	103ff926 	beq	r2,zero,1006b20 <strlen+0x3c>
 1006b3c:	20800007 	ldb	r2,0(r4)
 1006b40:	10000326 	beq	r2,zero,1006b50 <strlen+0x6c>
 1006b44:	21000044 	addi	r4,r4,1
 1006b48:	20800007 	ldb	r2,0(r4)
 1006b4c:	103ffd1e 	bne	r2,zero,1006b44 <strlen+0x60>
 1006b50:	2205c83a 	sub	r2,r4,r8
 1006b54:	f800283a 	ret

01006b58 <time>:
 1006b58:	defffc04 	addi	sp,sp,-16
 1006b5c:	00804174 	movhi	r2,261
 1006b60:	10a15a04 	addi	r2,r2,-31384
 1006b64:	dc000215 	stw	r16,8(sp)
 1006b68:	2021883a 	mov	r16,r4
 1006b6c:	11000017 	ldw	r4,0(r2)
 1006b70:	d80b883a 	mov	r5,sp
 1006b74:	000d883a 	mov	r6,zero
 1006b78:	dfc00315 	stw	ra,12(sp)
 1006b7c:	100b3a80 	call	100b3a8 <_gettimeofday_r>
 1006b80:	00ffffc4 	movi	r3,-1
 1006b84:	10000416 	blt	r2,zero,1006b98 <time+0x40>
 1006b88:	80000826 	beq	r16,zero,1006bac <time+0x54>
 1006b8c:	d8800017 	ldw	r2,0(sp)
 1006b90:	80800015 	stw	r2,0(r16)
 1006b94:	1007883a 	mov	r3,r2
 1006b98:	1805883a 	mov	r2,r3
 1006b9c:	dfc00317 	ldw	ra,12(sp)
 1006ba0:	dc000217 	ldw	r16,8(sp)
 1006ba4:	dec00404 	addi	sp,sp,16
 1006ba8:	f800283a 	ret
 1006bac:	d8800017 	ldw	r2,0(sp)
 1006bb0:	003ff806 	br	1006b94 <time+0x3c>

01006bb4 <__sprint_r>:
 1006bb4:	30800217 	ldw	r2,8(r6)
 1006bb8:	defffe04 	addi	sp,sp,-8
 1006bbc:	dc000015 	stw	r16,0(sp)
 1006bc0:	dfc00115 	stw	ra,4(sp)
 1006bc4:	3021883a 	mov	r16,r6
 1006bc8:	0007883a 	mov	r3,zero
 1006bcc:	1000061e 	bne	r2,zero,1006be8 <__sprint_r+0x34>
 1006bd0:	1805883a 	mov	r2,r3
 1006bd4:	30000115 	stw	zero,4(r6)
 1006bd8:	dfc00117 	ldw	ra,4(sp)
 1006bdc:	dc000017 	ldw	r16,0(sp)
 1006be0:	dec00204 	addi	sp,sp,8
 1006be4:	f800283a 	ret
 1006be8:	100ad8c0 	call	100ad8c <__sfvwrite_r>
 1006bec:	1007883a 	mov	r3,r2
 1006bf0:	1805883a 	mov	r2,r3
 1006bf4:	80000115 	stw	zero,4(r16)
 1006bf8:	80000215 	stw	zero,8(r16)
 1006bfc:	dfc00117 	ldw	ra,4(sp)
 1006c00:	dc000017 	ldw	r16,0(sp)
 1006c04:	dec00204 	addi	sp,sp,8
 1006c08:	f800283a 	ret

01006c0c <___vfprintf_internal_r>:
 1006c0c:	defea404 	addi	sp,sp,-1392
 1006c10:	dd815815 	stw	r22,1376(sp)
 1006c14:	dc015215 	stw	r16,1352(sp)
 1006c18:	d9c15115 	stw	r7,1348(sp)
 1006c1c:	dfc15b15 	stw	ra,1388(sp)
 1006c20:	df015a15 	stw	fp,1384(sp)
 1006c24:	ddc15915 	stw	r23,1380(sp)
 1006c28:	dd415715 	stw	r21,1372(sp)
 1006c2c:	dd015615 	stw	r20,1368(sp)
 1006c30:	dcc15515 	stw	r19,1364(sp)
 1006c34:	dc815415 	stw	r18,1360(sp)
 1006c38:	dc415315 	stw	r17,1356(sp)
 1006c3c:	282d883a 	mov	r22,r5
 1006c40:	3021883a 	mov	r16,r6
 1006c44:	d9014f15 	stw	r4,1340(sp)
 1006c48:	100b4240 	call	100b424 <_localeconv_r>
 1006c4c:	10800017 	ldw	r2,0(r2)
 1006c50:	d9c15117 	ldw	r7,1348(sp)
 1006c54:	d8814915 	stw	r2,1316(sp)
 1006c58:	d8814f17 	ldw	r2,1340(sp)
 1006c5c:	10000226 	beq	r2,zero,1006c68 <___vfprintf_internal_r+0x5c>
 1006c60:	10800e17 	ldw	r2,56(r2)
 1006c64:	10020d26 	beq	r2,zero,100749c <___vfprintf_internal_r+0x890>
 1006c68:	b080030b 	ldhu	r2,12(r22)
 1006c6c:	1080020c 	andi	r2,r2,8
 1006c70:	10020e26 	beq	r2,zero,10074ac <___vfprintf_internal_r+0x8a0>
 1006c74:	b0800417 	ldw	r2,16(r22)
 1006c78:	10020c26 	beq	r2,zero,10074ac <___vfprintf_internal_r+0x8a0>
 1006c7c:	b200030b 	ldhu	r8,12(r22)
 1006c80:	00800284 	movi	r2,10
 1006c84:	40c0068c 	andi	r3,r8,26
 1006c88:	18802f1e 	bne	r3,r2,1006d48 <___vfprintf_internal_r+0x13c>
 1006c8c:	b080038f 	ldh	r2,14(r22)
 1006c90:	10002d16 	blt	r2,zero,1006d48 <___vfprintf_internal_r+0x13c>
 1006c94:	b240038b 	ldhu	r9,14(r22)
 1006c98:	b2800717 	ldw	r10,28(r22)
 1006c9c:	b2c00917 	ldw	r11,36(r22)
 1006ca0:	d9014f17 	ldw	r4,1340(sp)
 1006ca4:	dc402904 	addi	r17,sp,164
 1006ca8:	d8804004 	addi	r2,sp,256
 1006cac:	00c10004 	movi	r3,1024
 1006cb0:	423fff4c 	andi	r8,r8,65533
 1006cb4:	800d883a 	mov	r6,r16
 1006cb8:	880b883a 	mov	r5,r17
 1006cbc:	da002c0d 	sth	r8,176(sp)
 1006cc0:	da402c8d 	sth	r9,178(sp)
 1006cc4:	da803015 	stw	r10,192(sp)
 1006cc8:	dac03215 	stw	r11,200(sp)
 1006ccc:	d8802d15 	stw	r2,180(sp)
 1006cd0:	d8c02e15 	stw	r3,184(sp)
 1006cd4:	d8802915 	stw	r2,164(sp)
 1006cd8:	d8c02b15 	stw	r3,172(sp)
 1006cdc:	d8002f15 	stw	zero,188(sp)
 1006ce0:	1006c0c0 	call	1006c0c <___vfprintf_internal_r>
 1006ce4:	d8814b15 	stw	r2,1324(sp)
 1006ce8:	10000416 	blt	r2,zero,1006cfc <___vfprintf_internal_r+0xf0>
 1006cec:	d9014f17 	ldw	r4,1340(sp)
 1006cf0:	880b883a 	mov	r5,r17
 1006cf4:	100a4280 	call	100a428 <_fflush_r>
 1006cf8:	1002321e 	bne	r2,zero,10075c4 <___vfprintf_internal_r+0x9b8>
 1006cfc:	d8802c0b 	ldhu	r2,176(sp)
 1006d00:	1080100c 	andi	r2,r2,64
 1006d04:	10000326 	beq	r2,zero,1006d14 <___vfprintf_internal_r+0x108>
 1006d08:	b080030b 	ldhu	r2,12(r22)
 1006d0c:	10801014 	ori	r2,r2,64
 1006d10:	b080030d 	sth	r2,12(r22)
 1006d14:	d8814b17 	ldw	r2,1324(sp)
 1006d18:	dfc15b17 	ldw	ra,1388(sp)
 1006d1c:	df015a17 	ldw	fp,1384(sp)
 1006d20:	ddc15917 	ldw	r23,1380(sp)
 1006d24:	dd815817 	ldw	r22,1376(sp)
 1006d28:	dd415717 	ldw	r21,1372(sp)
 1006d2c:	dd015617 	ldw	r20,1368(sp)
 1006d30:	dcc15517 	ldw	r19,1364(sp)
 1006d34:	dc815417 	ldw	r18,1360(sp)
 1006d38:	dc415317 	ldw	r17,1356(sp)
 1006d3c:	dc015217 	ldw	r16,1352(sp)
 1006d40:	dec15c04 	addi	sp,sp,1392
 1006d44:	f800283a 	ret
 1006d48:	0005883a 	mov	r2,zero
 1006d4c:	0007883a 	mov	r3,zero
 1006d50:	dd401904 	addi	r21,sp,100
 1006d54:	d8814215 	stw	r2,1288(sp)
 1006d58:	802f883a 	mov	r23,r16
 1006d5c:	d8c14315 	stw	r3,1292(sp)
 1006d60:	d8014b15 	stw	zero,1324(sp)
 1006d64:	d8014815 	stw	zero,1312(sp)
 1006d68:	d8014415 	stw	zero,1296(sp)
 1006d6c:	d8014715 	stw	zero,1308(sp)
 1006d70:	dd400c15 	stw	r21,48(sp)
 1006d74:	d8000e15 	stw	zero,56(sp)
 1006d78:	d8000d15 	stw	zero,52(sp)
 1006d7c:	b8800007 	ldb	r2,0(r23)
 1006d80:	10001926 	beq	r2,zero,1006de8 <___vfprintf_internal_r+0x1dc>
 1006d84:	00c00944 	movi	r3,37
 1006d88:	10c01726 	beq	r2,r3,1006de8 <___vfprintf_internal_r+0x1dc>
 1006d8c:	b821883a 	mov	r16,r23
 1006d90:	00000106 	br	1006d98 <___vfprintf_internal_r+0x18c>
 1006d94:	10c00326 	beq	r2,r3,1006da4 <___vfprintf_internal_r+0x198>
 1006d98:	84000044 	addi	r16,r16,1
 1006d9c:	80800007 	ldb	r2,0(r16)
 1006da0:	103ffc1e 	bne	r2,zero,1006d94 <___vfprintf_internal_r+0x188>
 1006da4:	85e7c83a 	sub	r19,r16,r23
 1006da8:	98000e26 	beq	r19,zero,1006de4 <___vfprintf_internal_r+0x1d8>
 1006dac:	dc800e17 	ldw	r18,56(sp)
 1006db0:	dc400d17 	ldw	r17,52(sp)
 1006db4:	008001c4 	movi	r2,7
 1006db8:	94e5883a 	add	r18,r18,r19
 1006dbc:	8c400044 	addi	r17,r17,1
 1006dc0:	adc00015 	stw	r23,0(r21)
 1006dc4:	dc800e15 	stw	r18,56(sp)
 1006dc8:	acc00115 	stw	r19,4(r21)
 1006dcc:	dc400d15 	stw	r17,52(sp)
 1006dd0:	14428b16 	blt	r2,r17,1007800 <___vfprintf_internal_r+0xbf4>
 1006dd4:	ad400204 	addi	r21,r21,8
 1006dd8:	d9014b17 	ldw	r4,1324(sp)
 1006ddc:	24c9883a 	add	r4,r4,r19
 1006de0:	d9014b15 	stw	r4,1324(sp)
 1006de4:	802f883a 	mov	r23,r16
 1006de8:	b8800007 	ldb	r2,0(r23)
 1006dec:	10013c26 	beq	r2,zero,10072e0 <___vfprintf_internal_r+0x6d4>
 1006df0:	bdc00044 	addi	r23,r23,1
 1006df4:	d8000405 	stb	zero,16(sp)
 1006df8:	b8c00007 	ldb	r3,0(r23)
 1006dfc:	04ffffc4 	movi	r19,-1
 1006e00:	d8014c15 	stw	zero,1328(sp)
 1006e04:	d8014a15 	stw	zero,1320(sp)
 1006e08:	d8c14d15 	stw	r3,1332(sp)
 1006e0c:	bdc00044 	addi	r23,r23,1
 1006e10:	d9414d17 	ldw	r5,1332(sp)
 1006e14:	00801604 	movi	r2,88
 1006e18:	28fff804 	addi	r3,r5,-32
 1006e1c:	10c06036 	bltu	r2,r3,1006fa0 <___vfprintf_internal_r+0x394>
 1006e20:	18c5883a 	add	r2,r3,r3
 1006e24:	1085883a 	add	r2,r2,r2
 1006e28:	00c04034 	movhi	r3,256
 1006e2c:	18db8f04 	addi	r3,r3,28220
 1006e30:	10c5883a 	add	r2,r2,r3
 1006e34:	11000017 	ldw	r4,0(r2)
 1006e38:	2000683a 	jmp	r4
 1006e3c:	01007db0 	cmpltui	r4,zero,502
 1006e40:	01006fa0 	cmpeqi	r4,zero,446
 1006e44:	01006fa0 	cmpeqi	r4,zero,446
 1006e48:	01007d9c 	xori	r4,zero,502
 1006e4c:	01006fa0 	cmpeqi	r4,zero,446
 1006e50:	01006fa0 	cmpeqi	r4,zero,446
 1006e54:	01006fa0 	cmpeqi	r4,zero,446
 1006e58:	01006fa0 	cmpeqi	r4,zero,446
 1006e5c:	01006fa0 	cmpeqi	r4,zero,446
 1006e60:	01006fa0 	cmpeqi	r4,zero,446
 1006e64:	01007b7c 	xorhi	r4,zero,493
 1006e68:	01007d8c 	andi	r4,zero,502
 1006e6c:	01006fa0 	cmpeqi	r4,zero,446
 1006e70:	01007b94 	movui	r4,494
 1006e74:	01007e34 	movhi	r4,504
 1006e78:	01006fa0 	cmpeqi	r4,zero,446
 1006e7c:	01007e20 	cmpeqi	r4,zero,504
 1006e80:	01007ddc 	xori	r4,zero,503
 1006e84:	01007ddc 	xori	r4,zero,503
 1006e88:	01007ddc 	xori	r4,zero,503
 1006e8c:	01007ddc 	xori	r4,zero,503
 1006e90:	01007ddc 	xori	r4,zero,503
 1006e94:	01007ddc 	xori	r4,zero,503
 1006e98:	01007ddc 	xori	r4,zero,503
 1006e9c:	01007ddc 	xori	r4,zero,503
 1006ea0:	01007ddc 	xori	r4,zero,503
 1006ea4:	01006fa0 	cmpeqi	r4,zero,446
 1006ea8:	01006fa0 	cmpeqi	r4,zero,446
 1006eac:	01006fa0 	cmpeqi	r4,zero,446
 1006eb0:	01006fa0 	cmpeqi	r4,zero,446
 1006eb4:	01006fa0 	cmpeqi	r4,zero,446
 1006eb8:	01006fa0 	cmpeqi	r4,zero,446
 1006ebc:	01006fa0 	cmpeqi	r4,zero,446
 1006ec0:	01006fa0 	cmpeqi	r4,zero,446
 1006ec4:	01006fa0 	cmpeqi	r4,zero,446
 1006ec8:	01006fa0 	cmpeqi	r4,zero,446
 1006ecc:	010075f8 	rdprs	r4,zero,471
 1006ed0:	01007c64 	muli	r4,zero,497
 1006ed4:	01006fa0 	cmpeqi	r4,zero,446
 1006ed8:	01007c64 	muli	r4,zero,497
 1006edc:	01006fa0 	cmpeqi	r4,zero,446
 1006ee0:	01006fa0 	cmpeqi	r4,zero,446
 1006ee4:	01006fa0 	cmpeqi	r4,zero,446
 1006ee8:	01006fa0 	cmpeqi	r4,zero,446
 1006eec:	01007dc8 	cmpgei	r4,zero,503
 1006ef0:	01006fa0 	cmpeqi	r4,zero,446
 1006ef4:	01006fa0 	cmpeqi	r4,zero,446
 1006ef8:	010076ac 	andhi	r4,zero,474
 1006efc:	01006fa0 	cmpeqi	r4,zero,446
 1006f00:	01006fa0 	cmpeqi	r4,zero,446
 1006f04:	01006fa0 	cmpeqi	r4,zero,446
 1006f08:	01006fa0 	cmpeqi	r4,zero,446
 1006f0c:	01006fa0 	cmpeqi	r4,zero,446
 1006f10:	010076f8 	rdprs	r4,zero,475
 1006f14:	01006fa0 	cmpeqi	r4,zero,446
 1006f18:	01006fa0 	cmpeqi	r4,zero,446
 1006f1c:	01007d18 	cmpnei	r4,zero,500
 1006f20:	01006fa0 	cmpeqi	r4,zero,446
 1006f24:	01006fa0 	cmpeqi	r4,zero,446
 1006f28:	01006fa0 	cmpeqi	r4,zero,446
 1006f2c:	01006fa0 	cmpeqi	r4,zero,446
 1006f30:	01006fa0 	cmpeqi	r4,zero,446
 1006f34:	01006fa0 	cmpeqi	r4,zero,446
 1006f38:	01006fa0 	cmpeqi	r4,zero,446
 1006f3c:	01006fa0 	cmpeqi	r4,zero,446
 1006f40:	01006fa0 	cmpeqi	r4,zero,446
 1006f44:	01006fa0 	cmpeqi	r4,zero,446
 1006f48:	01007cec 	andhi	r4,zero,499
 1006f4c:	01007604 	movi	r4,472
 1006f50:	01007c64 	muli	r4,zero,497
 1006f54:	01007c64 	muli	r4,zero,497
 1006f58:	01007c64 	muli	r4,zero,497
 1006f5c:	01007c50 	cmplti	r4,zero,497
 1006f60:	01007604 	movi	r4,472
 1006f64:	01006fa0 	cmpeqi	r4,zero,446
 1006f68:	01006fa0 	cmpeqi	r4,zero,446
 1006f6c:	01007bd8 	cmpnei	r4,zero,495
 1006f70:	01006fa0 	cmpeqi	r4,zero,446
 1006f74:	01007ba8 	cmpgeui	r4,zero,494
 1006f78:	010076b8 	rdprs	r4,zero,474
 1006f7c:	01007c08 	cmpgei	r4,zero,496
 1006f80:	01007bf4 	movhi	r4,495
 1006f84:	01006fa0 	cmpeqi	r4,zero,446
 1006f88:	01007e9c 	xori	r4,zero,506
 1006f8c:	01006fa0 	cmpeqi	r4,zero,446
 1006f90:	01007704 	movi	r4,476
 1006f94:	01006fa0 	cmpeqi	r4,zero,446
 1006f98:	01006fa0 	cmpeqi	r4,zero,446
 1006f9c:	01007d7c 	xorhi	r4,zero,501
 1006fa0:	d9014d17 	ldw	r4,1332(sp)
 1006fa4:	2000ce26 	beq	r4,zero,10072e0 <___vfprintf_internal_r+0x6d4>
 1006fa8:	01400044 	movi	r5,1
 1006fac:	d9800f04 	addi	r6,sp,60
 1006fb0:	d9c14015 	stw	r7,1280(sp)
 1006fb4:	d9414515 	stw	r5,1300(sp)
 1006fb8:	d9814115 	stw	r6,1284(sp)
 1006fbc:	280f883a 	mov	r7,r5
 1006fc0:	d9000f05 	stb	r4,60(sp)
 1006fc4:	d8000405 	stb	zero,16(sp)
 1006fc8:	d8014615 	stw	zero,1304(sp)
 1006fcc:	d8c14c17 	ldw	r3,1328(sp)
 1006fd0:	1880008c 	andi	r2,r3,2
 1006fd4:	1005003a 	cmpeq	r2,r2,zero
 1006fd8:	d8815015 	stw	r2,1344(sp)
 1006fdc:	1000031e 	bne	r2,zero,1006fec <___vfprintf_internal_r+0x3e0>
 1006fe0:	d9014517 	ldw	r4,1300(sp)
 1006fe4:	21000084 	addi	r4,r4,2
 1006fe8:	d9014515 	stw	r4,1300(sp)
 1006fec:	d9414c17 	ldw	r5,1328(sp)
 1006ff0:	2940210c 	andi	r5,r5,132
 1006ff4:	d9414e15 	stw	r5,1336(sp)
 1006ff8:	28002d1e 	bne	r5,zero,10070b0 <___vfprintf_internal_r+0x4a4>
 1006ffc:	d9814a17 	ldw	r6,1320(sp)
 1007000:	d8814517 	ldw	r2,1300(sp)
 1007004:	30a1c83a 	sub	r16,r6,r2
 1007008:	0400290e 	bge	zero,r16,10070b0 <___vfprintf_internal_r+0x4a4>
 100700c:	00800404 	movi	r2,16
 1007010:	14045e0e 	bge	r2,r16,100818c <___vfprintf_internal_r+0x1580>
 1007014:	dc800e17 	ldw	r18,56(sp)
 1007018:	dc400d17 	ldw	r17,52(sp)
 100701c:	1027883a 	mov	r19,r2
 1007020:	07004134 	movhi	fp,260
 1007024:	e71a1b84 	addi	fp,fp,26734
 1007028:	050001c4 	movi	r20,7
 100702c:	00000306 	br	100703c <___vfprintf_internal_r+0x430>
 1007030:	843ffc04 	addi	r16,r16,-16
 1007034:	ad400204 	addi	r21,r21,8
 1007038:	9c00130e 	bge	r19,r16,1007088 <___vfprintf_internal_r+0x47c>
 100703c:	94800404 	addi	r18,r18,16
 1007040:	8c400044 	addi	r17,r17,1
 1007044:	af000015 	stw	fp,0(r21)
 1007048:	acc00115 	stw	r19,4(r21)
 100704c:	dc800e15 	stw	r18,56(sp)
 1007050:	dc400d15 	stw	r17,52(sp)
 1007054:	a47ff60e 	bge	r20,r17,1007030 <___vfprintf_internal_r+0x424>
 1007058:	d9014f17 	ldw	r4,1340(sp)
 100705c:	b00b883a 	mov	r5,r22
 1007060:	d9800c04 	addi	r6,sp,48
 1007064:	d9c15115 	stw	r7,1348(sp)
 1007068:	1006bb40 	call	1006bb4 <__sprint_r>
 100706c:	d9c15117 	ldw	r7,1348(sp)
 1007070:	10009e1e 	bne	r2,zero,10072ec <___vfprintf_internal_r+0x6e0>
 1007074:	843ffc04 	addi	r16,r16,-16
 1007078:	dc800e17 	ldw	r18,56(sp)
 100707c:	dc400d17 	ldw	r17,52(sp)
 1007080:	dd401904 	addi	r21,sp,100
 1007084:	9c3fed16 	blt	r19,r16,100703c <___vfprintf_internal_r+0x430>
 1007088:	9425883a 	add	r18,r18,r16
 100708c:	8c400044 	addi	r17,r17,1
 1007090:	008001c4 	movi	r2,7
 1007094:	af000015 	stw	fp,0(r21)
 1007098:	ac000115 	stw	r16,4(r21)
 100709c:	dc800e15 	stw	r18,56(sp)
 10070a0:	dc400d15 	stw	r17,52(sp)
 10070a4:	1441f516 	blt	r2,r17,100787c <___vfprintf_internal_r+0xc70>
 10070a8:	ad400204 	addi	r21,r21,8
 10070ac:	00000206 	br	10070b8 <___vfprintf_internal_r+0x4ac>
 10070b0:	dc800e17 	ldw	r18,56(sp)
 10070b4:	dc400d17 	ldw	r17,52(sp)
 10070b8:	d8800407 	ldb	r2,16(sp)
 10070bc:	10000b26 	beq	r2,zero,10070ec <___vfprintf_internal_r+0x4e0>
 10070c0:	00800044 	movi	r2,1
 10070c4:	94800044 	addi	r18,r18,1
 10070c8:	8c400044 	addi	r17,r17,1
 10070cc:	a8800115 	stw	r2,4(r21)
 10070d0:	d8c00404 	addi	r3,sp,16
 10070d4:	008001c4 	movi	r2,7
 10070d8:	a8c00015 	stw	r3,0(r21)
 10070dc:	dc800e15 	stw	r18,56(sp)
 10070e0:	dc400d15 	stw	r17,52(sp)
 10070e4:	1441da16 	blt	r2,r17,1007850 <___vfprintf_internal_r+0xc44>
 10070e8:	ad400204 	addi	r21,r21,8
 10070ec:	d9015017 	ldw	r4,1344(sp)
 10070f0:	20000b1e 	bne	r4,zero,1007120 <___vfprintf_internal_r+0x514>
 10070f4:	d8800444 	addi	r2,sp,17
 10070f8:	94800084 	addi	r18,r18,2
 10070fc:	8c400044 	addi	r17,r17,1
 1007100:	a8800015 	stw	r2,0(r21)
 1007104:	00c00084 	movi	r3,2
 1007108:	008001c4 	movi	r2,7
 100710c:	a8c00115 	stw	r3,4(r21)
 1007110:	dc800e15 	stw	r18,56(sp)
 1007114:	dc400d15 	stw	r17,52(sp)
 1007118:	1441c216 	blt	r2,r17,1007824 <___vfprintf_internal_r+0xc18>
 100711c:	ad400204 	addi	r21,r21,8
 1007120:	d9414e17 	ldw	r5,1336(sp)
 1007124:	00802004 	movi	r2,128
 1007128:	2880b126 	beq	r5,r2,10073f0 <___vfprintf_internal_r+0x7e4>
 100712c:	d8c14617 	ldw	r3,1304(sp)
 1007130:	19e1c83a 	sub	r16,r3,r7
 1007134:	0400260e 	bge	zero,r16,10071d0 <___vfprintf_internal_r+0x5c4>
 1007138:	00800404 	movi	r2,16
 100713c:	1403cf0e 	bge	r2,r16,100807c <___vfprintf_internal_r+0x1470>
 1007140:	1027883a 	mov	r19,r2
 1007144:	07004134 	movhi	fp,260
 1007148:	e71a1784 	addi	fp,fp,26718
 100714c:	050001c4 	movi	r20,7
 1007150:	00000306 	br	1007160 <___vfprintf_internal_r+0x554>
 1007154:	843ffc04 	addi	r16,r16,-16
 1007158:	ad400204 	addi	r21,r21,8
 100715c:	9c00130e 	bge	r19,r16,10071ac <___vfprintf_internal_r+0x5a0>
 1007160:	94800404 	addi	r18,r18,16
 1007164:	8c400044 	addi	r17,r17,1
 1007168:	af000015 	stw	fp,0(r21)
 100716c:	acc00115 	stw	r19,4(r21)
 1007170:	dc800e15 	stw	r18,56(sp)
 1007174:	dc400d15 	stw	r17,52(sp)
 1007178:	a47ff60e 	bge	r20,r17,1007154 <___vfprintf_internal_r+0x548>
 100717c:	d9014f17 	ldw	r4,1340(sp)
 1007180:	b00b883a 	mov	r5,r22
 1007184:	d9800c04 	addi	r6,sp,48
 1007188:	d9c15115 	stw	r7,1348(sp)
 100718c:	1006bb40 	call	1006bb4 <__sprint_r>
 1007190:	d9c15117 	ldw	r7,1348(sp)
 1007194:	1000551e 	bne	r2,zero,10072ec <___vfprintf_internal_r+0x6e0>
 1007198:	843ffc04 	addi	r16,r16,-16
 100719c:	dc800e17 	ldw	r18,56(sp)
 10071a0:	dc400d17 	ldw	r17,52(sp)
 10071a4:	dd401904 	addi	r21,sp,100
 10071a8:	9c3fed16 	blt	r19,r16,1007160 <___vfprintf_internal_r+0x554>
 10071ac:	9425883a 	add	r18,r18,r16
 10071b0:	8c400044 	addi	r17,r17,1
 10071b4:	008001c4 	movi	r2,7
 10071b8:	af000015 	stw	fp,0(r21)
 10071bc:	ac000115 	stw	r16,4(r21)
 10071c0:	dc800e15 	stw	r18,56(sp)
 10071c4:	dc400d15 	stw	r17,52(sp)
 10071c8:	14418216 	blt	r2,r17,10077d4 <___vfprintf_internal_r+0xbc8>
 10071cc:	ad400204 	addi	r21,r21,8
 10071d0:	d9014c17 	ldw	r4,1328(sp)
 10071d4:	2080400c 	andi	r2,r4,256
 10071d8:	10004a1e 	bne	r2,zero,1007304 <___vfprintf_internal_r+0x6f8>
 10071dc:	d9414117 	ldw	r5,1284(sp)
 10071e0:	91e5883a 	add	r18,r18,r7
 10071e4:	8c400044 	addi	r17,r17,1
 10071e8:	008001c4 	movi	r2,7
 10071ec:	a9400015 	stw	r5,0(r21)
 10071f0:	a9c00115 	stw	r7,4(r21)
 10071f4:	dc800e15 	stw	r18,56(sp)
 10071f8:	dc400d15 	stw	r17,52(sp)
 10071fc:	14416716 	blt	r2,r17,100779c <___vfprintf_internal_r+0xb90>
 1007200:	a8c00204 	addi	r3,r21,8
 1007204:	d9814c17 	ldw	r6,1328(sp)
 1007208:	3080010c 	andi	r2,r6,4
 100720c:	10002826 	beq	r2,zero,10072b0 <___vfprintf_internal_r+0x6a4>
 1007210:	d8814a17 	ldw	r2,1320(sp)
 1007214:	d9014517 	ldw	r4,1300(sp)
 1007218:	1121c83a 	sub	r16,r2,r4
 100721c:	0400240e 	bge	zero,r16,10072b0 <___vfprintf_internal_r+0x6a4>
 1007220:	00800404 	movi	r2,16
 1007224:	1404550e 	bge	r2,r16,100837c <___vfprintf_internal_r+0x1770>
 1007228:	dc400d17 	ldw	r17,52(sp)
 100722c:	1027883a 	mov	r19,r2
 1007230:	07004134 	movhi	fp,260
 1007234:	e71a1b84 	addi	fp,fp,26734
 1007238:	050001c4 	movi	r20,7
 100723c:	00000306 	br	100724c <___vfprintf_internal_r+0x640>
 1007240:	843ffc04 	addi	r16,r16,-16
 1007244:	18c00204 	addi	r3,r3,8
 1007248:	9c00110e 	bge	r19,r16,1007290 <___vfprintf_internal_r+0x684>
 100724c:	94800404 	addi	r18,r18,16
 1007250:	8c400044 	addi	r17,r17,1
 1007254:	1f000015 	stw	fp,0(r3)
 1007258:	1cc00115 	stw	r19,4(r3)
 100725c:	dc800e15 	stw	r18,56(sp)
 1007260:	dc400d15 	stw	r17,52(sp)
 1007264:	a47ff60e 	bge	r20,r17,1007240 <___vfprintf_internal_r+0x634>
 1007268:	d9014f17 	ldw	r4,1340(sp)
 100726c:	b00b883a 	mov	r5,r22
 1007270:	d9800c04 	addi	r6,sp,48
 1007274:	1006bb40 	call	1006bb4 <__sprint_r>
 1007278:	10001c1e 	bne	r2,zero,10072ec <___vfprintf_internal_r+0x6e0>
 100727c:	843ffc04 	addi	r16,r16,-16
 1007280:	dc800e17 	ldw	r18,56(sp)
 1007284:	dc400d17 	ldw	r17,52(sp)
 1007288:	d8c01904 	addi	r3,sp,100
 100728c:	9c3fef16 	blt	r19,r16,100724c <___vfprintf_internal_r+0x640>
 1007290:	9425883a 	add	r18,r18,r16
 1007294:	8c400044 	addi	r17,r17,1
 1007298:	008001c4 	movi	r2,7
 100729c:	1f000015 	stw	fp,0(r3)
 10072a0:	1c000115 	stw	r16,4(r3)
 10072a4:	dc800e15 	stw	r18,56(sp)
 10072a8:	dc400d15 	stw	r17,52(sp)
 10072ac:	1440cb16 	blt	r2,r17,10075dc <___vfprintf_internal_r+0x9d0>
 10072b0:	d8814a17 	ldw	r2,1320(sp)
 10072b4:	d9414517 	ldw	r5,1300(sp)
 10072b8:	1140010e 	bge	r2,r5,10072c0 <___vfprintf_internal_r+0x6b4>
 10072bc:	2805883a 	mov	r2,r5
 10072c0:	d9814b17 	ldw	r6,1324(sp)
 10072c4:	308d883a 	add	r6,r6,r2
 10072c8:	d9814b15 	stw	r6,1324(sp)
 10072cc:	90013b1e 	bne	r18,zero,10077bc <___vfprintf_internal_r+0xbb0>
 10072d0:	d9c14017 	ldw	r7,1280(sp)
 10072d4:	dd401904 	addi	r21,sp,100
 10072d8:	d8000d15 	stw	zero,52(sp)
 10072dc:	003ea706 	br	1006d7c <___vfprintf_internal_r+0x170>
 10072e0:	d8800e17 	ldw	r2,56(sp)
 10072e4:	1005451e 	bne	r2,zero,10087fc <___vfprintf_internal_r+0x1bf0>
 10072e8:	d8000d15 	stw	zero,52(sp)
 10072ec:	b080030b 	ldhu	r2,12(r22)
 10072f0:	1080100c 	andi	r2,r2,64
 10072f4:	103e8726 	beq	r2,zero,1006d14 <___vfprintf_internal_r+0x108>
 10072f8:	00bfffc4 	movi	r2,-1
 10072fc:	d8814b15 	stw	r2,1324(sp)
 1007300:	003e8406 	br	1006d14 <___vfprintf_internal_r+0x108>
 1007304:	d9814d17 	ldw	r6,1332(sp)
 1007308:	00801944 	movi	r2,101
 100730c:	11806e16 	blt	r2,r6,10074c8 <___vfprintf_internal_r+0x8bc>
 1007310:	d9414717 	ldw	r5,1308(sp)
 1007314:	00c00044 	movi	r3,1
 1007318:	1943490e 	bge	r3,r5,1008040 <___vfprintf_internal_r+0x1434>
 100731c:	d8814117 	ldw	r2,1284(sp)
 1007320:	94800044 	addi	r18,r18,1
 1007324:	8c400044 	addi	r17,r17,1
 1007328:	a8800015 	stw	r2,0(r21)
 100732c:	008001c4 	movi	r2,7
 1007330:	a8c00115 	stw	r3,4(r21)
 1007334:	dc800e15 	stw	r18,56(sp)
 1007338:	dc400d15 	stw	r17,52(sp)
 100733c:	1441ca16 	blt	r2,r17,1007a68 <___vfprintf_internal_r+0xe5c>
 1007340:	a8c00204 	addi	r3,r21,8
 1007344:	d9014917 	ldw	r4,1316(sp)
 1007348:	00800044 	movi	r2,1
 100734c:	94800044 	addi	r18,r18,1
 1007350:	8c400044 	addi	r17,r17,1
 1007354:	18800115 	stw	r2,4(r3)
 1007358:	008001c4 	movi	r2,7
 100735c:	19000015 	stw	r4,0(r3)
 1007360:	dc800e15 	stw	r18,56(sp)
 1007364:	dc400d15 	stw	r17,52(sp)
 1007368:	1441b616 	blt	r2,r17,1007a44 <___vfprintf_internal_r+0xe38>
 100736c:	1cc00204 	addi	r19,r3,8
 1007370:	d9014217 	ldw	r4,1288(sp)
 1007374:	d9414317 	ldw	r5,1292(sp)
 1007378:	000d883a 	mov	r6,zero
 100737c:	000f883a 	mov	r7,zero
 1007380:	100e3dc0 	call	100e3dc <__nedf2>
 1007384:	10017426 	beq	r2,zero,1007958 <___vfprintf_internal_r+0xd4c>
 1007388:	d9414717 	ldw	r5,1308(sp)
 100738c:	d9814117 	ldw	r6,1284(sp)
 1007390:	8c400044 	addi	r17,r17,1
 1007394:	2c85883a 	add	r2,r5,r18
 1007398:	14bfffc4 	addi	r18,r2,-1
 100739c:	28bfffc4 	addi	r2,r5,-1
 10073a0:	30c00044 	addi	r3,r6,1
 10073a4:	98800115 	stw	r2,4(r19)
 10073a8:	008001c4 	movi	r2,7
 10073ac:	98c00015 	stw	r3,0(r19)
 10073b0:	dc800e15 	stw	r18,56(sp)
 10073b4:	dc400d15 	stw	r17,52(sp)
 10073b8:	14418e16 	blt	r2,r17,10079f4 <___vfprintf_internal_r+0xde8>
 10073bc:	9cc00204 	addi	r19,r19,8
 10073c0:	d9414817 	ldw	r5,1312(sp)
 10073c4:	d8800804 	addi	r2,sp,32
 10073c8:	8c400044 	addi	r17,r17,1
 10073cc:	9165883a 	add	r18,r18,r5
 10073d0:	98800015 	stw	r2,0(r19)
 10073d4:	008001c4 	movi	r2,7
 10073d8:	99400115 	stw	r5,4(r19)
 10073dc:	dc800e15 	stw	r18,56(sp)
 10073e0:	dc400d15 	stw	r17,52(sp)
 10073e4:	1440ed16 	blt	r2,r17,100779c <___vfprintf_internal_r+0xb90>
 10073e8:	98c00204 	addi	r3,r19,8
 10073ec:	003f8506 	br	1007204 <___vfprintf_internal_r+0x5f8>
 10073f0:	d9814a17 	ldw	r6,1320(sp)
 10073f4:	d8814517 	ldw	r2,1300(sp)
 10073f8:	30a1c83a 	sub	r16,r6,r2
 10073fc:	043f4b0e 	bge	zero,r16,100712c <___vfprintf_internal_r+0x520>
 1007400:	00800404 	movi	r2,16
 1007404:	14043a0e 	bge	r2,r16,10084f0 <___vfprintf_internal_r+0x18e4>
 1007408:	1027883a 	mov	r19,r2
 100740c:	07004134 	movhi	fp,260
 1007410:	e71a1784 	addi	fp,fp,26718
 1007414:	050001c4 	movi	r20,7
 1007418:	00000306 	br	1007428 <___vfprintf_internal_r+0x81c>
 100741c:	843ffc04 	addi	r16,r16,-16
 1007420:	ad400204 	addi	r21,r21,8
 1007424:	9c00130e 	bge	r19,r16,1007474 <___vfprintf_internal_r+0x868>
 1007428:	94800404 	addi	r18,r18,16
 100742c:	8c400044 	addi	r17,r17,1
 1007430:	af000015 	stw	fp,0(r21)
 1007434:	acc00115 	stw	r19,4(r21)
 1007438:	dc800e15 	stw	r18,56(sp)
 100743c:	dc400d15 	stw	r17,52(sp)
 1007440:	a47ff60e 	bge	r20,r17,100741c <___vfprintf_internal_r+0x810>
 1007444:	d9014f17 	ldw	r4,1340(sp)
 1007448:	b00b883a 	mov	r5,r22
 100744c:	d9800c04 	addi	r6,sp,48
 1007450:	d9c15115 	stw	r7,1348(sp)
 1007454:	1006bb40 	call	1006bb4 <__sprint_r>
 1007458:	d9c15117 	ldw	r7,1348(sp)
 100745c:	103fa31e 	bne	r2,zero,10072ec <___vfprintf_internal_r+0x6e0>
 1007460:	843ffc04 	addi	r16,r16,-16
 1007464:	dc800e17 	ldw	r18,56(sp)
 1007468:	dc400d17 	ldw	r17,52(sp)
 100746c:	dd401904 	addi	r21,sp,100
 1007470:	9c3fed16 	blt	r19,r16,1007428 <___vfprintf_internal_r+0x81c>
 1007474:	9425883a 	add	r18,r18,r16
 1007478:	8c400044 	addi	r17,r17,1
 100747c:	008001c4 	movi	r2,7
 1007480:	af000015 	stw	fp,0(r21)
 1007484:	ac000115 	stw	r16,4(r21)
 1007488:	dc800e15 	stw	r18,56(sp)
 100748c:	dc400d15 	stw	r17,52(sp)
 1007490:	14416116 	blt	r2,r17,1007a18 <___vfprintf_internal_r+0xe0c>
 1007494:	ad400204 	addi	r21,r21,8
 1007498:	003f2406 	br	100712c <___vfprintf_internal_r+0x520>
 100749c:	d9014f17 	ldw	r4,1340(sp)
 10074a0:	100a6c00 	call	100a6c0 <__sinit>
 10074a4:	d9c15117 	ldw	r7,1348(sp)
 10074a8:	003def06 	br	1006c68 <___vfprintf_internal_r+0x5c>
 10074ac:	d9014f17 	ldw	r4,1340(sp)
 10074b0:	b00b883a 	mov	r5,r22
 10074b4:	d9c15115 	stw	r7,1348(sp)
 10074b8:	1008af40 	call	1008af4 <__swsetup_r>
 10074bc:	d9c15117 	ldw	r7,1348(sp)
 10074c0:	103dee26 	beq	r2,zero,1006c7c <___vfprintf_internal_r+0x70>
 10074c4:	003f8c06 	br	10072f8 <___vfprintf_internal_r+0x6ec>
 10074c8:	d9014217 	ldw	r4,1288(sp)
 10074cc:	d9414317 	ldw	r5,1292(sp)
 10074d0:	000d883a 	mov	r6,zero
 10074d4:	000f883a 	mov	r7,zero
 10074d8:	10054980 	call	1005498 <__eqdf2>
 10074dc:	1000f21e 	bne	r2,zero,10078a8 <___vfprintf_internal_r+0xc9c>
 10074e0:	00804134 	movhi	r2,260
 10074e4:	109a1704 	addi	r2,r2,26716
 10074e8:	94800044 	addi	r18,r18,1
 10074ec:	8c400044 	addi	r17,r17,1
 10074f0:	a8800015 	stw	r2,0(r21)
 10074f4:	00c00044 	movi	r3,1
 10074f8:	008001c4 	movi	r2,7
 10074fc:	a8c00115 	stw	r3,4(r21)
 1007500:	dc800e15 	stw	r18,56(sp)
 1007504:	dc400d15 	stw	r17,52(sp)
 1007508:	14430016 	blt	r2,r17,100810c <___vfprintf_internal_r+0x1500>
 100750c:	a8c00204 	addi	r3,r21,8
 1007510:	d8800517 	ldw	r2,20(sp)
 1007514:	d9014717 	ldw	r4,1308(sp)
 1007518:	11015c0e 	bge	r2,r4,1007a8c <___vfprintf_internal_r+0xe80>
 100751c:	dc400d17 	ldw	r17,52(sp)
 1007520:	d9814917 	ldw	r6,1316(sp)
 1007524:	00800044 	movi	r2,1
 1007528:	94800044 	addi	r18,r18,1
 100752c:	8c400044 	addi	r17,r17,1
 1007530:	18800115 	stw	r2,4(r3)
 1007534:	008001c4 	movi	r2,7
 1007538:	19800015 	stw	r6,0(r3)
 100753c:	dc800e15 	stw	r18,56(sp)
 1007540:	dc400d15 	stw	r17,52(sp)
 1007544:	14431616 	blt	r2,r17,10081a0 <___vfprintf_internal_r+0x1594>
 1007548:	18c00204 	addi	r3,r3,8
 100754c:	d8814717 	ldw	r2,1308(sp)
 1007550:	143fffc4 	addi	r16,r2,-1
 1007554:	043f2b0e 	bge	zero,r16,1007204 <___vfprintf_internal_r+0x5f8>
 1007558:	00800404 	movi	r2,16
 100755c:	1402a80e 	bge	r2,r16,1008000 <___vfprintf_internal_r+0x13f4>
 1007560:	dc400d17 	ldw	r17,52(sp)
 1007564:	1027883a 	mov	r19,r2
 1007568:	07004134 	movhi	fp,260
 100756c:	e71a1784 	addi	fp,fp,26718
 1007570:	050001c4 	movi	r20,7
 1007574:	00000306 	br	1007584 <___vfprintf_internal_r+0x978>
 1007578:	18c00204 	addi	r3,r3,8
 100757c:	843ffc04 	addi	r16,r16,-16
 1007580:	9c02a20e 	bge	r19,r16,100800c <___vfprintf_internal_r+0x1400>
 1007584:	94800404 	addi	r18,r18,16
 1007588:	8c400044 	addi	r17,r17,1
 100758c:	1f000015 	stw	fp,0(r3)
 1007590:	1cc00115 	stw	r19,4(r3)
 1007594:	dc800e15 	stw	r18,56(sp)
 1007598:	dc400d15 	stw	r17,52(sp)
 100759c:	a47ff60e 	bge	r20,r17,1007578 <___vfprintf_internal_r+0x96c>
 10075a0:	d9014f17 	ldw	r4,1340(sp)
 10075a4:	b00b883a 	mov	r5,r22
 10075a8:	d9800c04 	addi	r6,sp,48
 10075ac:	1006bb40 	call	1006bb4 <__sprint_r>
 10075b0:	103f4e1e 	bne	r2,zero,10072ec <___vfprintf_internal_r+0x6e0>
 10075b4:	dc800e17 	ldw	r18,56(sp)
 10075b8:	dc400d17 	ldw	r17,52(sp)
 10075bc:	d8c01904 	addi	r3,sp,100
 10075c0:	003fee06 	br	100757c <___vfprintf_internal_r+0x970>
 10075c4:	d8802c0b 	ldhu	r2,176(sp)
 10075c8:	00ffffc4 	movi	r3,-1
 10075cc:	d8c14b15 	stw	r3,1324(sp)
 10075d0:	1080100c 	andi	r2,r2,64
 10075d4:	103dcc1e 	bne	r2,zero,1006d08 <___vfprintf_internal_r+0xfc>
 10075d8:	003dce06 	br	1006d14 <___vfprintf_internal_r+0x108>
 10075dc:	d9014f17 	ldw	r4,1340(sp)
 10075e0:	b00b883a 	mov	r5,r22
 10075e4:	d9800c04 	addi	r6,sp,48
 10075e8:	1006bb40 	call	1006bb4 <__sprint_r>
 10075ec:	103f3f1e 	bne	r2,zero,10072ec <___vfprintf_internal_r+0x6e0>
 10075f0:	dc800e17 	ldw	r18,56(sp)
 10075f4:	003f2e06 	br	10072b0 <___vfprintf_internal_r+0x6a4>
 10075f8:	d9414c17 	ldw	r5,1328(sp)
 10075fc:	29400414 	ori	r5,r5,16
 1007600:	d9414c15 	stw	r5,1328(sp)
 1007604:	d9814c17 	ldw	r6,1328(sp)
 1007608:	3080080c 	andi	r2,r6,32
 100760c:	10014f1e 	bne	r2,zero,1007b4c <___vfprintf_internal_r+0xf40>
 1007610:	d8c14c17 	ldw	r3,1328(sp)
 1007614:	1880040c 	andi	r2,r3,16
 1007618:	1002f01e 	bne	r2,zero,10081dc <___vfprintf_internal_r+0x15d0>
 100761c:	d9014c17 	ldw	r4,1328(sp)
 1007620:	2080100c 	andi	r2,r4,64
 1007624:	1002ed26 	beq	r2,zero,10081dc <___vfprintf_internal_r+0x15d0>
 1007628:	3880000f 	ldh	r2,0(r7)
 100762c:	39c00104 	addi	r7,r7,4
 1007630:	d9c14015 	stw	r7,1280(sp)
 1007634:	1023d7fa 	srai	r17,r2,31
 1007638:	1021883a 	mov	r16,r2
 100763c:	88037816 	blt	r17,zero,1008420 <___vfprintf_internal_r+0x1814>
 1007640:	01000044 	movi	r4,1
 1007644:	98000416 	blt	r19,zero,1007658 <___vfprintf_internal_r+0xa4c>
 1007648:	d8c14c17 	ldw	r3,1328(sp)
 100764c:	00bfdfc4 	movi	r2,-129
 1007650:	1886703a 	and	r3,r3,r2
 1007654:	d8c14c15 	stw	r3,1328(sp)
 1007658:	8444b03a 	or	r2,r16,r17
 100765c:	10022c1e 	bne	r2,zero,1007f10 <___vfprintf_internal_r+0x1304>
 1007660:	98022b1e 	bne	r19,zero,1007f10 <___vfprintf_internal_r+0x1304>
 1007664:	20803fcc 	andi	r2,r4,255
 1007668:	1002a126 	beq	r2,zero,10080f0 <___vfprintf_internal_r+0x14e4>
 100766c:	d8c01904 	addi	r3,sp,100
 1007670:	dd000f04 	addi	r20,sp,60
 1007674:	d8c14115 	stw	r3,1284(sp)
 1007678:	d8c14117 	ldw	r3,1284(sp)
 100767c:	dcc14515 	stw	r19,1300(sp)
 1007680:	a0c5c83a 	sub	r2,r20,r3
 1007684:	11c00a04 	addi	r7,r2,40
 1007688:	99c0010e 	bge	r19,r7,1007690 <___vfprintf_internal_r+0xa84>
 100768c:	d9c14515 	stw	r7,1300(sp)
 1007690:	dcc14615 	stw	r19,1304(sp)
 1007694:	d8800407 	ldb	r2,16(sp)
 1007698:	103e4c26 	beq	r2,zero,1006fcc <___vfprintf_internal_r+0x3c0>
 100769c:	d8814517 	ldw	r2,1300(sp)
 10076a0:	10800044 	addi	r2,r2,1
 10076a4:	d8814515 	stw	r2,1300(sp)
 10076a8:	003e4806 	br	1006fcc <___vfprintf_internal_r+0x3c0>
 10076ac:	d9814c17 	ldw	r6,1328(sp)
 10076b0:	31800414 	ori	r6,r6,16
 10076b4:	d9814c15 	stw	r6,1328(sp)
 10076b8:	d8c14c17 	ldw	r3,1328(sp)
 10076bc:	1880080c 	andi	r2,r3,32
 10076c0:	1001271e 	bne	r2,zero,1007b60 <___vfprintf_internal_r+0xf54>
 10076c4:	d9414c17 	ldw	r5,1328(sp)
 10076c8:	2880040c 	andi	r2,r5,16
 10076cc:	1002bc1e 	bne	r2,zero,10081c0 <___vfprintf_internal_r+0x15b4>
 10076d0:	d9814c17 	ldw	r6,1328(sp)
 10076d4:	3080100c 	andi	r2,r6,64
 10076d8:	1002b926 	beq	r2,zero,10081c0 <___vfprintf_internal_r+0x15b4>
 10076dc:	3c00000b 	ldhu	r16,0(r7)
 10076e0:	0009883a 	mov	r4,zero
 10076e4:	39c00104 	addi	r7,r7,4
 10076e8:	0023883a 	mov	r17,zero
 10076ec:	d9c14015 	stw	r7,1280(sp)
 10076f0:	d8000405 	stb	zero,16(sp)
 10076f4:	003fd306 	br	1007644 <___vfprintf_internal_r+0xa38>
 10076f8:	d9014c17 	ldw	r4,1328(sp)
 10076fc:	21000414 	ori	r4,r4,16
 1007700:	d9014c15 	stw	r4,1328(sp)
 1007704:	d9414c17 	ldw	r5,1328(sp)
 1007708:	2880080c 	andi	r2,r5,32
 100770c:	1001081e 	bne	r2,zero,1007b30 <___vfprintf_internal_r+0xf24>
 1007710:	d8c14c17 	ldw	r3,1328(sp)
 1007714:	1880040c 	andi	r2,r3,16
 1007718:	1002b61e 	bne	r2,zero,10081f4 <___vfprintf_internal_r+0x15e8>
 100771c:	d9014c17 	ldw	r4,1328(sp)
 1007720:	2080100c 	andi	r2,r4,64
 1007724:	1002b326 	beq	r2,zero,10081f4 <___vfprintf_internal_r+0x15e8>
 1007728:	3c00000b 	ldhu	r16,0(r7)
 100772c:	01000044 	movi	r4,1
 1007730:	39c00104 	addi	r7,r7,4
 1007734:	0023883a 	mov	r17,zero
 1007738:	d9c14015 	stw	r7,1280(sp)
 100773c:	d8000405 	stb	zero,16(sp)
 1007740:	003fc006 	br	1007644 <___vfprintf_internal_r+0xa38>
 1007744:	d9014f17 	ldw	r4,1340(sp)
 1007748:	b00b883a 	mov	r5,r22
 100774c:	d9800c04 	addi	r6,sp,48
 1007750:	1006bb40 	call	1006bb4 <__sprint_r>
 1007754:	103ee51e 	bne	r2,zero,10072ec <___vfprintf_internal_r+0x6e0>
 1007758:	dc800e17 	ldw	r18,56(sp)
 100775c:	d8c01904 	addi	r3,sp,100
 1007760:	d9814c17 	ldw	r6,1328(sp)
 1007764:	3080004c 	andi	r2,r6,1
 1007768:	1005003a 	cmpeq	r2,r2,zero
 100776c:	103ea51e 	bne	r2,zero,1007204 <___vfprintf_internal_r+0x5f8>
 1007770:	00800044 	movi	r2,1
 1007774:	dc400d17 	ldw	r17,52(sp)
 1007778:	18800115 	stw	r2,4(r3)
 100777c:	d8814917 	ldw	r2,1316(sp)
 1007780:	94800044 	addi	r18,r18,1
 1007784:	8c400044 	addi	r17,r17,1
 1007788:	18800015 	stw	r2,0(r3)
 100778c:	008001c4 	movi	r2,7
 1007790:	dc800e15 	stw	r18,56(sp)
 1007794:	dc400d15 	stw	r17,52(sp)
 1007798:	1442240e 	bge	r2,r17,100802c <___vfprintf_internal_r+0x1420>
 100779c:	d9014f17 	ldw	r4,1340(sp)
 10077a0:	b00b883a 	mov	r5,r22
 10077a4:	d9800c04 	addi	r6,sp,48
 10077a8:	1006bb40 	call	1006bb4 <__sprint_r>
 10077ac:	103ecf1e 	bne	r2,zero,10072ec <___vfprintf_internal_r+0x6e0>
 10077b0:	dc800e17 	ldw	r18,56(sp)
 10077b4:	d8c01904 	addi	r3,sp,100
 10077b8:	003e9206 	br	1007204 <___vfprintf_internal_r+0x5f8>
 10077bc:	d9014f17 	ldw	r4,1340(sp)
 10077c0:	b00b883a 	mov	r5,r22
 10077c4:	d9800c04 	addi	r6,sp,48
 10077c8:	1006bb40 	call	1006bb4 <__sprint_r>
 10077cc:	103ec026 	beq	r2,zero,10072d0 <___vfprintf_internal_r+0x6c4>
 10077d0:	003ec606 	br	10072ec <___vfprintf_internal_r+0x6e0>
 10077d4:	d9014f17 	ldw	r4,1340(sp)
 10077d8:	b00b883a 	mov	r5,r22
 10077dc:	d9800c04 	addi	r6,sp,48
 10077e0:	d9c15115 	stw	r7,1348(sp)
 10077e4:	1006bb40 	call	1006bb4 <__sprint_r>
 10077e8:	d9c15117 	ldw	r7,1348(sp)
 10077ec:	103ebf1e 	bne	r2,zero,10072ec <___vfprintf_internal_r+0x6e0>
 10077f0:	dc800e17 	ldw	r18,56(sp)
 10077f4:	dc400d17 	ldw	r17,52(sp)
 10077f8:	dd401904 	addi	r21,sp,100
 10077fc:	003e7406 	br	10071d0 <___vfprintf_internal_r+0x5c4>
 1007800:	d9014f17 	ldw	r4,1340(sp)
 1007804:	b00b883a 	mov	r5,r22
 1007808:	d9800c04 	addi	r6,sp,48
 100780c:	d9c15115 	stw	r7,1348(sp)
 1007810:	1006bb40 	call	1006bb4 <__sprint_r>
 1007814:	d9c15117 	ldw	r7,1348(sp)
 1007818:	103eb41e 	bne	r2,zero,10072ec <___vfprintf_internal_r+0x6e0>
 100781c:	dd401904 	addi	r21,sp,100
 1007820:	003d6d06 	br	1006dd8 <___vfprintf_internal_r+0x1cc>
 1007824:	d9014f17 	ldw	r4,1340(sp)
 1007828:	b00b883a 	mov	r5,r22
 100782c:	d9800c04 	addi	r6,sp,48
 1007830:	d9c15115 	stw	r7,1348(sp)
 1007834:	1006bb40 	call	1006bb4 <__sprint_r>
 1007838:	d9c15117 	ldw	r7,1348(sp)
 100783c:	103eab1e 	bne	r2,zero,10072ec <___vfprintf_internal_r+0x6e0>
 1007840:	dc800e17 	ldw	r18,56(sp)
 1007844:	dc400d17 	ldw	r17,52(sp)
 1007848:	dd401904 	addi	r21,sp,100
 100784c:	003e3406 	br	1007120 <___vfprintf_internal_r+0x514>
 1007850:	d9014f17 	ldw	r4,1340(sp)
 1007854:	b00b883a 	mov	r5,r22
 1007858:	d9800c04 	addi	r6,sp,48
 100785c:	d9c15115 	stw	r7,1348(sp)
 1007860:	1006bb40 	call	1006bb4 <__sprint_r>
 1007864:	d9c15117 	ldw	r7,1348(sp)
 1007868:	103ea01e 	bne	r2,zero,10072ec <___vfprintf_internal_r+0x6e0>
 100786c:	dc800e17 	ldw	r18,56(sp)
 1007870:	dc400d17 	ldw	r17,52(sp)
 1007874:	dd401904 	addi	r21,sp,100
 1007878:	003e1c06 	br	10070ec <___vfprintf_internal_r+0x4e0>
 100787c:	d9014f17 	ldw	r4,1340(sp)
 1007880:	b00b883a 	mov	r5,r22
 1007884:	d9800c04 	addi	r6,sp,48
 1007888:	d9c15115 	stw	r7,1348(sp)
 100788c:	1006bb40 	call	1006bb4 <__sprint_r>
 1007890:	d9c15117 	ldw	r7,1348(sp)
 1007894:	103e951e 	bne	r2,zero,10072ec <___vfprintf_internal_r+0x6e0>
 1007898:	dc800e17 	ldw	r18,56(sp)
 100789c:	dc400d17 	ldw	r17,52(sp)
 10078a0:	dd401904 	addi	r21,sp,100
 10078a4:	003e0406 	br	10070b8 <___vfprintf_internal_r+0x4ac>
 10078a8:	d9000517 	ldw	r4,20(sp)
 10078ac:	0102580e 	bge	zero,r4,1008210 <___vfprintf_internal_r+0x1604>
 10078b0:	d9814717 	ldw	r6,1308(sp)
 10078b4:	21807a16 	blt	r4,r6,1007aa0 <___vfprintf_internal_r+0xe94>
 10078b8:	d8814117 	ldw	r2,1284(sp)
 10078bc:	91a5883a 	add	r18,r18,r6
 10078c0:	8c400044 	addi	r17,r17,1
 10078c4:	a8800015 	stw	r2,0(r21)
 10078c8:	008001c4 	movi	r2,7
 10078cc:	a9800115 	stw	r6,4(r21)
 10078d0:	dc800e15 	stw	r18,56(sp)
 10078d4:	dc400d15 	stw	r17,52(sp)
 10078d8:	1442fc16 	blt	r2,r17,10084cc <___vfprintf_internal_r+0x18c0>
 10078dc:	a8c00204 	addi	r3,r21,8
 10078e0:	d9414717 	ldw	r5,1308(sp)
 10078e4:	2161c83a 	sub	r16,r4,r5
 10078e8:	043f9d0e 	bge	zero,r16,1007760 <___vfprintf_internal_r+0xb54>
 10078ec:	00800404 	movi	r2,16
 10078f0:	1402190e 	bge	r2,r16,1008158 <___vfprintf_internal_r+0x154c>
 10078f4:	dc400d17 	ldw	r17,52(sp)
 10078f8:	1027883a 	mov	r19,r2
 10078fc:	07004134 	movhi	fp,260
 1007900:	e71a1784 	addi	fp,fp,26718
 1007904:	050001c4 	movi	r20,7
 1007908:	00000306 	br	1007918 <___vfprintf_internal_r+0xd0c>
 100790c:	18c00204 	addi	r3,r3,8
 1007910:	843ffc04 	addi	r16,r16,-16
 1007914:	9c02130e 	bge	r19,r16,1008164 <___vfprintf_internal_r+0x1558>
 1007918:	94800404 	addi	r18,r18,16
 100791c:	8c400044 	addi	r17,r17,1
 1007920:	1f000015 	stw	fp,0(r3)
 1007924:	1cc00115 	stw	r19,4(r3)
 1007928:	dc800e15 	stw	r18,56(sp)
 100792c:	dc400d15 	stw	r17,52(sp)
 1007930:	a47ff60e 	bge	r20,r17,100790c <___vfprintf_internal_r+0xd00>
 1007934:	d9014f17 	ldw	r4,1340(sp)
 1007938:	b00b883a 	mov	r5,r22
 100793c:	d9800c04 	addi	r6,sp,48
 1007940:	1006bb40 	call	1006bb4 <__sprint_r>
 1007944:	103e691e 	bne	r2,zero,10072ec <___vfprintf_internal_r+0x6e0>
 1007948:	dc800e17 	ldw	r18,56(sp)
 100794c:	dc400d17 	ldw	r17,52(sp)
 1007950:	d8c01904 	addi	r3,sp,100
 1007954:	003fee06 	br	1007910 <___vfprintf_internal_r+0xd04>
 1007958:	d8814717 	ldw	r2,1308(sp)
 100795c:	143fffc4 	addi	r16,r2,-1
 1007960:	043e970e 	bge	zero,r16,10073c0 <___vfprintf_internal_r+0x7b4>
 1007964:	00800404 	movi	r2,16
 1007968:	1400180e 	bge	r2,r16,10079cc <___vfprintf_internal_r+0xdc0>
 100796c:	1029883a 	mov	r20,r2
 1007970:	07004134 	movhi	fp,260
 1007974:	e71a1784 	addi	fp,fp,26718
 1007978:	054001c4 	movi	r21,7
 100797c:	00000306 	br	100798c <___vfprintf_internal_r+0xd80>
 1007980:	9cc00204 	addi	r19,r19,8
 1007984:	843ffc04 	addi	r16,r16,-16
 1007988:	a400120e 	bge	r20,r16,10079d4 <___vfprintf_internal_r+0xdc8>
 100798c:	94800404 	addi	r18,r18,16
 1007990:	8c400044 	addi	r17,r17,1
 1007994:	9f000015 	stw	fp,0(r19)
 1007998:	9d000115 	stw	r20,4(r19)
 100799c:	dc800e15 	stw	r18,56(sp)
 10079a0:	dc400d15 	stw	r17,52(sp)
 10079a4:	ac7ff60e 	bge	r21,r17,1007980 <___vfprintf_internal_r+0xd74>
 10079a8:	d9014f17 	ldw	r4,1340(sp)
 10079ac:	b00b883a 	mov	r5,r22
 10079b0:	d9800c04 	addi	r6,sp,48
 10079b4:	1006bb40 	call	1006bb4 <__sprint_r>
 10079b8:	103e4c1e 	bne	r2,zero,10072ec <___vfprintf_internal_r+0x6e0>
 10079bc:	dc800e17 	ldw	r18,56(sp)
 10079c0:	dc400d17 	ldw	r17,52(sp)
 10079c4:	dcc01904 	addi	r19,sp,100
 10079c8:	003fee06 	br	1007984 <___vfprintf_internal_r+0xd78>
 10079cc:	07004134 	movhi	fp,260
 10079d0:	e71a1784 	addi	fp,fp,26718
 10079d4:	9425883a 	add	r18,r18,r16
 10079d8:	8c400044 	addi	r17,r17,1
 10079dc:	008001c4 	movi	r2,7
 10079e0:	9f000015 	stw	fp,0(r19)
 10079e4:	9c000115 	stw	r16,4(r19)
 10079e8:	dc800e15 	stw	r18,56(sp)
 10079ec:	dc400d15 	stw	r17,52(sp)
 10079f0:	147e720e 	bge	r2,r17,10073bc <___vfprintf_internal_r+0x7b0>
 10079f4:	d9014f17 	ldw	r4,1340(sp)
 10079f8:	b00b883a 	mov	r5,r22
 10079fc:	d9800c04 	addi	r6,sp,48
 1007a00:	1006bb40 	call	1006bb4 <__sprint_r>
 1007a04:	103e391e 	bne	r2,zero,10072ec <___vfprintf_internal_r+0x6e0>
 1007a08:	dc800e17 	ldw	r18,56(sp)
 1007a0c:	dc400d17 	ldw	r17,52(sp)
 1007a10:	dcc01904 	addi	r19,sp,100
 1007a14:	003e6a06 	br	10073c0 <___vfprintf_internal_r+0x7b4>
 1007a18:	d9014f17 	ldw	r4,1340(sp)
 1007a1c:	b00b883a 	mov	r5,r22
 1007a20:	d9800c04 	addi	r6,sp,48
 1007a24:	d9c15115 	stw	r7,1348(sp)
 1007a28:	1006bb40 	call	1006bb4 <__sprint_r>
 1007a2c:	d9c15117 	ldw	r7,1348(sp)
 1007a30:	103e2e1e 	bne	r2,zero,10072ec <___vfprintf_internal_r+0x6e0>
 1007a34:	dc800e17 	ldw	r18,56(sp)
 1007a38:	dc400d17 	ldw	r17,52(sp)
 1007a3c:	dd401904 	addi	r21,sp,100
 1007a40:	003dba06 	br	100712c <___vfprintf_internal_r+0x520>
 1007a44:	d9014f17 	ldw	r4,1340(sp)
 1007a48:	b00b883a 	mov	r5,r22
 1007a4c:	d9800c04 	addi	r6,sp,48
 1007a50:	1006bb40 	call	1006bb4 <__sprint_r>
 1007a54:	103e251e 	bne	r2,zero,10072ec <___vfprintf_internal_r+0x6e0>
 1007a58:	dc800e17 	ldw	r18,56(sp)
 1007a5c:	dc400d17 	ldw	r17,52(sp)
 1007a60:	dcc01904 	addi	r19,sp,100
 1007a64:	003e4206 	br	1007370 <___vfprintf_internal_r+0x764>
 1007a68:	d9014f17 	ldw	r4,1340(sp)
 1007a6c:	b00b883a 	mov	r5,r22
 1007a70:	d9800c04 	addi	r6,sp,48
 1007a74:	1006bb40 	call	1006bb4 <__sprint_r>
 1007a78:	103e1c1e 	bne	r2,zero,10072ec <___vfprintf_internal_r+0x6e0>
 1007a7c:	dc800e17 	ldw	r18,56(sp)
 1007a80:	dc400d17 	ldw	r17,52(sp)
 1007a84:	d8c01904 	addi	r3,sp,100
 1007a88:	003e2e06 	br	1007344 <___vfprintf_internal_r+0x738>
 1007a8c:	d9414c17 	ldw	r5,1328(sp)
 1007a90:	2880004c 	andi	r2,r5,1
 1007a94:	1005003a 	cmpeq	r2,r2,zero
 1007a98:	103dda1e 	bne	r2,zero,1007204 <___vfprintf_internal_r+0x5f8>
 1007a9c:	003e9f06 	br	100751c <___vfprintf_internal_r+0x910>
 1007aa0:	d8c14117 	ldw	r3,1284(sp)
 1007aa4:	9125883a 	add	r18,r18,r4
 1007aa8:	8c400044 	addi	r17,r17,1
 1007aac:	008001c4 	movi	r2,7
 1007ab0:	a8c00015 	stw	r3,0(r21)
 1007ab4:	a9000115 	stw	r4,4(r21)
 1007ab8:	dc800e15 	stw	r18,56(sp)
 1007abc:	dc400d15 	stw	r17,52(sp)
 1007ac0:	14426c16 	blt	r2,r17,1008474 <___vfprintf_internal_r+0x1868>
 1007ac4:	a8c00204 	addi	r3,r21,8
 1007ac8:	d9414917 	ldw	r5,1316(sp)
 1007acc:	00800044 	movi	r2,1
 1007ad0:	94800044 	addi	r18,r18,1
 1007ad4:	8c400044 	addi	r17,r17,1
 1007ad8:	18800115 	stw	r2,4(r3)
 1007adc:	008001c4 	movi	r2,7
 1007ae0:	19400015 	stw	r5,0(r3)
 1007ae4:	dc800e15 	stw	r18,56(sp)
 1007ae8:	dc400d15 	stw	r17,52(sp)
 1007aec:	2021883a 	mov	r16,r4
 1007af0:	14425616 	blt	r2,r17,100844c <___vfprintf_internal_r+0x1840>
 1007af4:	19400204 	addi	r5,r3,8
 1007af8:	d9814717 	ldw	r6,1308(sp)
 1007afc:	8c400044 	addi	r17,r17,1
 1007b00:	dc400d15 	stw	r17,52(sp)
 1007b04:	3107c83a 	sub	r3,r6,r4
 1007b08:	d9014117 	ldw	r4,1284(sp)
 1007b0c:	90e5883a 	add	r18,r18,r3
 1007b10:	28c00115 	stw	r3,4(r5)
 1007b14:	8105883a 	add	r2,r16,r4
 1007b18:	28800015 	stw	r2,0(r5)
 1007b1c:	008001c4 	movi	r2,7
 1007b20:	dc800e15 	stw	r18,56(sp)
 1007b24:	147f1d16 	blt	r2,r17,100779c <___vfprintf_internal_r+0xb90>
 1007b28:	28c00204 	addi	r3,r5,8
 1007b2c:	003db506 	br	1007204 <___vfprintf_internal_r+0x5f8>
 1007b30:	3c000017 	ldw	r16,0(r7)
 1007b34:	3c400117 	ldw	r17,4(r7)
 1007b38:	39800204 	addi	r6,r7,8
 1007b3c:	01000044 	movi	r4,1
 1007b40:	d9814015 	stw	r6,1280(sp)
 1007b44:	d8000405 	stb	zero,16(sp)
 1007b48:	003ebe06 	br	1007644 <___vfprintf_internal_r+0xa38>
 1007b4c:	3c000017 	ldw	r16,0(r7)
 1007b50:	3c400117 	ldw	r17,4(r7)
 1007b54:	38800204 	addi	r2,r7,8
 1007b58:	d8814015 	stw	r2,1280(sp)
 1007b5c:	003eb706 	br	100763c <___vfprintf_internal_r+0xa30>
 1007b60:	3c000017 	ldw	r16,0(r7)
 1007b64:	3c400117 	ldw	r17,4(r7)
 1007b68:	39000204 	addi	r4,r7,8
 1007b6c:	d9014015 	stw	r4,1280(sp)
 1007b70:	0009883a 	mov	r4,zero
 1007b74:	d8000405 	stb	zero,16(sp)
 1007b78:	003eb206 	br	1007644 <___vfprintf_internal_r+0xa38>
 1007b7c:	38c00017 	ldw	r3,0(r7)
 1007b80:	39c00104 	addi	r7,r7,4
 1007b84:	d8c14a15 	stw	r3,1320(sp)
 1007b88:	1800d70e 	bge	r3,zero,1007ee8 <___vfprintf_internal_r+0x12dc>
 1007b8c:	00c7c83a 	sub	r3,zero,r3
 1007b90:	d8c14a15 	stw	r3,1320(sp)
 1007b94:	d9014c17 	ldw	r4,1328(sp)
 1007b98:	b8c00007 	ldb	r3,0(r23)
 1007b9c:	21000114 	ori	r4,r4,4
 1007ba0:	d9014c15 	stw	r4,1328(sp)
 1007ba4:	003c9806 	br	1006e08 <___vfprintf_internal_r+0x1fc>
 1007ba8:	d9814c17 	ldw	r6,1328(sp)
 1007bac:	3080080c 	andi	r2,r6,32
 1007bb0:	1001f626 	beq	r2,zero,100838c <___vfprintf_internal_r+0x1780>
 1007bb4:	d9014b17 	ldw	r4,1324(sp)
 1007bb8:	38800017 	ldw	r2,0(r7)
 1007bbc:	39c00104 	addi	r7,r7,4
 1007bc0:	d9c14015 	stw	r7,1280(sp)
 1007bc4:	2007d7fa 	srai	r3,r4,31
 1007bc8:	d9c14017 	ldw	r7,1280(sp)
 1007bcc:	11000015 	stw	r4,0(r2)
 1007bd0:	10c00115 	stw	r3,4(r2)
 1007bd4:	003c6906 	br	1006d7c <___vfprintf_internal_r+0x170>
 1007bd8:	b8c00007 	ldb	r3,0(r23)
 1007bdc:	00801b04 	movi	r2,108
 1007be0:	18825526 	beq	r3,r2,1008538 <___vfprintf_internal_r+0x192c>
 1007be4:	d9414c17 	ldw	r5,1328(sp)
 1007be8:	29400414 	ori	r5,r5,16
 1007bec:	d9414c15 	stw	r5,1328(sp)
 1007bf0:	003c8506 	br	1006e08 <___vfprintf_internal_r+0x1fc>
 1007bf4:	d9814c17 	ldw	r6,1328(sp)
 1007bf8:	b8c00007 	ldb	r3,0(r23)
 1007bfc:	31800814 	ori	r6,r6,32
 1007c00:	d9814c15 	stw	r6,1328(sp)
 1007c04:	003c8006 	br	1006e08 <___vfprintf_internal_r+0x1fc>
 1007c08:	d8814c17 	ldw	r2,1328(sp)
 1007c0c:	3c000017 	ldw	r16,0(r7)
 1007c10:	00c01e04 	movi	r3,120
 1007c14:	10800094 	ori	r2,r2,2
 1007c18:	d8814c15 	stw	r2,1328(sp)
 1007c1c:	39c00104 	addi	r7,r7,4
 1007c20:	01404134 	movhi	r5,260
 1007c24:	295a0004 	addi	r5,r5,26624
 1007c28:	00800c04 	movi	r2,48
 1007c2c:	0023883a 	mov	r17,zero
 1007c30:	01000084 	movi	r4,2
 1007c34:	d9c14015 	stw	r7,1280(sp)
 1007c38:	d8c14d15 	stw	r3,1332(sp)
 1007c3c:	d9414415 	stw	r5,1296(sp)
 1007c40:	d8800445 	stb	r2,17(sp)
 1007c44:	d8c00485 	stb	r3,18(sp)
 1007c48:	d8000405 	stb	zero,16(sp)
 1007c4c:	003e7d06 	br	1007644 <___vfprintf_internal_r+0xa38>
 1007c50:	d8814c17 	ldw	r2,1328(sp)
 1007c54:	b8c00007 	ldb	r3,0(r23)
 1007c58:	10801014 	ori	r2,r2,64
 1007c5c:	d8814c15 	stw	r2,1328(sp)
 1007c60:	003c6906 	br	1006e08 <___vfprintf_internal_r+0x1fc>
 1007c64:	d9414c17 	ldw	r5,1328(sp)
 1007c68:	2880020c 	andi	r2,r5,8
 1007c6c:	1001e526 	beq	r2,zero,1008404 <___vfprintf_internal_r+0x17f8>
 1007c70:	39800017 	ldw	r6,0(r7)
 1007c74:	38800204 	addi	r2,r7,8
 1007c78:	d8814015 	stw	r2,1280(sp)
 1007c7c:	d9814215 	stw	r6,1288(sp)
 1007c80:	39c00117 	ldw	r7,4(r7)
 1007c84:	d9c14315 	stw	r7,1292(sp)
 1007c88:	d9014217 	ldw	r4,1288(sp)
 1007c8c:	d9414317 	ldw	r5,1292(sp)
 1007c90:	100cff00 	call	100cff0 <__isinfd>
 1007c94:	10021d26 	beq	r2,zero,100850c <___vfprintf_internal_r+0x1900>
 1007c98:	d9014217 	ldw	r4,1288(sp)
 1007c9c:	d9414317 	ldw	r5,1292(sp)
 1007ca0:	000d883a 	mov	r6,zero
 1007ca4:	000f883a 	mov	r7,zero
 1007ca8:	10056300 	call	1005630 <__ltdf2>
 1007cac:	1002d016 	blt	r2,zero,10087f0 <___vfprintf_internal_r+0x1be4>
 1007cb0:	d9414d17 	ldw	r5,1332(sp)
 1007cb4:	008011c4 	movi	r2,71
 1007cb8:	11421016 	blt	r2,r5,10084fc <___vfprintf_internal_r+0x18f0>
 1007cbc:	01804134 	movhi	r6,260
 1007cc0:	319a0504 	addi	r6,r6,26644
 1007cc4:	d9814115 	stw	r6,1284(sp)
 1007cc8:	d9014c17 	ldw	r4,1328(sp)
 1007ccc:	00c000c4 	movi	r3,3
 1007cd0:	00bfdfc4 	movi	r2,-129
 1007cd4:	2088703a 	and	r4,r4,r2
 1007cd8:	180f883a 	mov	r7,r3
 1007cdc:	d8c14515 	stw	r3,1300(sp)
 1007ce0:	d9014c15 	stw	r4,1328(sp)
 1007ce4:	d8014615 	stw	zero,1304(sp)
 1007ce8:	003e6a06 	br	1007694 <___vfprintf_internal_r+0xa88>
 1007cec:	38800017 	ldw	r2,0(r7)
 1007cf0:	00c00044 	movi	r3,1
 1007cf4:	39c00104 	addi	r7,r7,4
 1007cf8:	d9c14015 	stw	r7,1280(sp)
 1007cfc:	d9000f04 	addi	r4,sp,60
 1007d00:	180f883a 	mov	r7,r3
 1007d04:	d8c14515 	stw	r3,1300(sp)
 1007d08:	d9014115 	stw	r4,1284(sp)
 1007d0c:	d8800f05 	stb	r2,60(sp)
 1007d10:	d8000405 	stb	zero,16(sp)
 1007d14:	003cac06 	br	1006fc8 <___vfprintf_internal_r+0x3bc>
 1007d18:	01404134 	movhi	r5,260
 1007d1c:	295a0b04 	addi	r5,r5,26668
 1007d20:	d9414415 	stw	r5,1296(sp)
 1007d24:	d9814c17 	ldw	r6,1328(sp)
 1007d28:	3080080c 	andi	r2,r6,32
 1007d2c:	1000ff26 	beq	r2,zero,100812c <___vfprintf_internal_r+0x1520>
 1007d30:	3c000017 	ldw	r16,0(r7)
 1007d34:	3c400117 	ldw	r17,4(r7)
 1007d38:	38800204 	addi	r2,r7,8
 1007d3c:	d8814015 	stw	r2,1280(sp)
 1007d40:	d9414c17 	ldw	r5,1328(sp)
 1007d44:	2880004c 	andi	r2,r5,1
 1007d48:	1005003a 	cmpeq	r2,r2,zero
 1007d4c:	1000b91e 	bne	r2,zero,1008034 <___vfprintf_internal_r+0x1428>
 1007d50:	8444b03a 	or	r2,r16,r17
 1007d54:	1000b726 	beq	r2,zero,1008034 <___vfprintf_internal_r+0x1428>
 1007d58:	d9814d17 	ldw	r6,1332(sp)
 1007d5c:	29400094 	ori	r5,r5,2
 1007d60:	00800c04 	movi	r2,48
 1007d64:	01000084 	movi	r4,2
 1007d68:	d9414c15 	stw	r5,1328(sp)
 1007d6c:	d8800445 	stb	r2,17(sp)
 1007d70:	d9800485 	stb	r6,18(sp)
 1007d74:	d8000405 	stb	zero,16(sp)
 1007d78:	003e3206 	br	1007644 <___vfprintf_internal_r+0xa38>
 1007d7c:	01804134 	movhi	r6,260
 1007d80:	319a0004 	addi	r6,r6,26624
 1007d84:	d9814415 	stw	r6,1296(sp)
 1007d88:	003fe606 	br	1007d24 <___vfprintf_internal_r+0x1118>
 1007d8c:	00800ac4 	movi	r2,43
 1007d90:	d8800405 	stb	r2,16(sp)
 1007d94:	b8c00007 	ldb	r3,0(r23)
 1007d98:	003c1b06 	br	1006e08 <___vfprintf_internal_r+0x1fc>
 1007d9c:	d8814c17 	ldw	r2,1328(sp)
 1007da0:	b8c00007 	ldb	r3,0(r23)
 1007da4:	10800054 	ori	r2,r2,1
 1007da8:	d8814c15 	stw	r2,1328(sp)
 1007dac:	003c1606 	br	1006e08 <___vfprintf_internal_r+0x1fc>
 1007db0:	d8800407 	ldb	r2,16(sp)
 1007db4:	10004c1e 	bne	r2,zero,1007ee8 <___vfprintf_internal_r+0x12dc>
 1007db8:	00800804 	movi	r2,32
 1007dbc:	d8800405 	stb	r2,16(sp)
 1007dc0:	b8c00007 	ldb	r3,0(r23)
 1007dc4:	003c1006 	br	1006e08 <___vfprintf_internal_r+0x1fc>
 1007dc8:	d9814c17 	ldw	r6,1328(sp)
 1007dcc:	b8c00007 	ldb	r3,0(r23)
 1007dd0:	31800214 	ori	r6,r6,8
 1007dd4:	d9814c15 	stw	r6,1328(sp)
 1007dd8:	003c0b06 	br	1006e08 <___vfprintf_internal_r+0x1fc>
 1007ddc:	0009883a 	mov	r4,zero
 1007de0:	04000244 	movi	r16,9
 1007de4:	01400284 	movi	r5,10
 1007de8:	d9c15115 	stw	r7,1348(sp)
 1007dec:	1005a5c0 	call	1005a5c <__mulsi3>
 1007df0:	b9000007 	ldb	r4,0(r23)
 1007df4:	d8c14d17 	ldw	r3,1332(sp)
 1007df8:	bdc00044 	addi	r23,r23,1
 1007dfc:	d9014d15 	stw	r4,1332(sp)
 1007e00:	d9414d17 	ldw	r5,1332(sp)
 1007e04:	1885883a 	add	r2,r3,r2
 1007e08:	113ff404 	addi	r4,r2,-48
 1007e0c:	28bff404 	addi	r2,r5,-48
 1007e10:	d9c15117 	ldw	r7,1348(sp)
 1007e14:	80bff32e 	bgeu	r16,r2,1007de4 <___vfprintf_internal_r+0x11d8>
 1007e18:	d9014a15 	stw	r4,1320(sp)
 1007e1c:	003bfc06 	br	1006e10 <___vfprintf_internal_r+0x204>
 1007e20:	d8814c17 	ldw	r2,1328(sp)
 1007e24:	b8c00007 	ldb	r3,0(r23)
 1007e28:	10802014 	ori	r2,r2,128
 1007e2c:	d8814c15 	stw	r2,1328(sp)
 1007e30:	003bf506 	br	1006e08 <___vfprintf_internal_r+0x1fc>
 1007e34:	b8c00007 	ldb	r3,0(r23)
 1007e38:	00800a84 	movi	r2,42
 1007e3c:	bdc00044 	addi	r23,r23,1
 1007e40:	18831826 	beq	r3,r2,1008aa4 <___vfprintf_internal_r+0x1e98>
 1007e44:	d8c14d15 	stw	r3,1332(sp)
 1007e48:	18bff404 	addi	r2,r3,-48
 1007e4c:	00c00244 	movi	r3,9
 1007e50:	18827b36 	bltu	r3,r2,1008840 <___vfprintf_internal_r+0x1c34>
 1007e54:	1821883a 	mov	r16,r3
 1007e58:	0009883a 	mov	r4,zero
 1007e5c:	01400284 	movi	r5,10
 1007e60:	d9c15115 	stw	r7,1348(sp)
 1007e64:	1005a5c0 	call	1005a5c <__mulsi3>
 1007e68:	d9414d17 	ldw	r5,1332(sp)
 1007e6c:	b9800007 	ldb	r6,0(r23)
 1007e70:	d9c15117 	ldw	r7,1348(sp)
 1007e74:	1145883a 	add	r2,r2,r5
 1007e78:	113ff404 	addi	r4,r2,-48
 1007e7c:	30bff404 	addi	r2,r6,-48
 1007e80:	d9814d15 	stw	r6,1332(sp)
 1007e84:	bdc00044 	addi	r23,r23,1
 1007e88:	80bff42e 	bgeu	r16,r2,1007e5c <___vfprintf_internal_r+0x1250>
 1007e8c:	2027883a 	mov	r19,r4
 1007e90:	203bdf0e 	bge	r4,zero,1006e10 <___vfprintf_internal_r+0x204>
 1007e94:	04ffffc4 	movi	r19,-1
 1007e98:	003bdd06 	br	1006e10 <___vfprintf_internal_r+0x204>
 1007e9c:	d8000405 	stb	zero,16(sp)
 1007ea0:	39800017 	ldw	r6,0(r7)
 1007ea4:	39c00104 	addi	r7,r7,4
 1007ea8:	d9c14015 	stw	r7,1280(sp)
 1007eac:	d9814115 	stw	r6,1284(sp)
 1007eb0:	3001c926 	beq	r6,zero,10085d8 <___vfprintf_internal_r+0x19cc>
 1007eb4:	98000e16 	blt	r19,zero,1007ef0 <___vfprintf_internal_r+0x12e4>
 1007eb8:	d9014117 	ldw	r4,1284(sp)
 1007ebc:	000b883a 	mov	r5,zero
 1007ec0:	980d883a 	mov	r6,r19
 1007ec4:	100b6740 	call	100b674 <memchr>
 1007ec8:	10025926 	beq	r2,zero,1008830 <___vfprintf_internal_r+0x1c24>
 1007ecc:	d8c14117 	ldw	r3,1284(sp)
 1007ed0:	10cfc83a 	sub	r7,r2,r3
 1007ed4:	99c19e16 	blt	r19,r7,1008550 <___vfprintf_internal_r+0x1944>
 1007ed8:	d9c14515 	stw	r7,1300(sp)
 1007edc:	38000916 	blt	r7,zero,1007f04 <___vfprintf_internal_r+0x12f8>
 1007ee0:	d8014615 	stw	zero,1304(sp)
 1007ee4:	003deb06 	br	1007694 <___vfprintf_internal_r+0xa88>
 1007ee8:	b8c00007 	ldb	r3,0(r23)
 1007eec:	003bc606 	br	1006e08 <___vfprintf_internal_r+0x1fc>
 1007ef0:	d9014117 	ldw	r4,1284(sp)
 1007ef4:	1006ae40 	call	1006ae4 <strlen>
 1007ef8:	d8814515 	stw	r2,1300(sp)
 1007efc:	100f883a 	mov	r7,r2
 1007f00:	103ff70e 	bge	r2,zero,1007ee0 <___vfprintf_internal_r+0x12d4>
 1007f04:	d8014515 	stw	zero,1300(sp)
 1007f08:	d8014615 	stw	zero,1304(sp)
 1007f0c:	003de106 	br	1007694 <___vfprintf_internal_r+0xa88>
 1007f10:	20c03fcc 	andi	r3,r4,255
 1007f14:	00800044 	movi	r2,1
 1007f18:	18802d26 	beq	r3,r2,1007fd0 <___vfprintf_internal_r+0x13c4>
 1007f1c:	18800e36 	bltu	r3,r2,1007f58 <___vfprintf_internal_r+0x134c>
 1007f20:	00800084 	movi	r2,2
 1007f24:	1880fa26 	beq	r3,r2,1008310 <___vfprintf_internal_r+0x1704>
 1007f28:	01004134 	movhi	r4,260
 1007f2c:	211a1004 	addi	r4,r4,26688
 1007f30:	1006ae40 	call	1006ae4 <strlen>
 1007f34:	100f883a 	mov	r7,r2
 1007f38:	dcc14515 	stw	r19,1300(sp)
 1007f3c:	9880010e 	bge	r19,r2,1007f44 <___vfprintf_internal_r+0x1338>
 1007f40:	d8814515 	stw	r2,1300(sp)
 1007f44:	00804134 	movhi	r2,260
 1007f48:	109a1004 	addi	r2,r2,26688
 1007f4c:	dcc14615 	stw	r19,1304(sp)
 1007f50:	d8814115 	stw	r2,1284(sp)
 1007f54:	003dcf06 	br	1007694 <___vfprintf_internal_r+0xa88>
 1007f58:	d9401904 	addi	r5,sp,100
 1007f5c:	dd000f04 	addi	r20,sp,60
 1007f60:	d9414115 	stw	r5,1284(sp)
 1007f64:	880a977a 	slli	r5,r17,29
 1007f68:	d9814117 	ldw	r6,1284(sp)
 1007f6c:	8004d0fa 	srli	r2,r16,3
 1007f70:	8806d0fa 	srli	r3,r17,3
 1007f74:	810001cc 	andi	r4,r16,7
 1007f78:	2884b03a 	or	r2,r5,r2
 1007f7c:	31bfffc4 	addi	r6,r6,-1
 1007f80:	21000c04 	addi	r4,r4,48
 1007f84:	d9814115 	stw	r6,1284(sp)
 1007f88:	10cab03a 	or	r5,r2,r3
 1007f8c:	31000005 	stb	r4,0(r6)
 1007f90:	1021883a 	mov	r16,r2
 1007f94:	1823883a 	mov	r17,r3
 1007f98:	283ff21e 	bne	r5,zero,1007f64 <___vfprintf_internal_r+0x1358>
 1007f9c:	d8c14c17 	ldw	r3,1328(sp)
 1007fa0:	1880004c 	andi	r2,r3,1
 1007fa4:	1005003a 	cmpeq	r2,r2,zero
 1007fa8:	103db31e 	bne	r2,zero,1007678 <___vfprintf_internal_r+0xa6c>
 1007fac:	20803fcc 	andi	r2,r4,255
 1007fb0:	1080201c 	xori	r2,r2,128
 1007fb4:	10bfe004 	addi	r2,r2,-128
 1007fb8:	00c00c04 	movi	r3,48
 1007fbc:	10fdae26 	beq	r2,r3,1007678 <___vfprintf_internal_r+0xa6c>
 1007fc0:	31bfffc4 	addi	r6,r6,-1
 1007fc4:	d9814115 	stw	r6,1284(sp)
 1007fc8:	30c00005 	stb	r3,0(r6)
 1007fcc:	003daa06 	br	1007678 <___vfprintf_internal_r+0xa6c>
 1007fd0:	88800068 	cmpgeui	r2,r17,1
 1007fd4:	10002c1e 	bne	r2,zero,1008088 <___vfprintf_internal_r+0x147c>
 1007fd8:	8800021e 	bne	r17,zero,1007fe4 <___vfprintf_internal_r+0x13d8>
 1007fdc:	00800244 	movi	r2,9
 1007fe0:	14002936 	bltu	r2,r16,1008088 <___vfprintf_internal_r+0x147c>
 1007fe4:	d90018c4 	addi	r4,sp,99
 1007fe8:	dd000f04 	addi	r20,sp,60
 1007fec:	d9014115 	stw	r4,1284(sp)
 1007ff0:	d9014117 	ldw	r4,1284(sp)
 1007ff4:	80800c04 	addi	r2,r16,48
 1007ff8:	20800005 	stb	r2,0(r4)
 1007ffc:	003d9e06 	br	1007678 <___vfprintf_internal_r+0xa6c>
 1008000:	dc400d17 	ldw	r17,52(sp)
 1008004:	07004134 	movhi	fp,260
 1008008:	e71a1784 	addi	fp,fp,26718
 100800c:	9425883a 	add	r18,r18,r16
 1008010:	8c400044 	addi	r17,r17,1
 1008014:	008001c4 	movi	r2,7
 1008018:	1f000015 	stw	fp,0(r3)
 100801c:	1c000115 	stw	r16,4(r3)
 1008020:	dc800e15 	stw	r18,56(sp)
 1008024:	dc400d15 	stw	r17,52(sp)
 1008028:	147ddc16 	blt	r2,r17,100779c <___vfprintf_internal_r+0xb90>
 100802c:	18c00204 	addi	r3,r3,8
 1008030:	003c7406 	br	1007204 <___vfprintf_internal_r+0x5f8>
 1008034:	01000084 	movi	r4,2
 1008038:	d8000405 	stb	zero,16(sp)
 100803c:	003d8106 	br	1007644 <___vfprintf_internal_r+0xa38>
 1008040:	d9814c17 	ldw	r6,1328(sp)
 1008044:	30c4703a 	and	r2,r6,r3
 1008048:	1005003a 	cmpeq	r2,r2,zero
 100804c:	103cb326 	beq	r2,zero,100731c <___vfprintf_internal_r+0x710>
 1008050:	d9014117 	ldw	r4,1284(sp)
 1008054:	94800044 	addi	r18,r18,1
 1008058:	8c400044 	addi	r17,r17,1
 100805c:	008001c4 	movi	r2,7
 1008060:	a9000015 	stw	r4,0(r21)
 1008064:	a8c00115 	stw	r3,4(r21)
 1008068:	dc800e15 	stw	r18,56(sp)
 100806c:	dc400d15 	stw	r17,52(sp)
 1008070:	147e6016 	blt	r2,r17,10079f4 <___vfprintf_internal_r+0xde8>
 1008074:	acc00204 	addi	r19,r21,8
 1008078:	003cd106 	br	10073c0 <___vfprintf_internal_r+0x7b4>
 100807c:	07004134 	movhi	fp,260
 1008080:	e71a1784 	addi	fp,fp,26718
 1008084:	003c4906 	br	10071ac <___vfprintf_internal_r+0x5a0>
 1008088:	dd000f04 	addi	r20,sp,60
 100808c:	dc801904 	addi	r18,sp,100
 1008090:	8009883a 	mov	r4,r16
 1008094:	880b883a 	mov	r5,r17
 1008098:	01800284 	movi	r6,10
 100809c:	000f883a 	mov	r7,zero
 10080a0:	100dd7c0 	call	100dd7c <__umoddi3>
 10080a4:	12000c04 	addi	r8,r2,48
 10080a8:	94bfffc4 	addi	r18,r18,-1
 10080ac:	8009883a 	mov	r4,r16
 10080b0:	880b883a 	mov	r5,r17
 10080b4:	01800284 	movi	r6,10
 10080b8:	000f883a 	mov	r7,zero
 10080bc:	92000005 	stb	r8,0(r18)
 10080c0:	100d7100 	call	100d710 <__udivdi3>
 10080c4:	1009883a 	mov	r4,r2
 10080c8:	1021883a 	mov	r16,r2
 10080cc:	18800068 	cmpgeui	r2,r3,1
 10080d0:	1823883a 	mov	r17,r3
 10080d4:	103fee1e 	bne	r2,zero,1008090 <___vfprintf_internal_r+0x1484>
 10080d8:	1800021e 	bne	r3,zero,10080e4 <___vfprintf_internal_r+0x14d8>
 10080dc:	00800244 	movi	r2,9
 10080e0:	113feb36 	bltu	r2,r4,1008090 <___vfprintf_internal_r+0x1484>
 10080e4:	94bfffc4 	addi	r18,r18,-1
 10080e8:	dc814115 	stw	r18,1284(sp)
 10080ec:	003fc006 	br	1007ff0 <___vfprintf_internal_r+0x13e4>
 10080f0:	d9014c17 	ldw	r4,1328(sp)
 10080f4:	2080004c 	andi	r2,r4,1
 10080f8:	10009a1e 	bne	r2,zero,1008364 <___vfprintf_internal_r+0x1758>
 10080fc:	d9401904 	addi	r5,sp,100
 1008100:	dd000f04 	addi	r20,sp,60
 1008104:	d9414115 	stw	r5,1284(sp)
 1008108:	003d5b06 	br	1007678 <___vfprintf_internal_r+0xa6c>
 100810c:	d9014f17 	ldw	r4,1340(sp)
 1008110:	b00b883a 	mov	r5,r22
 1008114:	d9800c04 	addi	r6,sp,48
 1008118:	1006bb40 	call	1006bb4 <__sprint_r>
 100811c:	103c731e 	bne	r2,zero,10072ec <___vfprintf_internal_r+0x6e0>
 1008120:	dc800e17 	ldw	r18,56(sp)
 1008124:	d8c01904 	addi	r3,sp,100
 1008128:	003cf906 	br	1007510 <___vfprintf_internal_r+0x904>
 100812c:	d8c14c17 	ldw	r3,1328(sp)
 1008130:	1880040c 	andi	r2,r3,16
 1008134:	1000711e 	bne	r2,zero,10082fc <___vfprintf_internal_r+0x16f0>
 1008138:	d9014c17 	ldw	r4,1328(sp)
 100813c:	2080100c 	andi	r2,r4,64
 1008140:	10006e26 	beq	r2,zero,10082fc <___vfprintf_internal_r+0x16f0>
 1008144:	3c00000b 	ldhu	r16,0(r7)
 1008148:	0023883a 	mov	r17,zero
 100814c:	39c00104 	addi	r7,r7,4
 1008150:	d9c14015 	stw	r7,1280(sp)
 1008154:	003efa06 	br	1007d40 <___vfprintf_internal_r+0x1134>
 1008158:	dc400d17 	ldw	r17,52(sp)
 100815c:	07004134 	movhi	fp,260
 1008160:	e71a1784 	addi	fp,fp,26718
 1008164:	9425883a 	add	r18,r18,r16
 1008168:	8c400044 	addi	r17,r17,1
 100816c:	008001c4 	movi	r2,7
 1008170:	1f000015 	stw	fp,0(r3)
 1008174:	1c000115 	stw	r16,4(r3)
 1008178:	dc800e15 	stw	r18,56(sp)
 100817c:	dc400d15 	stw	r17,52(sp)
 1008180:	147d7016 	blt	r2,r17,1007744 <___vfprintf_internal_r+0xb38>
 1008184:	18c00204 	addi	r3,r3,8
 1008188:	003d7506 	br	1007760 <___vfprintf_internal_r+0xb54>
 100818c:	dc800e17 	ldw	r18,56(sp)
 1008190:	dc400d17 	ldw	r17,52(sp)
 1008194:	07004134 	movhi	fp,260
 1008198:	e71a1b84 	addi	fp,fp,26734
 100819c:	003bba06 	br	1007088 <___vfprintf_internal_r+0x47c>
 10081a0:	d9014f17 	ldw	r4,1340(sp)
 10081a4:	b00b883a 	mov	r5,r22
 10081a8:	d9800c04 	addi	r6,sp,48
 10081ac:	1006bb40 	call	1006bb4 <__sprint_r>
 10081b0:	103c4e1e 	bne	r2,zero,10072ec <___vfprintf_internal_r+0x6e0>
 10081b4:	dc800e17 	ldw	r18,56(sp)
 10081b8:	d8c01904 	addi	r3,sp,100
 10081bc:	003ce306 	br	100754c <___vfprintf_internal_r+0x940>
 10081c0:	3c000017 	ldw	r16,0(r7)
 10081c4:	0009883a 	mov	r4,zero
 10081c8:	39c00104 	addi	r7,r7,4
 10081cc:	0023883a 	mov	r17,zero
 10081d0:	d9c14015 	stw	r7,1280(sp)
 10081d4:	d8000405 	stb	zero,16(sp)
 10081d8:	003d1a06 	br	1007644 <___vfprintf_internal_r+0xa38>
 10081dc:	38800017 	ldw	r2,0(r7)
 10081e0:	39c00104 	addi	r7,r7,4
 10081e4:	d9c14015 	stw	r7,1280(sp)
 10081e8:	1023d7fa 	srai	r17,r2,31
 10081ec:	1021883a 	mov	r16,r2
 10081f0:	003d1206 	br	100763c <___vfprintf_internal_r+0xa30>
 10081f4:	3c000017 	ldw	r16,0(r7)
 10081f8:	01000044 	movi	r4,1
 10081fc:	39c00104 	addi	r7,r7,4
 1008200:	0023883a 	mov	r17,zero
 1008204:	d9c14015 	stw	r7,1280(sp)
 1008208:	d8000405 	stb	zero,16(sp)
 100820c:	003d0d06 	br	1007644 <___vfprintf_internal_r+0xa38>
 1008210:	00804134 	movhi	r2,260
 1008214:	109a1704 	addi	r2,r2,26716
 1008218:	94800044 	addi	r18,r18,1
 100821c:	8c400044 	addi	r17,r17,1
 1008220:	a8800015 	stw	r2,0(r21)
 1008224:	00c00044 	movi	r3,1
 1008228:	008001c4 	movi	r2,7
 100822c:	a8c00115 	stw	r3,4(r21)
 1008230:	dc800e15 	stw	r18,56(sp)
 1008234:	dc400d15 	stw	r17,52(sp)
 1008238:	1440ca16 	blt	r2,r17,1008564 <___vfprintf_internal_r+0x1958>
 100823c:	a8c00204 	addi	r3,r21,8
 1008240:	2000061e 	bne	r4,zero,100825c <___vfprintf_internal_r+0x1650>
 1008244:	d9414717 	ldw	r5,1308(sp)
 1008248:	2800041e 	bne	r5,zero,100825c <___vfprintf_internal_r+0x1650>
 100824c:	d9814c17 	ldw	r6,1328(sp)
 1008250:	3080004c 	andi	r2,r6,1
 1008254:	1005003a 	cmpeq	r2,r2,zero
 1008258:	103bea1e 	bne	r2,zero,1007204 <___vfprintf_internal_r+0x5f8>
 100825c:	00800044 	movi	r2,1
 1008260:	dc400d17 	ldw	r17,52(sp)
 1008264:	18800115 	stw	r2,4(r3)
 1008268:	d8814917 	ldw	r2,1316(sp)
 100826c:	94800044 	addi	r18,r18,1
 1008270:	8c400044 	addi	r17,r17,1
 1008274:	18800015 	stw	r2,0(r3)
 1008278:	008001c4 	movi	r2,7
 100827c:	dc800e15 	stw	r18,56(sp)
 1008280:	dc400d15 	stw	r17,52(sp)
 1008284:	1440ca16 	blt	r2,r17,10085b0 <___vfprintf_internal_r+0x19a4>
 1008288:	18c00204 	addi	r3,r3,8
 100828c:	0121c83a 	sub	r16,zero,r4
 1008290:	0400500e 	bge	zero,r16,10083d4 <___vfprintf_internal_r+0x17c8>
 1008294:	00800404 	movi	r2,16
 1008298:	1400800e 	bge	r2,r16,100849c <___vfprintf_internal_r+0x1890>
 100829c:	1027883a 	mov	r19,r2
 10082a0:	07004134 	movhi	fp,260
 10082a4:	e71a1784 	addi	fp,fp,26718
 10082a8:	050001c4 	movi	r20,7
 10082ac:	00000306 	br	10082bc <___vfprintf_internal_r+0x16b0>
 10082b0:	18c00204 	addi	r3,r3,8
 10082b4:	843ffc04 	addi	r16,r16,-16
 10082b8:	9c007a0e 	bge	r19,r16,10084a4 <___vfprintf_internal_r+0x1898>
 10082bc:	94800404 	addi	r18,r18,16
 10082c0:	8c400044 	addi	r17,r17,1
 10082c4:	1f000015 	stw	fp,0(r3)
 10082c8:	1cc00115 	stw	r19,4(r3)
 10082cc:	dc800e15 	stw	r18,56(sp)
 10082d0:	dc400d15 	stw	r17,52(sp)
 10082d4:	a47ff60e 	bge	r20,r17,10082b0 <___vfprintf_internal_r+0x16a4>
 10082d8:	d9014f17 	ldw	r4,1340(sp)
 10082dc:	b00b883a 	mov	r5,r22
 10082e0:	d9800c04 	addi	r6,sp,48
 10082e4:	1006bb40 	call	1006bb4 <__sprint_r>
 10082e8:	103c001e 	bne	r2,zero,10072ec <___vfprintf_internal_r+0x6e0>
 10082ec:	dc800e17 	ldw	r18,56(sp)
 10082f0:	dc400d17 	ldw	r17,52(sp)
 10082f4:	d8c01904 	addi	r3,sp,100
 10082f8:	003fee06 	br	10082b4 <___vfprintf_internal_r+0x16a8>
 10082fc:	3c000017 	ldw	r16,0(r7)
 1008300:	0023883a 	mov	r17,zero
 1008304:	39c00104 	addi	r7,r7,4
 1008308:	d9c14015 	stw	r7,1280(sp)
 100830c:	003e8c06 	br	1007d40 <___vfprintf_internal_r+0x1134>
 1008310:	d9401904 	addi	r5,sp,100
 1008314:	dd000f04 	addi	r20,sp,60
 1008318:	d9414115 	stw	r5,1284(sp)
 100831c:	d9814417 	ldw	r6,1296(sp)
 1008320:	880a973a 	slli	r5,r17,28
 1008324:	8004d13a 	srli	r2,r16,4
 1008328:	810003cc 	andi	r4,r16,15
 100832c:	3109883a 	add	r4,r6,r4
 1008330:	2884b03a 	or	r2,r5,r2
 1008334:	21400003 	ldbu	r5,0(r4)
 1008338:	d9014117 	ldw	r4,1284(sp)
 100833c:	8806d13a 	srli	r3,r17,4
 1008340:	1021883a 	mov	r16,r2
 1008344:	213fffc4 	addi	r4,r4,-1
 1008348:	d9014115 	stw	r4,1284(sp)
 100834c:	d9814117 	ldw	r6,1284(sp)
 1008350:	10c8b03a 	or	r4,r2,r3
 1008354:	1823883a 	mov	r17,r3
 1008358:	31400005 	stb	r5,0(r6)
 100835c:	203fef1e 	bne	r4,zero,100831c <___vfprintf_internal_r+0x1710>
 1008360:	003cc506 	br	1007678 <___vfprintf_internal_r+0xa6c>
 1008364:	00800c04 	movi	r2,48
 1008368:	d98018c4 	addi	r6,sp,99
 100836c:	dd000f04 	addi	r20,sp,60
 1008370:	d88018c5 	stb	r2,99(sp)
 1008374:	d9814115 	stw	r6,1284(sp)
 1008378:	003cbf06 	br	1007678 <___vfprintf_internal_r+0xa6c>
 100837c:	dc400d17 	ldw	r17,52(sp)
 1008380:	07004134 	movhi	fp,260
 1008384:	e71a1b84 	addi	fp,fp,26734
 1008388:	003bc106 	br	1007290 <___vfprintf_internal_r+0x684>
 100838c:	d9414c17 	ldw	r5,1328(sp)
 1008390:	2880040c 	andi	r2,r5,16
 1008394:	10007c26 	beq	r2,zero,1008588 <___vfprintf_internal_r+0x197c>
 1008398:	38800017 	ldw	r2,0(r7)
 100839c:	39c00104 	addi	r7,r7,4
 10083a0:	d9c14015 	stw	r7,1280(sp)
 10083a4:	d9814b17 	ldw	r6,1324(sp)
 10083a8:	d9c14017 	ldw	r7,1280(sp)
 10083ac:	11800015 	stw	r6,0(r2)
 10083b0:	003a7206 	br	1006d7c <___vfprintf_internal_r+0x170>
 10083b4:	d9014f17 	ldw	r4,1340(sp)
 10083b8:	b00b883a 	mov	r5,r22
 10083bc:	d9800c04 	addi	r6,sp,48
 10083c0:	1006bb40 	call	1006bb4 <__sprint_r>
 10083c4:	103bc91e 	bne	r2,zero,10072ec <___vfprintf_internal_r+0x6e0>
 10083c8:	dc800e17 	ldw	r18,56(sp)
 10083cc:	dc400d17 	ldw	r17,52(sp)
 10083d0:	d8c01904 	addi	r3,sp,100
 10083d4:	d9014717 	ldw	r4,1308(sp)
 10083d8:	d9414117 	ldw	r5,1284(sp)
 10083dc:	8c400044 	addi	r17,r17,1
 10083e0:	9125883a 	add	r18,r18,r4
 10083e4:	008001c4 	movi	r2,7
 10083e8:	19400015 	stw	r5,0(r3)
 10083ec:	19000115 	stw	r4,4(r3)
 10083f0:	dc800e15 	stw	r18,56(sp)
 10083f4:	dc400d15 	stw	r17,52(sp)
 10083f8:	147ce816 	blt	r2,r17,100779c <___vfprintf_internal_r+0xb90>
 10083fc:	18c00204 	addi	r3,r3,8
 1008400:	003b8006 	br	1007204 <___vfprintf_internal_r+0x5f8>
 1008404:	38c00017 	ldw	r3,0(r7)
 1008408:	39000204 	addi	r4,r7,8
 100840c:	d9014015 	stw	r4,1280(sp)
 1008410:	d8c14215 	stw	r3,1288(sp)
 1008414:	39c00117 	ldw	r7,4(r7)
 1008418:	d9c14315 	stw	r7,1292(sp)
 100841c:	003e1a06 	br	1007c88 <___vfprintf_internal_r+0x107c>
 1008420:	0005883a 	mov	r2,zero
 1008424:	1409c83a 	sub	r4,r2,r16
 1008428:	1105803a 	cmpltu	r2,r2,r4
 100842c:	044bc83a 	sub	r5,zero,r17
 1008430:	2885c83a 	sub	r2,r5,r2
 1008434:	2021883a 	mov	r16,r4
 1008438:	1023883a 	mov	r17,r2
 100843c:	01000044 	movi	r4,1
 1008440:	00800b44 	movi	r2,45
 1008444:	d8800405 	stb	r2,16(sp)
 1008448:	003c7e06 	br	1007644 <___vfprintf_internal_r+0xa38>
 100844c:	d9014f17 	ldw	r4,1340(sp)
 1008450:	b00b883a 	mov	r5,r22
 1008454:	d9800c04 	addi	r6,sp,48
 1008458:	1006bb40 	call	1006bb4 <__sprint_r>
 100845c:	103ba31e 	bne	r2,zero,10072ec <___vfprintf_internal_r+0x6e0>
 1008460:	dc800e17 	ldw	r18,56(sp)
 1008464:	dc400d17 	ldw	r17,52(sp)
 1008468:	d9000517 	ldw	r4,20(sp)
 100846c:	d9401904 	addi	r5,sp,100
 1008470:	003da106 	br	1007af8 <___vfprintf_internal_r+0xeec>
 1008474:	d9014f17 	ldw	r4,1340(sp)
 1008478:	b00b883a 	mov	r5,r22
 100847c:	d9800c04 	addi	r6,sp,48
 1008480:	1006bb40 	call	1006bb4 <__sprint_r>
 1008484:	103b991e 	bne	r2,zero,10072ec <___vfprintf_internal_r+0x6e0>
 1008488:	dc800e17 	ldw	r18,56(sp)
 100848c:	dc400d17 	ldw	r17,52(sp)
 1008490:	d9000517 	ldw	r4,20(sp)
 1008494:	d8c01904 	addi	r3,sp,100
 1008498:	003d8b06 	br	1007ac8 <___vfprintf_internal_r+0xebc>
 100849c:	07004134 	movhi	fp,260
 10084a0:	e71a1784 	addi	fp,fp,26718
 10084a4:	9425883a 	add	r18,r18,r16
 10084a8:	8c400044 	addi	r17,r17,1
 10084ac:	008001c4 	movi	r2,7
 10084b0:	1f000015 	stw	fp,0(r3)
 10084b4:	1c000115 	stw	r16,4(r3)
 10084b8:	dc800e15 	stw	r18,56(sp)
 10084bc:	dc400d15 	stw	r17,52(sp)
 10084c0:	147fbc16 	blt	r2,r17,10083b4 <___vfprintf_internal_r+0x17a8>
 10084c4:	18c00204 	addi	r3,r3,8
 10084c8:	003fc206 	br	10083d4 <___vfprintf_internal_r+0x17c8>
 10084cc:	d9014f17 	ldw	r4,1340(sp)
 10084d0:	b00b883a 	mov	r5,r22
 10084d4:	d9800c04 	addi	r6,sp,48
 10084d8:	1006bb40 	call	1006bb4 <__sprint_r>
 10084dc:	103b831e 	bne	r2,zero,10072ec <___vfprintf_internal_r+0x6e0>
 10084e0:	dc800e17 	ldw	r18,56(sp)
 10084e4:	d9000517 	ldw	r4,20(sp)
 10084e8:	d8c01904 	addi	r3,sp,100
 10084ec:	003cfc06 	br	10078e0 <___vfprintf_internal_r+0xcd4>
 10084f0:	07004134 	movhi	fp,260
 10084f4:	e71a1784 	addi	fp,fp,26718
 10084f8:	003bde06 	br	1007474 <___vfprintf_internal_r+0x868>
 10084fc:	00804134 	movhi	r2,260
 1008500:	109a0604 	addi	r2,r2,26648
 1008504:	d8814115 	stw	r2,1284(sp)
 1008508:	003def06 	br	1007cc8 <___vfprintf_internal_r+0x10bc>
 100850c:	d9014217 	ldw	r4,1288(sp)
 1008510:	d9414317 	ldw	r5,1292(sp)
 1008514:	100d0300 	call	100d030 <__isnand>
 1008518:	10003926 	beq	r2,zero,1008600 <___vfprintf_internal_r+0x19f4>
 100851c:	d9414d17 	ldw	r5,1332(sp)
 1008520:	008011c4 	movi	r2,71
 1008524:	1140ce16 	blt	r2,r5,1008860 <___vfprintf_internal_r+0x1c54>
 1008528:	01804134 	movhi	r6,260
 100852c:	319a0704 	addi	r6,r6,26652
 1008530:	d9814115 	stw	r6,1284(sp)
 1008534:	003de406 	br	1007cc8 <___vfprintf_internal_r+0x10bc>
 1008538:	d9014c17 	ldw	r4,1328(sp)
 100853c:	bdc00044 	addi	r23,r23,1
 1008540:	b8c00007 	ldb	r3,0(r23)
 1008544:	21000814 	ori	r4,r4,32
 1008548:	d9014c15 	stw	r4,1328(sp)
 100854c:	003a2e06 	br	1006e08 <___vfprintf_internal_r+0x1fc>
 1008550:	dcc14515 	stw	r19,1300(sp)
 1008554:	98011016 	blt	r19,zero,1008998 <___vfprintf_internal_r+0x1d8c>
 1008558:	980f883a 	mov	r7,r19
 100855c:	d8014615 	stw	zero,1304(sp)
 1008560:	003c4c06 	br	1007694 <___vfprintf_internal_r+0xa88>
 1008564:	d9014f17 	ldw	r4,1340(sp)
 1008568:	b00b883a 	mov	r5,r22
 100856c:	d9800c04 	addi	r6,sp,48
 1008570:	1006bb40 	call	1006bb4 <__sprint_r>
 1008574:	103b5d1e 	bne	r2,zero,10072ec <___vfprintf_internal_r+0x6e0>
 1008578:	dc800e17 	ldw	r18,56(sp)
 100857c:	d9000517 	ldw	r4,20(sp)
 1008580:	d8c01904 	addi	r3,sp,100
 1008584:	003f2e06 	br	1008240 <___vfprintf_internal_r+0x1634>
 1008588:	d8c14c17 	ldw	r3,1328(sp)
 100858c:	1880100c 	andi	r2,r3,64
 1008590:	1000a026 	beq	r2,zero,1008814 <___vfprintf_internal_r+0x1c08>
 1008594:	38800017 	ldw	r2,0(r7)
 1008598:	39c00104 	addi	r7,r7,4
 100859c:	d9c14015 	stw	r7,1280(sp)
 10085a0:	d9014b17 	ldw	r4,1324(sp)
 10085a4:	d9c14017 	ldw	r7,1280(sp)
 10085a8:	1100000d 	sth	r4,0(r2)
 10085ac:	0039f306 	br	1006d7c <___vfprintf_internal_r+0x170>
 10085b0:	d9014f17 	ldw	r4,1340(sp)
 10085b4:	b00b883a 	mov	r5,r22
 10085b8:	d9800c04 	addi	r6,sp,48
 10085bc:	1006bb40 	call	1006bb4 <__sprint_r>
 10085c0:	103b4a1e 	bne	r2,zero,10072ec <___vfprintf_internal_r+0x6e0>
 10085c4:	dc800e17 	ldw	r18,56(sp)
 10085c8:	dc400d17 	ldw	r17,52(sp)
 10085cc:	d9000517 	ldw	r4,20(sp)
 10085d0:	d8c01904 	addi	r3,sp,100
 10085d4:	003f2d06 	br	100828c <___vfprintf_internal_r+0x1680>
 10085d8:	00800184 	movi	r2,6
 10085dc:	14c09a36 	bltu	r2,r19,1008848 <___vfprintf_internal_r+0x1c3c>
 10085e0:	dcc14515 	stw	r19,1300(sp)
 10085e4:	9800010e 	bge	r19,zero,10085ec <___vfprintf_internal_r+0x19e0>
 10085e8:	d8014515 	stw	zero,1300(sp)
 10085ec:	00804134 	movhi	r2,260
 10085f0:	109a0904 	addi	r2,r2,26660
 10085f4:	980f883a 	mov	r7,r19
 10085f8:	d8814115 	stw	r2,1284(sp)
 10085fc:	003a7206 	br	1006fc8 <___vfprintf_internal_r+0x3bc>
 1008600:	00bfffc4 	movi	r2,-1
 1008604:	9880e226 	beq	r19,r2,1008990 <___vfprintf_internal_r+0x1d84>
 1008608:	d9414d17 	ldw	r5,1332(sp)
 100860c:	008019c4 	movi	r2,103
 1008610:	2880dc26 	beq	r5,r2,1008984 <___vfprintf_internal_r+0x1d78>
 1008614:	008011c4 	movi	r2,71
 1008618:	2880da26 	beq	r5,r2,1008984 <___vfprintf_internal_r+0x1d78>
 100861c:	d9414c17 	ldw	r5,1328(sp)
 1008620:	d9014317 	ldw	r4,1292(sp)
 1008624:	d9814217 	ldw	r6,1288(sp)
 1008628:	29404014 	ori	r5,r5,256
 100862c:	d9414c15 	stw	r5,1328(sp)
 1008630:	2000cc16 	blt	r4,zero,1008964 <___vfprintf_internal_r+0x1d58>
 1008634:	3021883a 	mov	r16,r6
 1008638:	2023883a 	mov	r17,r4
 100863c:	0039883a 	mov	fp,zero
 1008640:	d9414d17 	ldw	r5,1332(sp)
 1008644:	00801984 	movi	r2,102
 1008648:	2880b726 	beq	r5,r2,1008928 <___vfprintf_internal_r+0x1d1c>
 100864c:	00801184 	movi	r2,70
 1008650:	2880b526 	beq	r5,r2,1008928 <___vfprintf_internal_r+0x1d1c>
 1008654:	00801944 	movi	r2,101
 1008658:	2880c826 	beq	r5,r2,100897c <___vfprintf_internal_r+0x1d70>
 100865c:	00801144 	movi	r2,69
 1008660:	2880c626 	beq	r5,r2,100897c <___vfprintf_internal_r+0x1d70>
 1008664:	9829883a 	mov	r20,r19
 1008668:	d9014f17 	ldw	r4,1340(sp)
 100866c:	d8800504 	addi	r2,sp,20
 1008670:	880d883a 	mov	r6,r17
 1008674:	d8800115 	stw	r2,4(sp)
 1008678:	d8c00604 	addi	r3,sp,24
 100867c:	d8800704 	addi	r2,sp,28
 1008680:	800b883a 	mov	r5,r16
 1008684:	01c00084 	movi	r7,2
 1008688:	d8c00215 	stw	r3,8(sp)
 100868c:	d8800315 	stw	r2,12(sp)
 1008690:	dd000015 	stw	r20,0(sp)
 1008694:	1008e740 	call	1008e74 <_dtoa_r>
 1008698:	d9814d17 	ldw	r6,1332(sp)
 100869c:	d8814115 	stw	r2,1284(sp)
 10086a0:	008019c4 	movi	r2,103
 10086a4:	30809526 	beq	r6,r2,10088fc <___vfprintf_internal_r+0x1cf0>
 10086a8:	d8c14d17 	ldw	r3,1332(sp)
 10086ac:	008011c4 	movi	r2,71
 10086b0:	18809226 	beq	r3,r2,10088fc <___vfprintf_internal_r+0x1cf0>
 10086b4:	d9414117 	ldw	r5,1284(sp)
 10086b8:	d9814d17 	ldw	r6,1332(sp)
 10086bc:	00801984 	movi	r2,102
 10086c0:	2d25883a 	add	r18,r5,r20
 10086c4:	30808626 	beq	r6,r2,10088e0 <___vfprintf_internal_r+0x1cd4>
 10086c8:	00801184 	movi	r2,70
 10086cc:	30808426 	beq	r6,r2,10088e0 <___vfprintf_internal_r+0x1cd4>
 10086d0:	000d883a 	mov	r6,zero
 10086d4:	000f883a 	mov	r7,zero
 10086d8:	880b883a 	mov	r5,r17
 10086dc:	8009883a 	mov	r4,r16
 10086e0:	10054980 	call	1005498 <__eqdf2>
 10086e4:	1000751e 	bne	r2,zero,10088bc <___vfprintf_internal_r+0x1cb0>
 10086e8:	9005883a 	mov	r2,r18
 10086ec:	dc800715 	stw	r18,28(sp)
 10086f0:	d9014117 	ldw	r4,1284(sp)
 10086f4:	d9414d17 	ldw	r5,1332(sp)
 10086f8:	00c019c4 	movi	r3,103
 10086fc:	1125c83a 	sub	r18,r2,r4
 1008700:	28c06826 	beq	r5,r3,10088a4 <___vfprintf_internal_r+0x1c98>
 1008704:	008011c4 	movi	r2,71
 1008708:	28806626 	beq	r5,r2,10088a4 <___vfprintf_internal_r+0x1c98>
 100870c:	d9000517 	ldw	r4,20(sp)
 1008710:	d8c14d17 	ldw	r3,1332(sp)
 1008714:	00801944 	movi	r2,101
 1008718:	10c05516 	blt	r2,r3,1008870 <___vfprintf_internal_r+0x1c64>
 100871c:	213fffc4 	addi	r4,r4,-1
 1008720:	d9000515 	stw	r4,20(sp)
 1008724:	d8c00805 	stb	r3,32(sp)
 1008728:	2021883a 	mov	r16,r4
 100872c:	2000c116 	blt	r4,zero,1008a34 <___vfprintf_internal_r+0x1e28>
 1008730:	00800ac4 	movi	r2,43
 1008734:	d8800845 	stb	r2,33(sp)
 1008738:	00800244 	movi	r2,9
 100873c:	1400af0e 	bge	r2,r16,10089fc <___vfprintf_internal_r+0x1df0>
 1008740:	1027883a 	mov	r19,r2
 1008744:	dc400b84 	addi	r17,sp,46
 1008748:	8009883a 	mov	r4,r16
 100874c:	01400284 	movi	r5,10
 1008750:	10059ec0 	call	10059ec <__modsi3>
 1008754:	10800c04 	addi	r2,r2,48
 1008758:	8c7fffc4 	addi	r17,r17,-1
 100875c:	8009883a 	mov	r4,r16
 1008760:	01400284 	movi	r5,10
 1008764:	88800005 	stb	r2,0(r17)
 1008768:	100598c0 	call	100598c <__divsi3>
 100876c:	1021883a 	mov	r16,r2
 1008770:	98bff516 	blt	r19,r2,1008748 <___vfprintf_internal_r+0x1b3c>
 1008774:	10c00c04 	addi	r3,r2,48
 1008778:	d88009c4 	addi	r2,sp,39
 100877c:	108001c4 	addi	r2,r2,7
 1008780:	897fffc4 	addi	r5,r17,-1
 1008784:	88ffffc5 	stb	r3,-1(r17)
 1008788:	2880a72e 	bgeu	r5,r2,1008a28 <___vfprintf_internal_r+0x1e1c>
 100878c:	1009883a 	mov	r4,r2
 1008790:	d9800804 	addi	r6,sp,32
 1008794:	d8c00884 	addi	r3,sp,34
 1008798:	28800003 	ldbu	r2,0(r5)
 100879c:	29400044 	addi	r5,r5,1
 10087a0:	18800005 	stb	r2,0(r3)
 10087a4:	18c00044 	addi	r3,r3,1
 10087a8:	293ffb36 	bltu	r5,r4,1008798 <___vfprintf_internal_r+0x1b8c>
 10087ac:	1987c83a 	sub	r3,r3,r6
 10087b0:	00800044 	movi	r2,1
 10087b4:	d8c14815 	stw	r3,1312(sp)
 10087b8:	90cf883a 	add	r7,r18,r3
 10087bc:	1480960e 	bge	r2,r18,1008a18 <___vfprintf_internal_r+0x1e0c>
 10087c0:	39c00044 	addi	r7,r7,1
 10087c4:	d9c14515 	stw	r7,1300(sp)
 10087c8:	38003416 	blt	r7,zero,100889c <___vfprintf_internal_r+0x1c90>
 10087cc:	e0803fcc 	andi	r2,fp,255
 10087d0:	1080201c 	xori	r2,r2,128
 10087d4:	10bfe004 	addi	r2,r2,-128
 10087d8:	10004e26 	beq	r2,zero,1008914 <___vfprintf_internal_r+0x1d08>
 10087dc:	00800b44 	movi	r2,45
 10087e0:	dc814715 	stw	r18,1308(sp)
 10087e4:	d8014615 	stw	zero,1304(sp)
 10087e8:	d8800405 	stb	r2,16(sp)
 10087ec:	003bab06 	br	100769c <___vfprintf_internal_r+0xa90>
 10087f0:	00800b44 	movi	r2,45
 10087f4:	d8800405 	stb	r2,16(sp)
 10087f8:	003d2d06 	br	1007cb0 <___vfprintf_internal_r+0x10a4>
 10087fc:	d9014f17 	ldw	r4,1340(sp)
 1008800:	b00b883a 	mov	r5,r22
 1008804:	d9800c04 	addi	r6,sp,48
 1008808:	1006bb40 	call	1006bb4 <__sprint_r>
 100880c:	103ab71e 	bne	r2,zero,10072ec <___vfprintf_internal_r+0x6e0>
 1008810:	003ab506 	br	10072e8 <___vfprintf_internal_r+0x6dc>
 1008814:	38800017 	ldw	r2,0(r7)
 1008818:	39c00104 	addi	r7,r7,4
 100881c:	d9c14015 	stw	r7,1280(sp)
 1008820:	d9414b17 	ldw	r5,1324(sp)
 1008824:	d9c14017 	ldw	r7,1280(sp)
 1008828:	11400015 	stw	r5,0(r2)
 100882c:	00395306 	br	1006d7c <___vfprintf_internal_r+0x170>
 1008830:	980f883a 	mov	r7,r19
 1008834:	dcc14515 	stw	r19,1300(sp)
 1008838:	d8014615 	stw	zero,1304(sp)
 100883c:	003b9506 	br	1007694 <___vfprintf_internal_r+0xa88>
 1008840:	0027883a 	mov	r19,zero
 1008844:	00397206 	br	1006e10 <___vfprintf_internal_r+0x204>
 1008848:	00c04134 	movhi	r3,260
 100884c:	18da0904 	addi	r3,r3,26660
 1008850:	100f883a 	mov	r7,r2
 1008854:	d8814515 	stw	r2,1300(sp)
 1008858:	d8c14115 	stw	r3,1284(sp)
 100885c:	0039da06 	br	1006fc8 <___vfprintf_internal_r+0x3bc>
 1008860:	00804134 	movhi	r2,260
 1008864:	109a0804 	addi	r2,r2,26656
 1008868:	d8814115 	stw	r2,1284(sp)
 100886c:	003d1606 	br	1007cc8 <___vfprintf_internal_r+0x10bc>
 1008870:	d9414d17 	ldw	r5,1332(sp)
 1008874:	00801984 	movi	r2,102
 1008878:	28804926 	beq	r5,r2,10089a0 <___vfprintf_internal_r+0x1d94>
 100887c:	200f883a 	mov	r7,r4
 1008880:	24805716 	blt	r4,r18,10089e0 <___vfprintf_internal_r+0x1dd4>
 1008884:	d9414c17 	ldw	r5,1328(sp)
 1008888:	2880004c 	andi	r2,r5,1
 100888c:	10000126 	beq	r2,zero,1008894 <___vfprintf_internal_r+0x1c88>
 1008890:	21c00044 	addi	r7,r4,1
 1008894:	d9c14515 	stw	r7,1300(sp)
 1008898:	383fcc0e 	bge	r7,zero,10087cc <___vfprintf_internal_r+0x1bc0>
 100889c:	d8014515 	stw	zero,1300(sp)
 10088a0:	003fca06 	br	10087cc <___vfprintf_internal_r+0x1bc0>
 10088a4:	d9000517 	ldw	r4,20(sp)
 10088a8:	00bfff04 	movi	r2,-4
 10088ac:	1100480e 	bge	r2,r4,10089d0 <___vfprintf_internal_r+0x1dc4>
 10088b0:	99004716 	blt	r19,r4,10089d0 <___vfprintf_internal_r+0x1dc4>
 10088b4:	d8c14d15 	stw	r3,1332(sp)
 10088b8:	003ff006 	br	100887c <___vfprintf_internal_r+0x1c70>
 10088bc:	d8800717 	ldw	r2,28(sp)
 10088c0:	14bf8b2e 	bgeu	r2,r18,10086f0 <___vfprintf_internal_r+0x1ae4>
 10088c4:	9007883a 	mov	r3,r18
 10088c8:	01000c04 	movi	r4,48
 10088cc:	11000005 	stb	r4,0(r2)
 10088d0:	10800044 	addi	r2,r2,1
 10088d4:	d8800715 	stw	r2,28(sp)
 10088d8:	18bffc1e 	bne	r3,r2,10088cc <___vfprintf_internal_r+0x1cc0>
 10088dc:	003f8406 	br	10086f0 <___vfprintf_internal_r+0x1ae4>
 10088e0:	d8814117 	ldw	r2,1284(sp)
 10088e4:	10c00007 	ldb	r3,0(r2)
 10088e8:	00800c04 	movi	r2,48
 10088ec:	18805b26 	beq	r3,r2,1008a5c <___vfprintf_internal_r+0x1e50>
 10088f0:	d9000517 	ldw	r4,20(sp)
 10088f4:	9125883a 	add	r18,r18,r4
 10088f8:	003f7506 	br	10086d0 <___vfprintf_internal_r+0x1ac4>
 10088fc:	d9014c17 	ldw	r4,1328(sp)
 1008900:	2080004c 	andi	r2,r4,1
 1008904:	1005003a 	cmpeq	r2,r2,zero
 1008908:	103f6a26 	beq	r2,zero,10086b4 <___vfprintf_internal_r+0x1aa8>
 100890c:	d8800717 	ldw	r2,28(sp)
 1008910:	003f7706 	br	10086f0 <___vfprintf_internal_r+0x1ae4>
 1008914:	d9c14515 	stw	r7,1300(sp)
 1008918:	38004d16 	blt	r7,zero,1008a50 <___vfprintf_internal_r+0x1e44>
 100891c:	dc814715 	stw	r18,1308(sp)
 1008920:	d8014615 	stw	zero,1304(sp)
 1008924:	003b5b06 	br	1007694 <___vfprintf_internal_r+0xa88>
 1008928:	d9014f17 	ldw	r4,1340(sp)
 100892c:	d8800504 	addi	r2,sp,20
 1008930:	d8800115 	stw	r2,4(sp)
 1008934:	d8c00604 	addi	r3,sp,24
 1008938:	d8800704 	addi	r2,sp,28
 100893c:	800b883a 	mov	r5,r16
 1008940:	880d883a 	mov	r6,r17
 1008944:	01c000c4 	movi	r7,3
 1008948:	d8c00215 	stw	r3,8(sp)
 100894c:	d8800315 	stw	r2,12(sp)
 1008950:	dcc00015 	stw	r19,0(sp)
 1008954:	9829883a 	mov	r20,r19
 1008958:	1008e740 	call	1008e74 <_dtoa_r>
 100895c:	d8814115 	stw	r2,1284(sp)
 1008960:	003f5106 	br	10086a8 <___vfprintf_internal_r+0x1a9c>
 1008964:	d8c14217 	ldw	r3,1288(sp)
 1008968:	d9014317 	ldw	r4,1292(sp)
 100896c:	07000b44 	movi	fp,45
 1008970:	1821883a 	mov	r16,r3
 1008974:	2460003c 	xorhi	r17,r4,32768
 1008978:	003f3106 	br	1008640 <___vfprintf_internal_r+0x1a34>
 100897c:	9d000044 	addi	r20,r19,1
 1008980:	003f3906 	br	1008668 <___vfprintf_internal_r+0x1a5c>
 1008984:	983f251e 	bne	r19,zero,100861c <___vfprintf_internal_r+0x1a10>
 1008988:	04c00044 	movi	r19,1
 100898c:	003f2306 	br	100861c <___vfprintf_internal_r+0x1a10>
 1008990:	04c00184 	movi	r19,6
 1008994:	003f2106 	br	100861c <___vfprintf_internal_r+0x1a10>
 1008998:	d8014515 	stw	zero,1300(sp)
 100899c:	003eee06 	br	1008558 <___vfprintf_internal_r+0x194c>
 10089a0:	200f883a 	mov	r7,r4
 10089a4:	0100370e 	bge	zero,r4,1008a84 <___vfprintf_internal_r+0x1e78>
 10089a8:	9800031e 	bne	r19,zero,10089b8 <___vfprintf_internal_r+0x1dac>
 10089ac:	d9814c17 	ldw	r6,1328(sp)
 10089b0:	3080004c 	andi	r2,r6,1
 10089b4:	103fb726 	beq	r2,zero,1008894 <___vfprintf_internal_r+0x1c88>
 10089b8:	20800044 	addi	r2,r4,1
 10089bc:	98a7883a 	add	r19,r19,r2
 10089c0:	dcc14515 	stw	r19,1300(sp)
 10089c4:	980f883a 	mov	r7,r19
 10089c8:	983f800e 	bge	r19,zero,10087cc <___vfprintf_internal_r+0x1bc0>
 10089cc:	003fb306 	br	100889c <___vfprintf_internal_r+0x1c90>
 10089d0:	d9814d17 	ldw	r6,1332(sp)
 10089d4:	31bfff84 	addi	r6,r6,-2
 10089d8:	d9814d15 	stw	r6,1332(sp)
 10089dc:	003f4c06 	br	1008710 <___vfprintf_internal_r+0x1b04>
 10089e0:	0100180e 	bge	zero,r4,1008a44 <___vfprintf_internal_r+0x1e38>
 10089e4:	00800044 	movi	r2,1
 10089e8:	1485883a 	add	r2,r2,r18
 10089ec:	d8814515 	stw	r2,1300(sp)
 10089f0:	100f883a 	mov	r7,r2
 10089f4:	103f750e 	bge	r2,zero,10087cc <___vfprintf_internal_r+0x1bc0>
 10089f8:	003fa806 	br	100889c <___vfprintf_internal_r+0x1c90>
 10089fc:	80c00c04 	addi	r3,r16,48
 1008a00:	00800c04 	movi	r2,48
 1008a04:	d8c008c5 	stb	r3,35(sp)
 1008a08:	d9800804 	addi	r6,sp,32
 1008a0c:	d8c00904 	addi	r3,sp,36
 1008a10:	d8800885 	stb	r2,34(sp)
 1008a14:	003f6506 	br	10087ac <___vfprintf_internal_r+0x1ba0>
 1008a18:	d9014c17 	ldw	r4,1328(sp)
 1008a1c:	2084703a 	and	r2,r4,r2
 1008a20:	103f9c26 	beq	r2,zero,1008894 <___vfprintf_internal_r+0x1c88>
 1008a24:	003f6606 	br	10087c0 <___vfprintf_internal_r+0x1bb4>
 1008a28:	d9800804 	addi	r6,sp,32
 1008a2c:	d8c00884 	addi	r3,sp,34
 1008a30:	003f5e06 	br	10087ac <___vfprintf_internal_r+0x1ba0>
 1008a34:	00800b44 	movi	r2,45
 1008a38:	0121c83a 	sub	r16,zero,r4
 1008a3c:	d8800845 	stb	r2,33(sp)
 1008a40:	003f3d06 	br	1008738 <___vfprintf_internal_r+0x1b2c>
 1008a44:	00800084 	movi	r2,2
 1008a48:	1105c83a 	sub	r2,r2,r4
 1008a4c:	003fe606 	br	10089e8 <___vfprintf_internal_r+0x1ddc>
 1008a50:	d8014515 	stw	zero,1300(sp)
 1008a54:	dc814715 	stw	r18,1308(sp)
 1008a58:	003fb106 	br	1008920 <___vfprintf_internal_r+0x1d14>
 1008a5c:	000d883a 	mov	r6,zero
 1008a60:	000f883a 	mov	r7,zero
 1008a64:	8009883a 	mov	r4,r16
 1008a68:	880b883a 	mov	r5,r17
 1008a6c:	100e3dc0 	call	100e3dc <__nedf2>
 1008a70:	103f9f26 	beq	r2,zero,10088f0 <___vfprintf_internal_r+0x1ce4>
 1008a74:	00800044 	movi	r2,1
 1008a78:	1509c83a 	sub	r4,r2,r20
 1008a7c:	d9000515 	stw	r4,20(sp)
 1008a80:	003f9b06 	br	10088f0 <___vfprintf_internal_r+0x1ce4>
 1008a84:	98000d1e 	bne	r19,zero,1008abc <___vfprintf_internal_r+0x1eb0>
 1008a88:	d8c14c17 	ldw	r3,1328(sp)
 1008a8c:	1880004c 	andi	r2,r3,1
 1008a90:	10000a1e 	bne	r2,zero,1008abc <___vfprintf_internal_r+0x1eb0>
 1008a94:	01000044 	movi	r4,1
 1008a98:	200f883a 	mov	r7,r4
 1008a9c:	d9014515 	stw	r4,1300(sp)
 1008aa0:	003f4a06 	br	10087cc <___vfprintf_internal_r+0x1bc0>
 1008aa4:	3cc00017 	ldw	r19,0(r7)
 1008aa8:	39c00104 	addi	r7,r7,4
 1008aac:	983d0e0e 	bge	r19,zero,1007ee8 <___vfprintf_internal_r+0x12dc>
 1008ab0:	b8c00007 	ldb	r3,0(r23)
 1008ab4:	04ffffc4 	movi	r19,-1
 1008ab8:	0038d306 	br	1006e08 <___vfprintf_internal_r+0x1fc>
 1008abc:	9cc00084 	addi	r19,r19,2
 1008ac0:	dcc14515 	stw	r19,1300(sp)
 1008ac4:	980f883a 	mov	r7,r19
 1008ac8:	983f400e 	bge	r19,zero,10087cc <___vfprintf_internal_r+0x1bc0>
 1008acc:	003f7306 	br	100889c <___vfprintf_internal_r+0x1c90>

01008ad0 <__vfprintf_internal>:
 1008ad0:	00804174 	movhi	r2,261
 1008ad4:	10a15a04 	addi	r2,r2,-31384
 1008ad8:	2013883a 	mov	r9,r4
 1008adc:	11000017 	ldw	r4,0(r2)
 1008ae0:	2805883a 	mov	r2,r5
 1008ae4:	300f883a 	mov	r7,r6
 1008ae8:	480b883a 	mov	r5,r9
 1008aec:	100d883a 	mov	r6,r2
 1008af0:	1006c0c1 	jmpi	1006c0c <___vfprintf_internal_r>

01008af4 <__swsetup_r>:
 1008af4:	00804174 	movhi	r2,261
 1008af8:	10a15a04 	addi	r2,r2,-31384
 1008afc:	10c00017 	ldw	r3,0(r2)
 1008b00:	defffd04 	addi	sp,sp,-12
 1008b04:	dc400115 	stw	r17,4(sp)
 1008b08:	dc000015 	stw	r16,0(sp)
 1008b0c:	dfc00215 	stw	ra,8(sp)
 1008b10:	2023883a 	mov	r17,r4
 1008b14:	2821883a 	mov	r16,r5
 1008b18:	18000226 	beq	r3,zero,1008b24 <__swsetup_r+0x30>
 1008b1c:	18800e17 	ldw	r2,56(r3)
 1008b20:	10001f26 	beq	r2,zero,1008ba0 <__swsetup_r+0xac>
 1008b24:	8100030b 	ldhu	r4,12(r16)
 1008b28:	2080020c 	andi	r2,r4,8
 1008b2c:	10002826 	beq	r2,zero,1008bd0 <__swsetup_r+0xdc>
 1008b30:	81400417 	ldw	r5,16(r16)
 1008b34:	28001d26 	beq	r5,zero,1008bac <__swsetup_r+0xb8>
 1008b38:	2080004c 	andi	r2,r4,1
 1008b3c:	1005003a 	cmpeq	r2,r2,zero
 1008b40:	10000b26 	beq	r2,zero,1008b70 <__swsetup_r+0x7c>
 1008b44:	2080008c 	andi	r2,r4,2
 1008b48:	10001226 	beq	r2,zero,1008b94 <__swsetup_r+0xa0>
 1008b4c:	0005883a 	mov	r2,zero
 1008b50:	80800215 	stw	r2,8(r16)
 1008b54:	28000b26 	beq	r5,zero,1008b84 <__swsetup_r+0x90>
 1008b58:	0005883a 	mov	r2,zero
 1008b5c:	dfc00217 	ldw	ra,8(sp)
 1008b60:	dc400117 	ldw	r17,4(sp)
 1008b64:	dc000017 	ldw	r16,0(sp)
 1008b68:	dec00304 	addi	sp,sp,12
 1008b6c:	f800283a 	ret
 1008b70:	80800517 	ldw	r2,20(r16)
 1008b74:	80000215 	stw	zero,8(r16)
 1008b78:	0085c83a 	sub	r2,zero,r2
 1008b7c:	80800615 	stw	r2,24(r16)
 1008b80:	283ff51e 	bne	r5,zero,1008b58 <__swsetup_r+0x64>
 1008b84:	2080200c 	andi	r2,r4,128
 1008b88:	103ff326 	beq	r2,zero,1008b58 <__swsetup_r+0x64>
 1008b8c:	00bfffc4 	movi	r2,-1
 1008b90:	003ff206 	br	1008b5c <__swsetup_r+0x68>
 1008b94:	80800517 	ldw	r2,20(r16)
 1008b98:	80800215 	stw	r2,8(r16)
 1008b9c:	003fed06 	br	1008b54 <__swsetup_r+0x60>
 1008ba0:	1809883a 	mov	r4,r3
 1008ba4:	100a6c00 	call	100a6c0 <__sinit>
 1008ba8:	003fde06 	br	1008b24 <__swsetup_r+0x30>
 1008bac:	20c0a00c 	andi	r3,r4,640
 1008bb0:	00808004 	movi	r2,512
 1008bb4:	18bfe026 	beq	r3,r2,1008b38 <__swsetup_r+0x44>
 1008bb8:	8809883a 	mov	r4,r17
 1008bbc:	800b883a 	mov	r5,r16
 1008bc0:	100b4e00 	call	100b4e0 <__smakebuf_r>
 1008bc4:	8100030b 	ldhu	r4,12(r16)
 1008bc8:	81400417 	ldw	r5,16(r16)
 1008bcc:	003fda06 	br	1008b38 <__swsetup_r+0x44>
 1008bd0:	2080040c 	andi	r2,r4,16
 1008bd4:	103fed26 	beq	r2,zero,1008b8c <__swsetup_r+0x98>
 1008bd8:	2080010c 	andi	r2,r4,4
 1008bdc:	10001226 	beq	r2,zero,1008c28 <__swsetup_r+0x134>
 1008be0:	81400c17 	ldw	r5,48(r16)
 1008be4:	28000526 	beq	r5,zero,1008bfc <__swsetup_r+0x108>
 1008be8:	80801004 	addi	r2,r16,64
 1008bec:	28800226 	beq	r5,r2,1008bf8 <__swsetup_r+0x104>
 1008bf0:	8809883a 	mov	r4,r17
 1008bf4:	100aa780 	call	100aa78 <_free_r>
 1008bf8:	80000c15 	stw	zero,48(r16)
 1008bfc:	8080030b 	ldhu	r2,12(r16)
 1008c00:	81400417 	ldw	r5,16(r16)
 1008c04:	80000115 	stw	zero,4(r16)
 1008c08:	10bff6cc 	andi	r2,r2,65499
 1008c0c:	8080030d 	sth	r2,12(r16)
 1008c10:	81400015 	stw	r5,0(r16)
 1008c14:	8080030b 	ldhu	r2,12(r16)
 1008c18:	10800214 	ori	r2,r2,8
 1008c1c:	113fffcc 	andi	r4,r2,65535
 1008c20:	8080030d 	sth	r2,12(r16)
 1008c24:	003fc306 	br	1008b34 <__swsetup_r+0x40>
 1008c28:	81400417 	ldw	r5,16(r16)
 1008c2c:	003ff906 	br	1008c14 <__swsetup_r+0x120>

01008c30 <quorem>:
 1008c30:	28c00417 	ldw	r3,16(r5)
 1008c34:	20800417 	ldw	r2,16(r4)
 1008c38:	defff104 	addi	sp,sp,-60
 1008c3c:	dfc00e15 	stw	ra,56(sp)
 1008c40:	df000d15 	stw	fp,52(sp)
 1008c44:	ddc00c15 	stw	r23,48(sp)
 1008c48:	dd800b15 	stw	r22,44(sp)
 1008c4c:	dd400a15 	stw	r21,40(sp)
 1008c50:	dd000915 	stw	r20,36(sp)
 1008c54:	dcc00815 	stw	r19,32(sp)
 1008c58:	dc800715 	stw	r18,28(sp)
 1008c5c:	dc400615 	stw	r17,24(sp)
 1008c60:	dc000515 	stw	r16,20(sp)
 1008c64:	d9000315 	stw	r4,12(sp)
 1008c68:	d9400415 	stw	r5,16(sp)
 1008c6c:	10c07f16 	blt	r2,r3,1008e6c <quorem+0x23c>
 1008c70:	1d3fffc4 	addi	r20,r3,-1
 1008c74:	d8c00417 	ldw	r3,16(sp)
 1008c78:	d9000317 	ldw	r4,12(sp)
 1008c7c:	a505883a 	add	r2,r20,r20
 1008c80:	1085883a 	add	r2,r2,r2
 1008c84:	1cc00504 	addi	r19,r3,20
 1008c88:	25c00504 	addi	r23,r4,20
 1008c8c:	98ad883a 	add	r22,r19,r2
 1008c90:	15c7883a 	add	r3,r2,r23
 1008c94:	b1400017 	ldw	r5,0(r22)
 1008c98:	19000017 	ldw	r4,0(r3)
 1008c9c:	d8c00015 	stw	r3,0(sp)
 1008ca0:	29400044 	addi	r5,r5,1
 1008ca4:	d9000215 	stw	r4,8(sp)
 1008ca8:	1005a4c0 	call	1005a4c <__udivsi3>
 1008cac:	1039883a 	mov	fp,r2
 1008cb0:	10003d1e 	bne	r2,zero,1008da8 <quorem+0x178>
 1008cb4:	d9400417 	ldw	r5,16(sp)
 1008cb8:	d9000317 	ldw	r4,12(sp)
 1008cbc:	100bacc0 	call	100bacc <__mcmp>
 1008cc0:	10002c16 	blt	r2,zero,1008d74 <quorem+0x144>
 1008cc4:	e7000044 	addi	fp,fp,1
 1008cc8:	b80f883a 	mov	r7,r23
 1008ccc:	0011883a 	mov	r8,zero
 1008cd0:	0009883a 	mov	r4,zero
 1008cd4:	99400017 	ldw	r5,0(r19)
 1008cd8:	38c00017 	ldw	r3,0(r7)
 1008cdc:	9cc00104 	addi	r19,r19,4
 1008ce0:	28bfffcc 	andi	r2,r5,65535
 1008ce4:	2085883a 	add	r2,r4,r2
 1008ce8:	11bfffcc 	andi	r6,r2,65535
 1008cec:	193fffcc 	andi	r4,r3,65535
 1008cf0:	1004d43a 	srli	r2,r2,16
 1008cf4:	280ad43a 	srli	r5,r5,16
 1008cf8:	2189c83a 	sub	r4,r4,r6
 1008cfc:	2209883a 	add	r4,r4,r8
 1008d00:	1806d43a 	srli	r3,r3,16
 1008d04:	288b883a 	add	r5,r5,r2
 1008d08:	200dd43a 	srai	r6,r4,16
 1008d0c:	28bfffcc 	andi	r2,r5,65535
 1008d10:	1887c83a 	sub	r3,r3,r2
 1008d14:	1987883a 	add	r3,r3,r6
 1008d18:	3900000d 	sth	r4,0(r7)
 1008d1c:	38c0008d 	sth	r3,2(r7)
 1008d20:	2808d43a 	srli	r4,r5,16
 1008d24:	39c00104 	addi	r7,r7,4
 1008d28:	1811d43a 	srai	r8,r3,16
 1008d2c:	b4ffe92e 	bgeu	r22,r19,1008cd4 <quorem+0xa4>
 1008d30:	a505883a 	add	r2,r20,r20
 1008d34:	1085883a 	add	r2,r2,r2
 1008d38:	b885883a 	add	r2,r23,r2
 1008d3c:	10c00017 	ldw	r3,0(r2)
 1008d40:	18000c1e 	bne	r3,zero,1008d74 <quorem+0x144>
 1008d44:	113fff04 	addi	r4,r2,-4
 1008d48:	b900082e 	bgeu	r23,r4,1008d6c <quorem+0x13c>
 1008d4c:	10bfff17 	ldw	r2,-4(r2)
 1008d50:	10000326 	beq	r2,zero,1008d60 <quorem+0x130>
 1008d54:	00000506 	br	1008d6c <quorem+0x13c>
 1008d58:	20800017 	ldw	r2,0(r4)
 1008d5c:	1000031e 	bne	r2,zero,1008d6c <quorem+0x13c>
 1008d60:	213fff04 	addi	r4,r4,-4
 1008d64:	a53fffc4 	addi	r20,r20,-1
 1008d68:	b93ffb36 	bltu	r23,r4,1008d58 <quorem+0x128>
 1008d6c:	d9000317 	ldw	r4,12(sp)
 1008d70:	25000415 	stw	r20,16(r4)
 1008d74:	e005883a 	mov	r2,fp
 1008d78:	dfc00e17 	ldw	ra,56(sp)
 1008d7c:	df000d17 	ldw	fp,52(sp)
 1008d80:	ddc00c17 	ldw	r23,48(sp)
 1008d84:	dd800b17 	ldw	r22,44(sp)
 1008d88:	dd400a17 	ldw	r21,40(sp)
 1008d8c:	dd000917 	ldw	r20,36(sp)
 1008d90:	dcc00817 	ldw	r19,32(sp)
 1008d94:	dc800717 	ldw	r18,28(sp)
 1008d98:	dc400617 	ldw	r17,24(sp)
 1008d9c:	dc000517 	ldw	r16,20(sp)
 1008da0:	dec00f04 	addi	sp,sp,60
 1008da4:	f800283a 	ret
 1008da8:	b823883a 	mov	r17,r23
 1008dac:	9825883a 	mov	r18,r19
 1008db0:	d8000115 	stw	zero,4(sp)
 1008db4:	002b883a 	mov	r21,zero
 1008db8:	94000017 	ldw	r16,0(r18)
 1008dbc:	e009883a 	mov	r4,fp
 1008dc0:	94800104 	addi	r18,r18,4
 1008dc4:	817fffcc 	andi	r5,r16,65535
 1008dc8:	1005a5c0 	call	1005a5c <__mulsi3>
 1008dcc:	800ad43a 	srli	r5,r16,16
 1008dd0:	e009883a 	mov	r4,fp
 1008dd4:	a8a1883a 	add	r16,r21,r2
 1008dd8:	1005a5c0 	call	1005a5c <__mulsi3>
 1008ddc:	89000017 	ldw	r4,0(r17)
 1008de0:	80ffffcc 	andi	r3,r16,65535
 1008de4:	8020d43a 	srli	r16,r16,16
 1008de8:	217fffcc 	andi	r5,r4,65535
 1008dec:	28cbc83a 	sub	r5,r5,r3
 1008df0:	d8c00117 	ldw	r3,4(sp)
 1008df4:	2008d43a 	srli	r4,r4,16
 1008df8:	1405883a 	add	r2,r2,r16
 1008dfc:	28cb883a 	add	r5,r5,r3
 1008e00:	280dd43a 	srai	r6,r5,16
 1008e04:	10ffffcc 	andi	r3,r2,65535
 1008e08:	20c9c83a 	sub	r4,r4,r3
 1008e0c:	2189883a 	add	r4,r4,r6
 1008e10:	8900008d 	sth	r4,2(r17)
 1008e14:	2009d43a 	srai	r4,r4,16
 1008e18:	8940000d 	sth	r5,0(r17)
 1008e1c:	102ad43a 	srli	r21,r2,16
 1008e20:	8c400104 	addi	r17,r17,4
 1008e24:	d9000115 	stw	r4,4(sp)
 1008e28:	b4bfe32e 	bgeu	r22,r18,1008db8 <quorem+0x188>
 1008e2c:	d9000217 	ldw	r4,8(sp)
 1008e30:	203fa01e 	bne	r4,zero,1008cb4 <quorem+0x84>
 1008e34:	d8800017 	ldw	r2,0(sp)
 1008e38:	10ffff04 	addi	r3,r2,-4
 1008e3c:	b8c0082e 	bgeu	r23,r3,1008e60 <quorem+0x230>
 1008e40:	10bfff17 	ldw	r2,-4(r2)
 1008e44:	10000326 	beq	r2,zero,1008e54 <quorem+0x224>
 1008e48:	00000506 	br	1008e60 <quorem+0x230>
 1008e4c:	18800017 	ldw	r2,0(r3)
 1008e50:	1000031e 	bne	r2,zero,1008e60 <quorem+0x230>
 1008e54:	18ffff04 	addi	r3,r3,-4
 1008e58:	a53fffc4 	addi	r20,r20,-1
 1008e5c:	b8fffb36 	bltu	r23,r3,1008e4c <quorem+0x21c>
 1008e60:	d8c00317 	ldw	r3,12(sp)
 1008e64:	1d000415 	stw	r20,16(r3)
 1008e68:	003f9206 	br	1008cb4 <quorem+0x84>
 1008e6c:	0005883a 	mov	r2,zero
 1008e70:	003fc106 	br	1008d78 <quorem+0x148>

01008e74 <_dtoa_r>:
 1008e74:	22001017 	ldw	r8,64(r4)
 1008e78:	deffda04 	addi	sp,sp,-152
 1008e7c:	dd402115 	stw	r21,132(sp)
 1008e80:	dd002015 	stw	r20,128(sp)
 1008e84:	dc801e15 	stw	r18,120(sp)
 1008e88:	dc401d15 	stw	r17,116(sp)
 1008e8c:	dfc02515 	stw	ra,148(sp)
 1008e90:	df002415 	stw	fp,144(sp)
 1008e94:	ddc02315 	stw	r23,140(sp)
 1008e98:	dd802215 	stw	r22,136(sp)
 1008e9c:	dcc01f15 	stw	r19,124(sp)
 1008ea0:	dc001c15 	stw	r16,112(sp)
 1008ea4:	d9001615 	stw	r4,88(sp)
 1008ea8:	3023883a 	mov	r17,r6
 1008eac:	2829883a 	mov	r20,r5
 1008eb0:	d9c01715 	stw	r7,92(sp)
 1008eb4:	dc802817 	ldw	r18,160(sp)
 1008eb8:	302b883a 	mov	r21,r6
 1008ebc:	40000a26 	beq	r8,zero,1008ee8 <_dtoa_r+0x74>
 1008ec0:	20801117 	ldw	r2,68(r4)
 1008ec4:	400b883a 	mov	r5,r8
 1008ec8:	40800115 	stw	r2,4(r8)
 1008ecc:	20c01117 	ldw	r3,68(r4)
 1008ed0:	00800044 	movi	r2,1
 1008ed4:	10c4983a 	sll	r2,r2,r3
 1008ed8:	40800215 	stw	r2,8(r8)
 1008edc:	100b9700 	call	100b970 <_Bfree>
 1008ee0:	d8c01617 	ldw	r3,88(sp)
 1008ee4:	18001015 	stw	zero,64(r3)
 1008ee8:	8800a316 	blt	r17,zero,1009178 <_dtoa_r+0x304>
 1008eec:	90000015 	stw	zero,0(r18)
 1008ef0:	a8dffc2c 	andhi	r3,r21,32752
 1008ef4:	009ffc34 	movhi	r2,32752
 1008ef8:	18809126 	beq	r3,r2,1009140 <_dtoa_r+0x2cc>
 1008efc:	000d883a 	mov	r6,zero
 1008f00:	000f883a 	mov	r7,zero
 1008f04:	a009883a 	mov	r4,r20
 1008f08:	a80b883a 	mov	r5,r21
 1008f0c:	dd001215 	stw	r20,72(sp)
 1008f10:	dd401315 	stw	r21,76(sp)
 1008f14:	100e3dc0 	call	100e3dc <__nedf2>
 1008f18:	1000171e 	bne	r2,zero,1008f78 <_dtoa_r+0x104>
 1008f1c:	d9802717 	ldw	r6,156(sp)
 1008f20:	00800044 	movi	r2,1
 1008f24:	30800015 	stw	r2,0(r6)
 1008f28:	d8802917 	ldw	r2,164(sp)
 1008f2c:	10029b26 	beq	r2,zero,100999c <_dtoa_r+0xb28>
 1008f30:	d9002917 	ldw	r4,164(sp)
 1008f34:	00804134 	movhi	r2,260
 1008f38:	109a1744 	addi	r2,r2,26717
 1008f3c:	10ffffc4 	addi	r3,r2,-1
 1008f40:	20800015 	stw	r2,0(r4)
 1008f44:	1805883a 	mov	r2,r3
 1008f48:	dfc02517 	ldw	ra,148(sp)
 1008f4c:	df002417 	ldw	fp,144(sp)
 1008f50:	ddc02317 	ldw	r23,140(sp)
 1008f54:	dd802217 	ldw	r22,136(sp)
 1008f58:	dd402117 	ldw	r21,132(sp)
 1008f5c:	dd002017 	ldw	r20,128(sp)
 1008f60:	dcc01f17 	ldw	r19,124(sp)
 1008f64:	dc801e17 	ldw	r18,120(sp)
 1008f68:	dc401d17 	ldw	r17,116(sp)
 1008f6c:	dc001c17 	ldw	r16,112(sp)
 1008f70:	dec02604 	addi	sp,sp,152
 1008f74:	f800283a 	ret
 1008f78:	d9001617 	ldw	r4,88(sp)
 1008f7c:	d9401217 	ldw	r5,72(sp)
 1008f80:	d8800104 	addi	r2,sp,4
 1008f84:	a80d883a 	mov	r6,r21
 1008f88:	d9c00204 	addi	r7,sp,8
 1008f8c:	d8800015 	stw	r2,0(sp)
 1008f90:	100bfac0 	call	100bfac <__d2b>
 1008f94:	d8800715 	stw	r2,28(sp)
 1008f98:	a804d53a 	srli	r2,r21,20
 1008f9c:	1101ffcc 	andi	r4,r2,2047
 1008fa0:	20008626 	beq	r4,zero,10091bc <_dtoa_r+0x348>
 1008fa4:	d8c01217 	ldw	r3,72(sp)
 1008fa8:	00800434 	movhi	r2,16
 1008fac:	10bfffc4 	addi	r2,r2,-1
 1008fb0:	ddc00117 	ldw	r23,4(sp)
 1008fb4:	a884703a 	and	r2,r21,r2
 1008fb8:	1811883a 	mov	r8,r3
 1008fbc:	124ffc34 	orhi	r9,r2,16368
 1008fc0:	25bf0044 	addi	r22,r4,-1023
 1008fc4:	d8000815 	stw	zero,32(sp)
 1008fc8:	0005883a 	mov	r2,zero
 1008fcc:	00cffe34 	movhi	r3,16376
 1008fd0:	480b883a 	mov	r5,r9
 1008fd4:	4009883a 	mov	r4,r8
 1008fd8:	180f883a 	mov	r7,r3
 1008fdc:	100d883a 	mov	r6,r2
 1008fe0:	1004d880 	call	1004d88 <__subdf3>
 1008fe4:	0218dbf4 	movhi	r8,25455
 1008fe8:	4210d844 	addi	r8,r8,17249
 1008fec:	024ff4f4 	movhi	r9,16339
 1008ff0:	4a61e9c4 	addi	r9,r9,-30809
 1008ff4:	480f883a 	mov	r7,r9
 1008ff8:	400d883a 	mov	r6,r8
 1008ffc:	180b883a 	mov	r5,r3
 1009000:	1009883a 	mov	r4,r2
 1009004:	1004e7c0 	call	1004e7c <__muldf3>
 1009008:	0222d874 	movhi	r8,35681
 100900c:	42322cc4 	addi	r8,r8,-14157
 1009010:	024ff1f4 	movhi	r9,16327
 1009014:	4a628a04 	addi	r9,r9,-30168
 1009018:	480f883a 	mov	r7,r9
 100901c:	400d883a 	mov	r6,r8
 1009020:	180b883a 	mov	r5,r3
 1009024:	1009883a 	mov	r4,r2
 1009028:	1004e080 	call	1004e08 <__adddf3>
 100902c:	b009883a 	mov	r4,r22
 1009030:	1021883a 	mov	r16,r2
 1009034:	1823883a 	mov	r17,r3
 1009038:	10057400 	call	1005740 <__floatsidf>
 100903c:	021427f4 	movhi	r8,20639
 1009040:	421e7ec4 	addi	r8,r8,31227
 1009044:	024ff4f4 	movhi	r9,16339
 1009048:	4a5104c4 	addi	r9,r9,17427
 100904c:	480f883a 	mov	r7,r9
 1009050:	400d883a 	mov	r6,r8
 1009054:	180b883a 	mov	r5,r3
 1009058:	1009883a 	mov	r4,r2
 100905c:	1004e7c0 	call	1004e7c <__muldf3>
 1009060:	180f883a 	mov	r7,r3
 1009064:	880b883a 	mov	r5,r17
 1009068:	100d883a 	mov	r6,r2
 100906c:	8009883a 	mov	r4,r16
 1009070:	1004e080 	call	1004e08 <__adddf3>
 1009074:	1009883a 	mov	r4,r2
 1009078:	180b883a 	mov	r5,r3
 100907c:	1021883a 	mov	r16,r2
 1009080:	1823883a 	mov	r17,r3
 1009084:	10058380 	call	1005838 <__fixdfsi>
 1009088:	000d883a 	mov	r6,zero
 100908c:	000f883a 	mov	r7,zero
 1009090:	8009883a 	mov	r4,r16
 1009094:	880b883a 	mov	r5,r17
 1009098:	d8800d15 	stw	r2,52(sp)
 100909c:	10056300 	call	1005630 <__ltdf2>
 10090a0:	10031716 	blt	r2,zero,1009d00 <_dtoa_r+0xe8c>
 10090a4:	d8c00d17 	ldw	r3,52(sp)
 10090a8:	00800584 	movi	r2,22
 10090ac:	10c1482e 	bgeu	r2,r3,10095d0 <_dtoa_r+0x75c>
 10090b0:	01000044 	movi	r4,1
 10090b4:	d9000c15 	stw	r4,48(sp)
 10090b8:	bd85c83a 	sub	r2,r23,r22
 10090bc:	11bfffc4 	addi	r6,r2,-1
 10090c0:	30030b16 	blt	r6,zero,1009cf0 <_dtoa_r+0xe7c>
 10090c4:	d9800a15 	stw	r6,40(sp)
 10090c8:	d8001115 	stw	zero,68(sp)
 10090cc:	d8c00d17 	ldw	r3,52(sp)
 10090d0:	1802ff16 	blt	r3,zero,1009cd0 <_dtoa_r+0xe5c>
 10090d4:	d9000a17 	ldw	r4,40(sp)
 10090d8:	d8c00915 	stw	r3,36(sp)
 10090dc:	d8001015 	stw	zero,64(sp)
 10090e0:	20c9883a 	add	r4,r4,r3
 10090e4:	d9000a15 	stw	r4,40(sp)
 10090e8:	d9001717 	ldw	r4,92(sp)
 10090ec:	00800244 	movi	r2,9
 10090f0:	11004636 	bltu	r2,r4,100920c <_dtoa_r+0x398>
 10090f4:	00800144 	movi	r2,5
 10090f8:	11020416 	blt	r2,r4,100990c <_dtoa_r+0xa98>
 10090fc:	04400044 	movi	r17,1
 1009100:	d8c01717 	ldw	r3,92(sp)
 1009104:	00800144 	movi	r2,5
 1009108:	10c1ed36 	bltu	r2,r3,10098c0 <_dtoa_r+0xa4c>
 100910c:	18c5883a 	add	r2,r3,r3
 1009110:	1085883a 	add	r2,r2,r2
 1009114:	00c04074 	movhi	r3,257
 1009118:	18e44a04 	addi	r3,r3,-28376
 100911c:	10c5883a 	add	r2,r2,r3
 1009120:	11000017 	ldw	r4,0(r2)
 1009124:	2000683a 	jmp	r4
 1009128:	01009214 	movui	r4,584
 100912c:	01009214 	movui	r4,584
 1009130:	01009c14 	movui	r4,624
 1009134:	01009bec 	andhi	r4,zero,623
 1009138:	01009c30 	cmpltui	r4,zero,624
 100913c:	01009c3c 	xorhi	r4,zero,624
 1009140:	d9002717 	ldw	r4,156(sp)
 1009144:	0089c3c4 	movi	r2,9999
 1009148:	20800015 	stw	r2,0(r4)
 100914c:	a0001026 	beq	r20,zero,1009190 <_dtoa_r+0x31c>
 1009150:	00c04134 	movhi	r3,260
 1009154:	18da2304 	addi	r3,r3,26764
 1009158:	d9802917 	ldw	r6,164(sp)
 100915c:	303f7926 	beq	r6,zero,1008f44 <_dtoa_r+0xd0>
 1009160:	188000c7 	ldb	r2,3(r3)
 1009164:	190000c4 	addi	r4,r3,3
 1009168:	1000101e 	bne	r2,zero,10091ac <_dtoa_r+0x338>
 100916c:	d8802917 	ldw	r2,164(sp)
 1009170:	11000015 	stw	r4,0(r2)
 1009174:	003f7306 	br	1008f44 <_dtoa_r+0xd0>
 1009178:	00a00034 	movhi	r2,32768
 100917c:	10bfffc4 	addi	r2,r2,-1
 1009180:	00c00044 	movi	r3,1
 1009184:	88aa703a 	and	r21,r17,r2
 1009188:	90c00015 	stw	r3,0(r18)
 100918c:	003f5806 	br	1008ef0 <_dtoa_r+0x7c>
 1009190:	00800434 	movhi	r2,16
 1009194:	10bfffc4 	addi	r2,r2,-1
 1009198:	a884703a 	and	r2,r21,r2
 100919c:	103fec1e 	bne	r2,zero,1009150 <_dtoa_r+0x2dc>
 10091a0:	00c04134 	movhi	r3,260
 10091a4:	18da2004 	addi	r3,r3,26752
 10091a8:	003feb06 	br	1009158 <_dtoa_r+0x2e4>
 10091ac:	d8802917 	ldw	r2,164(sp)
 10091b0:	19000204 	addi	r4,r3,8
 10091b4:	11000015 	stw	r4,0(r2)
 10091b8:	003f6206 	br	1008f44 <_dtoa_r+0xd0>
 10091bc:	ddc00117 	ldw	r23,4(sp)
 10091c0:	d8800217 	ldw	r2,8(sp)
 10091c4:	01000804 	movi	r4,32
 10091c8:	b8c10c84 	addi	r3,r23,1074
 10091cc:	18a3883a 	add	r17,r3,r2
 10091d0:	2441b80e 	bge	r4,r17,10098b4 <_dtoa_r+0xa40>
 10091d4:	00c01004 	movi	r3,64
 10091d8:	1c47c83a 	sub	r3,r3,r17
 10091dc:	88bff804 	addi	r2,r17,-32
 10091e0:	a8c6983a 	sll	r3,r21,r3
 10091e4:	a084d83a 	srl	r2,r20,r2
 10091e8:	1888b03a 	or	r4,r3,r2
 10091ec:	100e4640 	call	100e464 <__floatunsidf>
 10091f0:	1011883a 	mov	r8,r2
 10091f4:	00bf8434 	movhi	r2,65040
 10091f8:	01000044 	movi	r4,1
 10091fc:	10d3883a 	add	r9,r2,r3
 1009200:	8dbef344 	addi	r22,r17,-1075
 1009204:	d9000815 	stw	r4,32(sp)
 1009208:	003f6f06 	br	1008fc8 <_dtoa_r+0x154>
 100920c:	d8001715 	stw	zero,92(sp)
 1009210:	04400044 	movi	r17,1
 1009214:	00bfffc4 	movi	r2,-1
 1009218:	00c00044 	movi	r3,1
 100921c:	d8800e15 	stw	r2,56(sp)
 1009220:	d8002615 	stw	zero,152(sp)
 1009224:	d8800f15 	stw	r2,60(sp)
 1009228:	d8c00b15 	stw	r3,44(sp)
 100922c:	1021883a 	mov	r16,r2
 1009230:	d8801617 	ldw	r2,88(sp)
 1009234:	10001115 	stw	zero,68(r2)
 1009238:	d8801617 	ldw	r2,88(sp)
 100923c:	11401117 	ldw	r5,68(r2)
 1009240:	1009883a 	mov	r4,r2
 1009244:	100bef00 	call	100bef0 <_Balloc>
 1009248:	d8c01617 	ldw	r3,88(sp)
 100924c:	d8800515 	stw	r2,20(sp)
 1009250:	18801015 	stw	r2,64(r3)
 1009254:	00800384 	movi	r2,14
 1009258:	14006836 	bltu	r2,r16,10093fc <_dtoa_r+0x588>
 100925c:	8805003a 	cmpeq	r2,r17,zero
 1009260:	1000661e 	bne	r2,zero,10093fc <_dtoa_r+0x588>
 1009264:	d9000d17 	ldw	r4,52(sp)
 1009268:	0102300e 	bge	zero,r4,1009b2c <_dtoa_r+0xcb8>
 100926c:	208003cc 	andi	r2,r4,15
 1009270:	100490fa 	slli	r2,r2,3
 1009274:	2025d13a 	srai	r18,r4,4
 1009278:	00c04134 	movhi	r3,260
 100927c:	18da3504 	addi	r3,r3,26836
 1009280:	10c5883a 	add	r2,r2,r3
 1009284:	90c0040c 	andi	r3,r18,16
 1009288:	14000017 	ldw	r16,0(r2)
 100928c:	14400117 	ldw	r17,4(r2)
 1009290:	18036a1e 	bne	r3,zero,100a03c <_dtoa_r+0x11c8>
 1009294:	05800084 	movi	r22,2
 1009298:	90001026 	beq	r18,zero,10092dc <_dtoa_r+0x468>
 100929c:	04c04134 	movhi	r19,260
 10092a0:	9cda6704 	addi	r19,r19,27036
 10092a4:	9080004c 	andi	r2,r18,1
 10092a8:	1005003a 	cmpeq	r2,r2,zero
 10092ac:	1000081e 	bne	r2,zero,10092d0 <_dtoa_r+0x45c>
 10092b0:	99800017 	ldw	r6,0(r19)
 10092b4:	99c00117 	ldw	r7,4(r19)
 10092b8:	880b883a 	mov	r5,r17
 10092bc:	8009883a 	mov	r4,r16
 10092c0:	1004e7c0 	call	1004e7c <__muldf3>
 10092c4:	1021883a 	mov	r16,r2
 10092c8:	b5800044 	addi	r22,r22,1
 10092cc:	1823883a 	mov	r17,r3
 10092d0:	9025d07a 	srai	r18,r18,1
 10092d4:	9cc00204 	addi	r19,r19,8
 10092d8:	903ff21e 	bne	r18,zero,10092a4 <_dtoa_r+0x430>
 10092dc:	a80b883a 	mov	r5,r21
 10092e0:	a009883a 	mov	r4,r20
 10092e4:	880f883a 	mov	r7,r17
 10092e8:	800d883a 	mov	r6,r16
 10092ec:	10052400 	call	1005240 <__divdf3>
 10092f0:	1029883a 	mov	r20,r2
 10092f4:	182b883a 	mov	r21,r3
 10092f8:	d8c00c17 	ldw	r3,48(sp)
 10092fc:	1805003a 	cmpeq	r2,r3,zero
 1009300:	1000081e 	bne	r2,zero,1009324 <_dtoa_r+0x4b0>
 1009304:	0005883a 	mov	r2,zero
 1009308:	00cffc34 	movhi	r3,16368
 100930c:	180f883a 	mov	r7,r3
 1009310:	a009883a 	mov	r4,r20
 1009314:	a80b883a 	mov	r5,r21
 1009318:	100d883a 	mov	r6,r2
 100931c:	10056300 	call	1005630 <__ltdf2>
 1009320:	1003fe16 	blt	r2,zero,100a31c <_dtoa_r+0x14a8>
 1009324:	b009883a 	mov	r4,r22
 1009328:	10057400 	call	1005740 <__floatsidf>
 100932c:	180b883a 	mov	r5,r3
 1009330:	1009883a 	mov	r4,r2
 1009334:	a00d883a 	mov	r6,r20
 1009338:	a80f883a 	mov	r7,r21
 100933c:	1004e7c0 	call	1004e7c <__muldf3>
 1009340:	0011883a 	mov	r8,zero
 1009344:	02500734 	movhi	r9,16412
 1009348:	1009883a 	mov	r4,r2
 100934c:	180b883a 	mov	r5,r3
 1009350:	480f883a 	mov	r7,r9
 1009354:	400d883a 	mov	r6,r8
 1009358:	1004e080 	call	1004e08 <__adddf3>
 100935c:	d9000f17 	ldw	r4,60(sp)
 1009360:	102d883a 	mov	r22,r2
 1009364:	00bf3034 	movhi	r2,64704
 1009368:	18b9883a 	add	fp,r3,r2
 100936c:	e02f883a 	mov	r23,fp
 1009370:	20028f1e 	bne	r4,zero,1009db0 <_dtoa_r+0xf3c>
 1009374:	0005883a 	mov	r2,zero
 1009378:	00d00534 	movhi	r3,16404
 100937c:	a009883a 	mov	r4,r20
 1009380:	a80b883a 	mov	r5,r21
 1009384:	180f883a 	mov	r7,r3
 1009388:	100d883a 	mov	r6,r2
 100938c:	1004d880 	call	1004d88 <__subdf3>
 1009390:	1009883a 	mov	r4,r2
 1009394:	e00f883a 	mov	r7,fp
 1009398:	180b883a 	mov	r5,r3
 100939c:	b00d883a 	mov	r6,r22
 10093a0:	1025883a 	mov	r18,r2
 10093a4:	1827883a 	mov	r19,r3
 10093a8:	10055200 	call	1005520 <__gtdf2>
 10093ac:	00834f16 	blt	zero,r2,100a0ec <_dtoa_r+0x1278>
 10093b0:	e0e0003c 	xorhi	r3,fp,32768
 10093b4:	9009883a 	mov	r4,r18
 10093b8:	980b883a 	mov	r5,r19
 10093bc:	180f883a 	mov	r7,r3
 10093c0:	b00d883a 	mov	r6,r22
 10093c4:	10056300 	call	1005630 <__ltdf2>
 10093c8:	1000080e 	bge	r2,zero,10093ec <_dtoa_r+0x578>
 10093cc:	0027883a 	mov	r19,zero
 10093d0:	0025883a 	mov	r18,zero
 10093d4:	d8802617 	ldw	r2,152(sp)
 10093d8:	df000517 	ldw	fp,20(sp)
 10093dc:	d8000615 	stw	zero,24(sp)
 10093e0:	0084303a 	nor	r2,zero,r2
 10093e4:	d8800d15 	stw	r2,52(sp)
 10093e8:	00019b06 	br	1009a58 <_dtoa_r+0xbe4>
 10093ec:	d9801217 	ldw	r6,72(sp)
 10093f0:	d8801317 	ldw	r2,76(sp)
 10093f4:	3029883a 	mov	r20,r6
 10093f8:	102b883a 	mov	r21,r2
 10093fc:	d8c00217 	ldw	r3,8(sp)
 1009400:	18008516 	blt	r3,zero,1009618 <_dtoa_r+0x7a4>
 1009404:	d9000d17 	ldw	r4,52(sp)
 1009408:	00800384 	movi	r2,14
 100940c:	11008216 	blt	r2,r4,1009618 <_dtoa_r+0x7a4>
 1009410:	200490fa 	slli	r2,r4,3
 1009414:	d9802617 	ldw	r6,152(sp)
 1009418:	00c04134 	movhi	r3,260
 100941c:	18da3504 	addi	r3,r3,26836
 1009420:	10c5883a 	add	r2,r2,r3
 1009424:	14800017 	ldw	r18,0(r2)
 1009428:	14c00117 	ldw	r19,4(r2)
 100942c:	30031e16 	blt	r6,zero,100a0a8 <_dtoa_r+0x1234>
 1009430:	d9000517 	ldw	r4,20(sp)
 1009434:	d8c00f17 	ldw	r3,60(sp)
 1009438:	a823883a 	mov	r17,r21
 100943c:	a021883a 	mov	r16,r20
 1009440:	192b883a 	add	r21,r3,r4
 1009444:	2039883a 	mov	fp,r4
 1009448:	00000f06 	br	1009488 <_dtoa_r+0x614>
 100944c:	0005883a 	mov	r2,zero
 1009450:	00d00934 	movhi	r3,16420
 1009454:	5009883a 	mov	r4,r10
 1009458:	580b883a 	mov	r5,r11
 100945c:	180f883a 	mov	r7,r3
 1009460:	100d883a 	mov	r6,r2
 1009464:	1004e7c0 	call	1004e7c <__muldf3>
 1009468:	180b883a 	mov	r5,r3
 100946c:	000d883a 	mov	r6,zero
 1009470:	000f883a 	mov	r7,zero
 1009474:	1009883a 	mov	r4,r2
 1009478:	1021883a 	mov	r16,r2
 100947c:	1823883a 	mov	r17,r3
 1009480:	100e3dc0 	call	100e3dc <__nedf2>
 1009484:	10004526 	beq	r2,zero,100959c <_dtoa_r+0x728>
 1009488:	900d883a 	mov	r6,r18
 100948c:	980f883a 	mov	r7,r19
 1009490:	8009883a 	mov	r4,r16
 1009494:	880b883a 	mov	r5,r17
 1009498:	10052400 	call	1005240 <__divdf3>
 100949c:	180b883a 	mov	r5,r3
 10094a0:	1009883a 	mov	r4,r2
 10094a4:	10058380 	call	1005838 <__fixdfsi>
 10094a8:	1009883a 	mov	r4,r2
 10094ac:	1029883a 	mov	r20,r2
 10094b0:	10057400 	call	1005740 <__floatsidf>
 10094b4:	180f883a 	mov	r7,r3
 10094b8:	9009883a 	mov	r4,r18
 10094bc:	980b883a 	mov	r5,r19
 10094c0:	100d883a 	mov	r6,r2
 10094c4:	1004e7c0 	call	1004e7c <__muldf3>
 10094c8:	180f883a 	mov	r7,r3
 10094cc:	880b883a 	mov	r5,r17
 10094d0:	8009883a 	mov	r4,r16
 10094d4:	100d883a 	mov	r6,r2
 10094d8:	1004d880 	call	1004d88 <__subdf3>
 10094dc:	1015883a 	mov	r10,r2
 10094e0:	a0800c04 	addi	r2,r20,48
 10094e4:	e0800005 	stb	r2,0(fp)
 10094e8:	e7000044 	addi	fp,fp,1
 10094ec:	1817883a 	mov	r11,r3
 10094f0:	e57fd61e 	bne	fp,r21,100944c <_dtoa_r+0x5d8>
 10094f4:	500d883a 	mov	r6,r10
 10094f8:	180f883a 	mov	r7,r3
 10094fc:	5009883a 	mov	r4,r10
 1009500:	180b883a 	mov	r5,r3
 1009504:	1004e080 	call	1004e08 <__adddf3>
 1009508:	100d883a 	mov	r6,r2
 100950c:	9009883a 	mov	r4,r18
 1009510:	980b883a 	mov	r5,r19
 1009514:	180f883a 	mov	r7,r3
 1009518:	1021883a 	mov	r16,r2
 100951c:	1823883a 	mov	r17,r3
 1009520:	10056300 	call	1005630 <__ltdf2>
 1009524:	10000816 	blt	r2,zero,1009548 <_dtoa_r+0x6d4>
 1009528:	980b883a 	mov	r5,r19
 100952c:	800d883a 	mov	r6,r16
 1009530:	880f883a 	mov	r7,r17
 1009534:	9009883a 	mov	r4,r18
 1009538:	10054980 	call	1005498 <__eqdf2>
 100953c:	1000171e 	bne	r2,zero,100959c <_dtoa_r+0x728>
 1009540:	a080004c 	andi	r2,r20,1
 1009544:	10001526 	beq	r2,zero,100959c <_dtoa_r+0x728>
 1009548:	d8800d17 	ldw	r2,52(sp)
 100954c:	d8800415 	stw	r2,16(sp)
 1009550:	e009883a 	mov	r4,fp
 1009554:	213fffc4 	addi	r4,r4,-1
 1009558:	20c00007 	ldb	r3,0(r4)
 100955c:	00800e44 	movi	r2,57
 1009560:	1880081e 	bne	r3,r2,1009584 <_dtoa_r+0x710>
 1009564:	d8800517 	ldw	r2,20(sp)
 1009568:	113ffa1e 	bne	r2,r4,1009554 <_dtoa_r+0x6e0>
 100956c:	d8c00417 	ldw	r3,16(sp)
 1009570:	d9800517 	ldw	r6,20(sp)
 1009574:	00800c04 	movi	r2,48
 1009578:	18c00044 	addi	r3,r3,1
 100957c:	d8c00415 	stw	r3,16(sp)
 1009580:	30800005 	stb	r2,0(r6)
 1009584:	20800003 	ldbu	r2,0(r4)
 1009588:	d8c00417 	ldw	r3,16(sp)
 100958c:	27000044 	addi	fp,r4,1
 1009590:	10800044 	addi	r2,r2,1
 1009594:	d8c00d15 	stw	r3,52(sp)
 1009598:	20800005 	stb	r2,0(r4)
 100959c:	d9001617 	ldw	r4,88(sp)
 10095a0:	d9400717 	ldw	r5,28(sp)
 10095a4:	100b9700 	call	100b970 <_Bfree>
 10095a8:	e0000005 	stb	zero,0(fp)
 10095ac:	d9800d17 	ldw	r6,52(sp)
 10095b0:	d8c02717 	ldw	r3,156(sp)
 10095b4:	d9002917 	ldw	r4,164(sp)
 10095b8:	30800044 	addi	r2,r6,1
 10095bc:	18800015 	stw	r2,0(r3)
 10095c0:	20029c26 	beq	r4,zero,100a034 <_dtoa_r+0x11c0>
 10095c4:	d8c00517 	ldw	r3,20(sp)
 10095c8:	27000015 	stw	fp,0(r4)
 10095cc:	003e5d06 	br	1008f44 <_dtoa_r+0xd0>
 10095d0:	d9800d17 	ldw	r6,52(sp)
 10095d4:	00c04134 	movhi	r3,260
 10095d8:	18da3504 	addi	r3,r3,26836
 10095dc:	d9001217 	ldw	r4,72(sp)
 10095e0:	300490fa 	slli	r2,r6,3
 10095e4:	d9401317 	ldw	r5,76(sp)
 10095e8:	10c5883a 	add	r2,r2,r3
 10095ec:	12000017 	ldw	r8,0(r2)
 10095f0:	12400117 	ldw	r9,4(r2)
 10095f4:	400d883a 	mov	r6,r8
 10095f8:	480f883a 	mov	r7,r9
 10095fc:	10056300 	call	1005630 <__ltdf2>
 1009600:	1000030e 	bge	r2,zero,1009610 <_dtoa_r+0x79c>
 1009604:	d8800d17 	ldw	r2,52(sp)
 1009608:	10bfffc4 	addi	r2,r2,-1
 100960c:	d8800d15 	stw	r2,52(sp)
 1009610:	d8000c15 	stw	zero,48(sp)
 1009614:	003ea806 	br	10090b8 <_dtoa_r+0x244>
 1009618:	d9000b17 	ldw	r4,44(sp)
 100961c:	202cc03a 	cmpne	r22,r4,zero
 1009620:	b000c71e 	bne	r22,zero,1009940 <_dtoa_r+0xacc>
 1009624:	dc001117 	ldw	r16,68(sp)
 1009628:	dc801017 	ldw	r18,64(sp)
 100962c:	0027883a 	mov	r19,zero
 1009630:	04000b0e 	bge	zero,r16,1009660 <_dtoa_r+0x7ec>
 1009634:	d8c00a17 	ldw	r3,40(sp)
 1009638:	00c0090e 	bge	zero,r3,1009660 <_dtoa_r+0x7ec>
 100963c:	8005883a 	mov	r2,r16
 1009640:	1c011316 	blt	r3,r16,1009a90 <_dtoa_r+0xc1c>
 1009644:	d9000a17 	ldw	r4,40(sp)
 1009648:	d9801117 	ldw	r6,68(sp)
 100964c:	80a1c83a 	sub	r16,r16,r2
 1009650:	2089c83a 	sub	r4,r4,r2
 1009654:	308dc83a 	sub	r6,r6,r2
 1009658:	d9000a15 	stw	r4,40(sp)
 100965c:	d9801115 	stw	r6,68(sp)
 1009660:	d8801017 	ldw	r2,64(sp)
 1009664:	0080150e 	bge	zero,r2,10096bc <_dtoa_r+0x848>
 1009668:	d8c00b17 	ldw	r3,44(sp)
 100966c:	1805003a 	cmpeq	r2,r3,zero
 1009670:	1001c91e 	bne	r2,zero,1009d98 <_dtoa_r+0xf24>
 1009674:	04800e0e 	bge	zero,r18,10096b0 <_dtoa_r+0x83c>
 1009678:	d9001617 	ldw	r4,88(sp)
 100967c:	980b883a 	mov	r5,r19
 1009680:	900d883a 	mov	r6,r18
 1009684:	100c7bc0 	call	100c7bc <__pow5mult>
 1009688:	d9001617 	ldw	r4,88(sp)
 100968c:	d9800717 	ldw	r6,28(sp)
 1009690:	100b883a 	mov	r5,r2
 1009694:	1027883a 	mov	r19,r2
 1009698:	100c4000 	call	100c400 <__multiply>
 100969c:	d9001617 	ldw	r4,88(sp)
 10096a0:	d9400717 	ldw	r5,28(sp)
 10096a4:	1023883a 	mov	r17,r2
 10096a8:	100b9700 	call	100b970 <_Bfree>
 10096ac:	dc400715 	stw	r17,28(sp)
 10096b0:	d9001017 	ldw	r4,64(sp)
 10096b4:	248dc83a 	sub	r6,r4,r18
 10096b8:	30010e1e 	bne	r6,zero,1009af4 <_dtoa_r+0xc80>
 10096bc:	d9001617 	ldw	r4,88(sp)
 10096c0:	04400044 	movi	r17,1
 10096c4:	880b883a 	mov	r5,r17
 10096c8:	100c6540 	call	100c654 <__i2b>
 10096cc:	d9800917 	ldw	r6,36(sp)
 10096d0:	1025883a 	mov	r18,r2
 10096d4:	0180040e 	bge	zero,r6,10096e8 <_dtoa_r+0x874>
 10096d8:	d9001617 	ldw	r4,88(sp)
 10096dc:	100b883a 	mov	r5,r2
 10096e0:	100c7bc0 	call	100c7bc <__pow5mult>
 10096e4:	1025883a 	mov	r18,r2
 10096e8:	d8801717 	ldw	r2,92(sp)
 10096ec:	8880f30e 	bge	r17,r2,1009abc <_dtoa_r+0xc48>
 10096f0:	0023883a 	mov	r17,zero
 10096f4:	d9800917 	ldw	r6,36(sp)
 10096f8:	30019e1e 	bne	r6,zero,1009d74 <_dtoa_r+0xf00>
 10096fc:	00c00044 	movi	r3,1
 1009700:	d9000a17 	ldw	r4,40(sp)
 1009704:	20c5883a 	add	r2,r4,r3
 1009708:	10c007cc 	andi	r3,r2,31
 100970c:	1800841e 	bne	r3,zero,1009920 <_dtoa_r+0xaac>
 1009710:	00800704 	movi	r2,28
 1009714:	d9000a17 	ldw	r4,40(sp)
 1009718:	d9801117 	ldw	r6,68(sp)
 100971c:	80a1883a 	add	r16,r16,r2
 1009720:	2089883a 	add	r4,r4,r2
 1009724:	308d883a 	add	r6,r6,r2
 1009728:	d9000a15 	stw	r4,40(sp)
 100972c:	d9801115 	stw	r6,68(sp)
 1009730:	d8801117 	ldw	r2,68(sp)
 1009734:	0080050e 	bge	zero,r2,100974c <_dtoa_r+0x8d8>
 1009738:	d9400717 	ldw	r5,28(sp)
 100973c:	d9001617 	ldw	r4,88(sp)
 1009740:	100d883a 	mov	r6,r2
 1009744:	100c2b40 	call	100c2b4 <__lshift>
 1009748:	d8800715 	stw	r2,28(sp)
 100974c:	d8c00a17 	ldw	r3,40(sp)
 1009750:	00c0050e 	bge	zero,r3,1009768 <_dtoa_r+0x8f4>
 1009754:	d9001617 	ldw	r4,88(sp)
 1009758:	900b883a 	mov	r5,r18
 100975c:	180d883a 	mov	r6,r3
 1009760:	100c2b40 	call	100c2b4 <__lshift>
 1009764:	1025883a 	mov	r18,r2
 1009768:	d9000c17 	ldw	r4,48(sp)
 100976c:	2005003a 	cmpeq	r2,r4,zero
 1009770:	10016f26 	beq	r2,zero,1009d30 <_dtoa_r+0xebc>
 1009774:	d9000f17 	ldw	r4,60(sp)
 1009778:	0102170e 	bge	zero,r4,1009fd8 <_dtoa_r+0x1164>
 100977c:	d9800b17 	ldw	r6,44(sp)
 1009780:	3005003a 	cmpeq	r2,r6,zero
 1009784:	1000881e 	bne	r2,zero,10099a8 <_dtoa_r+0xb34>
 1009788:	0400050e 	bge	zero,r16,10097a0 <_dtoa_r+0x92c>
 100978c:	d9001617 	ldw	r4,88(sp)
 1009790:	980b883a 	mov	r5,r19
 1009794:	800d883a 	mov	r6,r16
 1009798:	100c2b40 	call	100c2b4 <__lshift>
 100979c:	1027883a 	mov	r19,r2
 10097a0:	8804c03a 	cmpne	r2,r17,zero
 10097a4:	1002541e 	bne	r2,zero,100a0f8 <_dtoa_r+0x1284>
 10097a8:	980b883a 	mov	r5,r19
 10097ac:	dd800517 	ldw	r22,20(sp)
 10097b0:	dcc00615 	stw	r19,24(sp)
 10097b4:	a700004c 	andi	fp,r20,1
 10097b8:	2827883a 	mov	r19,r5
 10097bc:	d9000717 	ldw	r4,28(sp)
 10097c0:	900b883a 	mov	r5,r18
 10097c4:	1008c300 	call	1008c30 <quorem>
 10097c8:	d9000717 	ldw	r4,28(sp)
 10097cc:	d9400617 	ldw	r5,24(sp)
 10097d0:	1023883a 	mov	r17,r2
 10097d4:	8dc00c04 	addi	r23,r17,48
 10097d8:	100bacc0 	call	100bacc <__mcmp>
 10097dc:	d9001617 	ldw	r4,88(sp)
 10097e0:	900b883a 	mov	r5,r18
 10097e4:	980d883a 	mov	r6,r19
 10097e8:	1029883a 	mov	r20,r2
 10097ec:	100c1280 	call	100c128 <__mdiff>
 10097f0:	102b883a 	mov	r21,r2
 10097f4:	10800317 	ldw	r2,12(r2)
 10097f8:	1001281e 	bne	r2,zero,1009c9c <_dtoa_r+0xe28>
 10097fc:	d9000717 	ldw	r4,28(sp)
 1009800:	a80b883a 	mov	r5,r21
 1009804:	100bacc0 	call	100bacc <__mcmp>
 1009808:	d9001617 	ldw	r4,88(sp)
 100980c:	1021883a 	mov	r16,r2
 1009810:	a80b883a 	mov	r5,r21
 1009814:	100b9700 	call	100b970 <_Bfree>
 1009818:	8000041e 	bne	r16,zero,100982c <_dtoa_r+0x9b8>
 100981c:	d8801717 	ldw	r2,92(sp)
 1009820:	1000021e 	bne	r2,zero,100982c <_dtoa_r+0x9b8>
 1009824:	e004c03a 	cmpne	r2,fp,zero
 1009828:	10011726 	beq	r2,zero,1009c88 <_dtoa_r+0xe14>
 100982c:	a0010616 	blt	r20,zero,1009c48 <_dtoa_r+0xdd4>
 1009830:	a000041e 	bne	r20,zero,1009844 <_dtoa_r+0x9d0>
 1009834:	d8c01717 	ldw	r3,92(sp)
 1009838:	1800021e 	bne	r3,zero,1009844 <_dtoa_r+0x9d0>
 100983c:	e004c03a 	cmpne	r2,fp,zero
 1009840:	10010126 	beq	r2,zero,1009c48 <_dtoa_r+0xdd4>
 1009844:	04023d16 	blt	zero,r16,100a13c <_dtoa_r+0x12c8>
 1009848:	b5c00005 	stb	r23,0(r22)
 100984c:	d9800517 	ldw	r6,20(sp)
 1009850:	d9000f17 	ldw	r4,60(sp)
 1009854:	b5800044 	addi	r22,r22,1
 1009858:	3105883a 	add	r2,r6,r4
 100985c:	b0806526 	beq	r22,r2,10099f4 <_dtoa_r+0xb80>
 1009860:	d9400717 	ldw	r5,28(sp)
 1009864:	d9001617 	ldw	r4,88(sp)
 1009868:	01800284 	movi	r6,10
 100986c:	000f883a 	mov	r7,zero
 1009870:	100c6900 	call	100c690 <__multadd>
 1009874:	d8800715 	stw	r2,28(sp)
 1009878:	d8800617 	ldw	r2,24(sp)
 100987c:	14c10c26 	beq	r2,r19,1009cb0 <_dtoa_r+0xe3c>
 1009880:	d9400617 	ldw	r5,24(sp)
 1009884:	d9001617 	ldw	r4,88(sp)
 1009888:	01800284 	movi	r6,10
 100988c:	000f883a 	mov	r7,zero
 1009890:	100c6900 	call	100c690 <__multadd>
 1009894:	d9001617 	ldw	r4,88(sp)
 1009898:	980b883a 	mov	r5,r19
 100989c:	01800284 	movi	r6,10
 10098a0:	000f883a 	mov	r7,zero
 10098a4:	d8800615 	stw	r2,24(sp)
 10098a8:	100c6900 	call	100c690 <__multadd>
 10098ac:	1027883a 	mov	r19,r2
 10098b0:	003fc206 	br	10097bc <_dtoa_r+0x948>
 10098b4:	2445c83a 	sub	r2,r4,r17
 10098b8:	a088983a 	sll	r4,r20,r2
 10098bc:	003e4b06 	br	10091ec <_dtoa_r+0x378>
 10098c0:	01bfffc4 	movi	r6,-1
 10098c4:	00800044 	movi	r2,1
 10098c8:	d9800e15 	stw	r6,56(sp)
 10098cc:	d9800f15 	stw	r6,60(sp)
 10098d0:	d8800b15 	stw	r2,44(sp)
 10098d4:	d8c01617 	ldw	r3,88(sp)
 10098d8:	008005c4 	movi	r2,23
 10098dc:	18001115 	stw	zero,68(r3)
 10098e0:	1580082e 	bgeu	r2,r22,1009904 <_dtoa_r+0xa90>
 10098e4:	00c00104 	movi	r3,4
 10098e8:	0009883a 	mov	r4,zero
 10098ec:	18c7883a 	add	r3,r3,r3
 10098f0:	18800504 	addi	r2,r3,20
 10098f4:	21000044 	addi	r4,r4,1
 10098f8:	b0bffc2e 	bgeu	r22,r2,10098ec <_dtoa_r+0xa78>
 10098fc:	d9801617 	ldw	r6,88(sp)
 1009900:	31001115 	stw	r4,68(r6)
 1009904:	dc000f17 	ldw	r16,60(sp)
 1009908:	003e4b06 	br	1009238 <_dtoa_r+0x3c4>
 100990c:	d9801717 	ldw	r6,92(sp)
 1009910:	0023883a 	mov	r17,zero
 1009914:	31bfff04 	addi	r6,r6,-4
 1009918:	d9801715 	stw	r6,92(sp)
 100991c:	003df806 	br	1009100 <_dtoa_r+0x28c>
 1009920:	00800804 	movi	r2,32
 1009924:	10c9c83a 	sub	r4,r2,r3
 1009928:	00c00104 	movi	r3,4
 100992c:	19005a16 	blt	r3,r4,1009a98 <_dtoa_r+0xc24>
 1009930:	008000c4 	movi	r2,3
 1009934:	113f7e16 	blt	r2,r4,1009730 <_dtoa_r+0x8bc>
 1009938:	20800704 	addi	r2,r4,28
 100993c:	003f7506 	br	1009714 <_dtoa_r+0x8a0>
 1009940:	d9801717 	ldw	r6,92(sp)
 1009944:	00800044 	movi	r2,1
 1009948:	1180a10e 	bge	r2,r6,1009bd0 <_dtoa_r+0xd5c>
 100994c:	d9800f17 	ldw	r6,60(sp)
 1009950:	d8c01017 	ldw	r3,64(sp)
 1009954:	30bfffc4 	addi	r2,r6,-1
 1009958:	1881c616 	blt	r3,r2,100a074 <_dtoa_r+0x1200>
 100995c:	18a5c83a 	sub	r18,r3,r2
 1009960:	d8800f17 	ldw	r2,60(sp)
 1009964:	10026216 	blt	r2,zero,100a2f0 <_dtoa_r+0x147c>
 1009968:	dc001117 	ldw	r16,68(sp)
 100996c:	1007883a 	mov	r3,r2
 1009970:	d9800a17 	ldw	r6,40(sp)
 1009974:	d8801117 	ldw	r2,68(sp)
 1009978:	d9001617 	ldw	r4,88(sp)
 100997c:	30cd883a 	add	r6,r6,r3
 1009980:	10c5883a 	add	r2,r2,r3
 1009984:	01400044 	movi	r5,1
 1009988:	d9800a15 	stw	r6,40(sp)
 100998c:	d8801115 	stw	r2,68(sp)
 1009990:	100c6540 	call	100c654 <__i2b>
 1009994:	1027883a 	mov	r19,r2
 1009998:	003f2506 	br	1009630 <_dtoa_r+0x7bc>
 100999c:	00c04134 	movhi	r3,260
 10099a0:	18da1704 	addi	r3,r3,26716
 10099a4:	003d6706 	br	1008f44 <_dtoa_r+0xd0>
 10099a8:	dd800517 	ldw	r22,20(sp)
 10099ac:	04000044 	movi	r16,1
 10099b0:	00000706 	br	10099d0 <_dtoa_r+0xb5c>
 10099b4:	d9400717 	ldw	r5,28(sp)
 10099b8:	d9001617 	ldw	r4,88(sp)
 10099bc:	01800284 	movi	r6,10
 10099c0:	000f883a 	mov	r7,zero
 10099c4:	100c6900 	call	100c690 <__multadd>
 10099c8:	d8800715 	stw	r2,28(sp)
 10099cc:	84000044 	addi	r16,r16,1
 10099d0:	d9000717 	ldw	r4,28(sp)
 10099d4:	900b883a 	mov	r5,r18
 10099d8:	1008c300 	call	1008c30 <quorem>
 10099dc:	15c00c04 	addi	r23,r2,48
 10099e0:	b5c00005 	stb	r23,0(r22)
 10099e4:	d8c00f17 	ldw	r3,60(sp)
 10099e8:	b5800044 	addi	r22,r22,1
 10099ec:	80fff116 	blt	r16,r3,10099b4 <_dtoa_r+0xb40>
 10099f0:	d8000615 	stw	zero,24(sp)
 10099f4:	d9400717 	ldw	r5,28(sp)
 10099f8:	d9001617 	ldw	r4,88(sp)
 10099fc:	01800044 	movi	r6,1
 1009a00:	100c2b40 	call	100c2b4 <__lshift>
 1009a04:	1009883a 	mov	r4,r2
 1009a08:	900b883a 	mov	r5,r18
 1009a0c:	d8800715 	stw	r2,28(sp)
 1009a10:	100bacc0 	call	100bacc <__mcmp>
 1009a14:	00803c0e 	bge	zero,r2,1009b08 <_dtoa_r+0xc94>
 1009a18:	b009883a 	mov	r4,r22
 1009a1c:	213fffc4 	addi	r4,r4,-1
 1009a20:	21400003 	ldbu	r5,0(r4)
 1009a24:	00800e44 	movi	r2,57
 1009a28:	28c03fcc 	andi	r3,r5,255
 1009a2c:	18c0201c 	xori	r3,r3,128
 1009a30:	18ffe004 	addi	r3,r3,-128
 1009a34:	1881981e 	bne	r3,r2,100a098 <_dtoa_r+0x1224>
 1009a38:	d9800517 	ldw	r6,20(sp)
 1009a3c:	21bff71e 	bne	r4,r6,1009a1c <_dtoa_r+0xba8>
 1009a40:	d8800d17 	ldw	r2,52(sp)
 1009a44:	37000044 	addi	fp,r6,1
 1009a48:	10800044 	addi	r2,r2,1
 1009a4c:	d8800d15 	stw	r2,52(sp)
 1009a50:	00800c44 	movi	r2,49
 1009a54:	30800005 	stb	r2,0(r6)
 1009a58:	d9001617 	ldw	r4,88(sp)
 1009a5c:	900b883a 	mov	r5,r18
 1009a60:	100b9700 	call	100b970 <_Bfree>
 1009a64:	983ecd26 	beq	r19,zero,100959c <_dtoa_r+0x728>
 1009a68:	d8c00617 	ldw	r3,24(sp)
 1009a6c:	18000426 	beq	r3,zero,1009a80 <_dtoa_r+0xc0c>
 1009a70:	1cc00326 	beq	r3,r19,1009a80 <_dtoa_r+0xc0c>
 1009a74:	d9001617 	ldw	r4,88(sp)
 1009a78:	180b883a 	mov	r5,r3
 1009a7c:	100b9700 	call	100b970 <_Bfree>
 1009a80:	d9001617 	ldw	r4,88(sp)
 1009a84:	980b883a 	mov	r5,r19
 1009a88:	100b9700 	call	100b970 <_Bfree>
 1009a8c:	003ec306 	br	100959c <_dtoa_r+0x728>
 1009a90:	1805883a 	mov	r2,r3
 1009a94:	003eeb06 	br	1009644 <_dtoa_r+0x7d0>
 1009a98:	d9800a17 	ldw	r6,40(sp)
 1009a9c:	d8c01117 	ldw	r3,68(sp)
 1009aa0:	20bfff04 	addi	r2,r4,-4
 1009aa4:	308d883a 	add	r6,r6,r2
 1009aa8:	1887883a 	add	r3,r3,r2
 1009aac:	80a1883a 	add	r16,r16,r2
 1009ab0:	d9800a15 	stw	r6,40(sp)
 1009ab4:	d8c01115 	stw	r3,68(sp)
 1009ab8:	003f1d06 	br	1009730 <_dtoa_r+0x8bc>
 1009abc:	a03f0c1e 	bne	r20,zero,10096f0 <_dtoa_r+0x87c>
 1009ac0:	00800434 	movhi	r2,16
 1009ac4:	10bfffc4 	addi	r2,r2,-1
 1009ac8:	a884703a 	and	r2,r21,r2
 1009acc:	103f081e 	bne	r2,zero,10096f0 <_dtoa_r+0x87c>
 1009ad0:	a89ffc2c 	andhi	r2,r21,32752
 1009ad4:	103f0626 	beq	r2,zero,10096f0 <_dtoa_r+0x87c>
 1009ad8:	d8c01117 	ldw	r3,68(sp)
 1009adc:	d9000a17 	ldw	r4,40(sp)
 1009ae0:	18c00044 	addi	r3,r3,1
 1009ae4:	21000044 	addi	r4,r4,1
 1009ae8:	d8c01115 	stw	r3,68(sp)
 1009aec:	d9000a15 	stw	r4,40(sp)
 1009af0:	003f0006 	br	10096f4 <_dtoa_r+0x880>
 1009af4:	d9400717 	ldw	r5,28(sp)
 1009af8:	d9001617 	ldw	r4,88(sp)
 1009afc:	100c7bc0 	call	100c7bc <__pow5mult>
 1009b00:	d8800715 	stw	r2,28(sp)
 1009b04:	003eed06 	br	10096bc <_dtoa_r+0x848>
 1009b08:	1000021e 	bne	r2,zero,1009b14 <_dtoa_r+0xca0>
 1009b0c:	b880004c 	andi	r2,r23,1
 1009b10:	103fc11e 	bne	r2,zero,1009a18 <_dtoa_r+0xba4>
 1009b14:	b5bfffc4 	addi	r22,r22,-1
 1009b18:	b0c00007 	ldb	r3,0(r22)
 1009b1c:	00800c04 	movi	r2,48
 1009b20:	18bffc26 	beq	r3,r2,1009b14 <_dtoa_r+0xca0>
 1009b24:	b7000044 	addi	fp,r22,1
 1009b28:	003fcb06 	br	1009a58 <_dtoa_r+0xbe4>
 1009b2c:	d9800d17 	ldw	r6,52(sp)
 1009b30:	018fc83a 	sub	r7,zero,r6
 1009b34:	3801f726 	beq	r7,zero,100a314 <_dtoa_r+0x14a0>
 1009b38:	398003cc 	andi	r6,r7,15
 1009b3c:	300c90fa 	slli	r6,r6,3
 1009b40:	01404134 	movhi	r5,260
 1009b44:	295a3504 	addi	r5,r5,26836
 1009b48:	d9001217 	ldw	r4,72(sp)
 1009b4c:	314d883a 	add	r6,r6,r5
 1009b50:	30c00117 	ldw	r3,4(r6)
 1009b54:	30800017 	ldw	r2,0(r6)
 1009b58:	d9401317 	ldw	r5,76(sp)
 1009b5c:	3821d13a 	srai	r16,r7,4
 1009b60:	100d883a 	mov	r6,r2
 1009b64:	180f883a 	mov	r7,r3
 1009b68:	1004e7c0 	call	1004e7c <__muldf3>
 1009b6c:	1011883a 	mov	r8,r2
 1009b70:	1813883a 	mov	r9,r3
 1009b74:	1029883a 	mov	r20,r2
 1009b78:	182b883a 	mov	r21,r3
 1009b7c:	8001e526 	beq	r16,zero,100a314 <_dtoa_r+0x14a0>
 1009b80:	05800084 	movi	r22,2
 1009b84:	04404134 	movhi	r17,260
 1009b88:	8c5a6704 	addi	r17,r17,27036
 1009b8c:	8080004c 	andi	r2,r16,1
 1009b90:	1005003a 	cmpeq	r2,r2,zero
 1009b94:	1000081e 	bne	r2,zero,1009bb8 <_dtoa_r+0xd44>
 1009b98:	89800017 	ldw	r6,0(r17)
 1009b9c:	89c00117 	ldw	r7,4(r17)
 1009ba0:	480b883a 	mov	r5,r9
 1009ba4:	4009883a 	mov	r4,r8
 1009ba8:	1004e7c0 	call	1004e7c <__muldf3>
 1009bac:	1011883a 	mov	r8,r2
 1009bb0:	b5800044 	addi	r22,r22,1
 1009bb4:	1813883a 	mov	r9,r3
 1009bb8:	8021d07a 	srai	r16,r16,1
 1009bbc:	8c400204 	addi	r17,r17,8
 1009bc0:	803ff21e 	bne	r16,zero,1009b8c <_dtoa_r+0xd18>
 1009bc4:	4029883a 	mov	r20,r8
 1009bc8:	482b883a 	mov	r21,r9
 1009bcc:	003dca06 	br	10092f8 <_dtoa_r+0x484>
 1009bd0:	d9000817 	ldw	r4,32(sp)
 1009bd4:	2005003a 	cmpeq	r2,r4,zero
 1009bd8:	1001f61e 	bne	r2,zero,100a3b4 <_dtoa_r+0x1540>
 1009bdc:	dc001117 	ldw	r16,68(sp)
 1009be0:	dc801017 	ldw	r18,64(sp)
 1009be4:	18c10cc4 	addi	r3,r3,1075
 1009be8:	003f6106 	br	1009970 <_dtoa_r+0xafc>
 1009bec:	d8000b15 	stw	zero,44(sp)
 1009bf0:	d9802617 	ldw	r6,152(sp)
 1009bf4:	d8c00d17 	ldw	r3,52(sp)
 1009bf8:	30800044 	addi	r2,r6,1
 1009bfc:	18ad883a 	add	r22,r3,r2
 1009c00:	b13fffc4 	addi	r4,r22,-1
 1009c04:	d9000e15 	stw	r4,56(sp)
 1009c08:	0581f60e 	bge	zero,r22,100a3e4 <_dtoa_r+0x1570>
 1009c0c:	dd800f15 	stw	r22,60(sp)
 1009c10:	003f3006 	br	10098d4 <_dtoa_r+0xa60>
 1009c14:	d8000b15 	stw	zero,44(sp)
 1009c18:	d9002617 	ldw	r4,152(sp)
 1009c1c:	0101eb0e 	bge	zero,r4,100a3cc <_dtoa_r+0x1558>
 1009c20:	202d883a 	mov	r22,r4
 1009c24:	d9000e15 	stw	r4,56(sp)
 1009c28:	d9000f15 	stw	r4,60(sp)
 1009c2c:	003f2906 	br	10098d4 <_dtoa_r+0xa60>
 1009c30:	01800044 	movi	r6,1
 1009c34:	d9800b15 	stw	r6,44(sp)
 1009c38:	003ff706 	br	1009c18 <_dtoa_r+0xda4>
 1009c3c:	01000044 	movi	r4,1
 1009c40:	d9000b15 	stw	r4,44(sp)
 1009c44:	003fea06 	br	1009bf0 <_dtoa_r+0xd7c>
 1009c48:	04000c0e 	bge	zero,r16,1009c7c <_dtoa_r+0xe08>
 1009c4c:	d9400717 	ldw	r5,28(sp)
 1009c50:	d9001617 	ldw	r4,88(sp)
 1009c54:	01800044 	movi	r6,1
 1009c58:	100c2b40 	call	100c2b4 <__lshift>
 1009c5c:	1009883a 	mov	r4,r2
 1009c60:	900b883a 	mov	r5,r18
 1009c64:	d8800715 	stw	r2,28(sp)
 1009c68:	100bacc0 	call	100bacc <__mcmp>
 1009c6c:	0081e00e 	bge	zero,r2,100a3f0 <_dtoa_r+0x157c>
 1009c70:	bdc00044 	addi	r23,r23,1
 1009c74:	00800e84 	movi	r2,58
 1009c78:	b881a226 	beq	r23,r2,100a304 <_dtoa_r+0x1490>
 1009c7c:	b7000044 	addi	fp,r22,1
 1009c80:	b5c00005 	stb	r23,0(r22)
 1009c84:	003f7406 	br	1009a58 <_dtoa_r+0xbe4>
 1009c88:	00800e44 	movi	r2,57
 1009c8c:	b8819d26 	beq	r23,r2,100a304 <_dtoa_r+0x1490>
 1009c90:	053ffa0e 	bge	zero,r20,1009c7c <_dtoa_r+0xe08>
 1009c94:	8dc00c44 	addi	r23,r17,49
 1009c98:	003ff806 	br	1009c7c <_dtoa_r+0xe08>
 1009c9c:	d9001617 	ldw	r4,88(sp)
 1009ca0:	a80b883a 	mov	r5,r21
 1009ca4:	04000044 	movi	r16,1
 1009ca8:	100b9700 	call	100b970 <_Bfree>
 1009cac:	003edf06 	br	100982c <_dtoa_r+0x9b8>
 1009cb0:	d9001617 	ldw	r4,88(sp)
 1009cb4:	980b883a 	mov	r5,r19
 1009cb8:	01800284 	movi	r6,10
 1009cbc:	000f883a 	mov	r7,zero
 1009cc0:	100c6900 	call	100c690 <__multadd>
 1009cc4:	1027883a 	mov	r19,r2
 1009cc8:	d8800615 	stw	r2,24(sp)
 1009ccc:	003ebb06 	br	10097bc <_dtoa_r+0x948>
 1009cd0:	d9801117 	ldw	r6,68(sp)
 1009cd4:	d8800d17 	ldw	r2,52(sp)
 1009cd8:	d8000915 	stw	zero,36(sp)
 1009cdc:	308dc83a 	sub	r6,r6,r2
 1009ce0:	0087c83a 	sub	r3,zero,r2
 1009ce4:	d9801115 	stw	r6,68(sp)
 1009ce8:	d8c01015 	stw	r3,64(sp)
 1009cec:	003cfe06 	br	10090e8 <_dtoa_r+0x274>
 1009cf0:	018dc83a 	sub	r6,zero,r6
 1009cf4:	d9801115 	stw	r6,68(sp)
 1009cf8:	d8000a15 	stw	zero,40(sp)
 1009cfc:	003cf306 	br	10090cc <_dtoa_r+0x258>
 1009d00:	d9000d17 	ldw	r4,52(sp)
 1009d04:	10057400 	call	1005740 <__floatsidf>
 1009d08:	880b883a 	mov	r5,r17
 1009d0c:	8009883a 	mov	r4,r16
 1009d10:	180f883a 	mov	r7,r3
 1009d14:	100d883a 	mov	r6,r2
 1009d18:	100e3dc0 	call	100e3dc <__nedf2>
 1009d1c:	103ce126 	beq	r2,zero,10090a4 <_dtoa_r+0x230>
 1009d20:	d9800d17 	ldw	r6,52(sp)
 1009d24:	31bfffc4 	addi	r6,r6,-1
 1009d28:	d9800d15 	stw	r6,52(sp)
 1009d2c:	003cdd06 	br	10090a4 <_dtoa_r+0x230>
 1009d30:	d9000717 	ldw	r4,28(sp)
 1009d34:	900b883a 	mov	r5,r18
 1009d38:	100bacc0 	call	100bacc <__mcmp>
 1009d3c:	103e8d0e 	bge	r2,zero,1009774 <_dtoa_r+0x900>
 1009d40:	d9400717 	ldw	r5,28(sp)
 1009d44:	d9001617 	ldw	r4,88(sp)
 1009d48:	01800284 	movi	r6,10
 1009d4c:	000f883a 	mov	r7,zero
 1009d50:	100c6900 	call	100c690 <__multadd>
 1009d54:	d9800d17 	ldw	r6,52(sp)
 1009d58:	d8800715 	stw	r2,28(sp)
 1009d5c:	31bfffc4 	addi	r6,r6,-1
 1009d60:	d9800d15 	stw	r6,52(sp)
 1009d64:	b001a71e 	bne	r22,zero,100a404 <_dtoa_r+0x1590>
 1009d68:	d8800e17 	ldw	r2,56(sp)
 1009d6c:	d8800f15 	stw	r2,60(sp)
 1009d70:	003e8006 	br	1009774 <_dtoa_r+0x900>
 1009d74:	90800417 	ldw	r2,16(r18)
 1009d78:	1085883a 	add	r2,r2,r2
 1009d7c:	1085883a 	add	r2,r2,r2
 1009d80:	1485883a 	add	r2,r2,r18
 1009d84:	11000417 	ldw	r4,16(r2)
 1009d88:	100b9980 	call	100b998 <__hi0bits>
 1009d8c:	00c00804 	movi	r3,32
 1009d90:	1887c83a 	sub	r3,r3,r2
 1009d94:	003e5a06 	br	1009700 <_dtoa_r+0x88c>
 1009d98:	d9400717 	ldw	r5,28(sp)
 1009d9c:	d9801017 	ldw	r6,64(sp)
 1009da0:	d9001617 	ldw	r4,88(sp)
 1009da4:	100c7bc0 	call	100c7bc <__pow5mult>
 1009da8:	d8800715 	stw	r2,28(sp)
 1009dac:	003e4306 	br	10096bc <_dtoa_r+0x848>
 1009db0:	d9800f17 	ldw	r6,60(sp)
 1009db4:	d8800d17 	ldw	r2,52(sp)
 1009db8:	d9800315 	stw	r6,12(sp)
 1009dbc:	d8800415 	stw	r2,16(sp)
 1009dc0:	d8c00b17 	ldw	r3,44(sp)
 1009dc4:	1805003a 	cmpeq	r2,r3,zero
 1009dc8:	1000e21e 	bne	r2,zero,100a154 <_dtoa_r+0x12e0>
 1009dcc:	d9000317 	ldw	r4,12(sp)
 1009dd0:	0005883a 	mov	r2,zero
 1009dd4:	00cff834 	movhi	r3,16352
 1009dd8:	200c90fa 	slli	r6,r4,3
 1009ddc:	01004134 	movhi	r4,260
 1009de0:	211a3504 	addi	r4,r4,26836
 1009de4:	180b883a 	mov	r5,r3
 1009de8:	310d883a 	add	r6,r6,r4
 1009dec:	327fff17 	ldw	r9,-4(r6)
 1009df0:	323ffe17 	ldw	r8,-8(r6)
 1009df4:	1009883a 	mov	r4,r2
 1009df8:	480f883a 	mov	r7,r9
 1009dfc:	400d883a 	mov	r6,r8
 1009e00:	10052400 	call	1005240 <__divdf3>
 1009e04:	180b883a 	mov	r5,r3
 1009e08:	b00d883a 	mov	r6,r22
 1009e0c:	b80f883a 	mov	r7,r23
 1009e10:	1009883a 	mov	r4,r2
 1009e14:	1004d880 	call	1004d88 <__subdf3>
 1009e18:	a80b883a 	mov	r5,r21
 1009e1c:	a009883a 	mov	r4,r20
 1009e20:	d8c01915 	stw	r3,100(sp)
 1009e24:	d8801815 	stw	r2,96(sp)
 1009e28:	10058380 	call	1005838 <__fixdfsi>
 1009e2c:	1009883a 	mov	r4,r2
 1009e30:	1027883a 	mov	r19,r2
 1009e34:	10057400 	call	1005740 <__floatsidf>
 1009e38:	a80b883a 	mov	r5,r21
 1009e3c:	a009883a 	mov	r4,r20
 1009e40:	180f883a 	mov	r7,r3
 1009e44:	100d883a 	mov	r6,r2
 1009e48:	1004d880 	call	1004d88 <__subdf3>
 1009e4c:	d9801817 	ldw	r6,96(sp)
 1009e50:	1823883a 	mov	r17,r3
 1009e54:	d8801415 	stw	r2,80(sp)
 1009e58:	302d883a 	mov	r22,r6
 1009e5c:	d9800517 	ldw	r6,20(sp)
 1009e60:	9cc00c04 	addi	r19,r19,48
 1009e64:	dc401515 	stw	r17,84(sp)
 1009e68:	d8c01917 	ldw	r3,100(sp)
 1009e6c:	34c00005 	stb	r19,0(r6)
 1009e70:	d8800517 	ldw	r2,20(sp)
 1009e74:	d9401917 	ldw	r5,100(sp)
 1009e78:	d9801417 	ldw	r6,80(sp)
 1009e7c:	b009883a 	mov	r4,r22
 1009e80:	880f883a 	mov	r7,r17
 1009e84:	182f883a 	mov	r23,r3
 1009e88:	17000044 	addi	fp,r2,1
 1009e8c:	10055200 	call	1005520 <__gtdf2>
 1009e90:	00804e16 	blt	zero,r2,1009fcc <_dtoa_r+0x1158>
 1009e94:	d9801417 	ldw	r6,80(sp)
 1009e98:	0005883a 	mov	r2,zero
 1009e9c:	00cffc34 	movhi	r3,16368
 1009ea0:	180b883a 	mov	r5,r3
 1009ea4:	880f883a 	mov	r7,r17
 1009ea8:	1009883a 	mov	r4,r2
 1009eac:	1004d880 	call	1004d88 <__subdf3>
 1009eb0:	d9401917 	ldw	r5,100(sp)
 1009eb4:	180f883a 	mov	r7,r3
 1009eb8:	b009883a 	mov	r4,r22
 1009ebc:	100d883a 	mov	r6,r2
 1009ec0:	10055200 	call	1005520 <__gtdf2>
 1009ec4:	00bda216 	blt	zero,r2,1009550 <_dtoa_r+0x6dc>
 1009ec8:	d8c00317 	ldw	r3,12(sp)
 1009ecc:	00800044 	movi	r2,1
 1009ed0:	10c01216 	blt	r2,r3,1009f1c <_dtoa_r+0x10a8>
 1009ed4:	003d4506 	br	10093ec <_dtoa_r+0x578>
 1009ed8:	d9801417 	ldw	r6,80(sp)
 1009edc:	0005883a 	mov	r2,zero
 1009ee0:	00cffc34 	movhi	r3,16368
 1009ee4:	180b883a 	mov	r5,r3
 1009ee8:	880f883a 	mov	r7,r17
 1009eec:	1009883a 	mov	r4,r2
 1009ef0:	1004d880 	call	1004d88 <__subdf3>
 1009ef4:	d9c01b17 	ldw	r7,108(sp)
 1009ef8:	180b883a 	mov	r5,r3
 1009efc:	1009883a 	mov	r4,r2
 1009f00:	b00d883a 	mov	r6,r22
 1009f04:	10056300 	call	1005630 <__ltdf2>
 1009f08:	103d9116 	blt	r2,zero,1009550 <_dtoa_r+0x6dc>
 1009f0c:	d9800517 	ldw	r6,20(sp)
 1009f10:	d9000317 	ldw	r4,12(sp)
 1009f14:	3105883a 	add	r2,r6,r4
 1009f18:	e0bd3426 	beq	fp,r2,10093ec <_dtoa_r+0x578>
 1009f1c:	04500934 	movhi	r17,16420
 1009f20:	0021883a 	mov	r16,zero
 1009f24:	b80b883a 	mov	r5,r23
 1009f28:	b009883a 	mov	r4,r22
 1009f2c:	800d883a 	mov	r6,r16
 1009f30:	880f883a 	mov	r7,r17
 1009f34:	1004e7c0 	call	1004e7c <__muldf3>
 1009f38:	d9401517 	ldw	r5,84(sp)
 1009f3c:	d9001417 	ldw	r4,80(sp)
 1009f40:	880f883a 	mov	r7,r17
 1009f44:	000d883a 	mov	r6,zero
 1009f48:	d8801a15 	stw	r2,104(sp)
 1009f4c:	d8c01b15 	stw	r3,108(sp)
 1009f50:	1004e7c0 	call	1004e7c <__muldf3>
 1009f54:	180b883a 	mov	r5,r3
 1009f58:	1009883a 	mov	r4,r2
 1009f5c:	1823883a 	mov	r17,r3
 1009f60:	1021883a 	mov	r16,r2
 1009f64:	10058380 	call	1005838 <__fixdfsi>
 1009f68:	1009883a 	mov	r4,r2
 1009f6c:	102b883a 	mov	r21,r2
 1009f70:	10057400 	call	1005740 <__floatsidf>
 1009f74:	880b883a 	mov	r5,r17
 1009f78:	8009883a 	mov	r4,r16
 1009f7c:	180f883a 	mov	r7,r3
 1009f80:	100d883a 	mov	r6,r2
 1009f84:	1004d880 	call	1004d88 <__subdf3>
 1009f88:	1021883a 	mov	r16,r2
 1009f8c:	d9001b17 	ldw	r4,108(sp)
 1009f90:	1823883a 	mov	r17,r3
 1009f94:	dc001415 	stw	r16,80(sp)
 1009f98:	ad400c04 	addi	r21,r21,48
 1009f9c:	dc401515 	stw	r17,84(sp)
 1009fa0:	d8801a17 	ldw	r2,104(sp)
 1009fa4:	e5400005 	stb	r21,0(fp)
 1009fa8:	202f883a 	mov	r23,r4
 1009fac:	d9c01b17 	ldw	r7,108(sp)
 1009fb0:	d9001417 	ldw	r4,80(sp)
 1009fb4:	880b883a 	mov	r5,r17
 1009fb8:	100d883a 	mov	r6,r2
 1009fbc:	102d883a 	mov	r22,r2
 1009fc0:	e7000044 	addi	fp,fp,1
 1009fc4:	10056300 	call	1005630 <__ltdf2>
 1009fc8:	103fc30e 	bge	r2,zero,1009ed8 <_dtoa_r+0x1064>
 1009fcc:	d9000417 	ldw	r4,16(sp)
 1009fd0:	d9000d15 	stw	r4,52(sp)
 1009fd4:	003d7106 	br	100959c <_dtoa_r+0x728>
 1009fd8:	d9801717 	ldw	r6,92(sp)
 1009fdc:	00800084 	movi	r2,2
 1009fe0:	11bde60e 	bge	r2,r6,100977c <_dtoa_r+0x908>
 1009fe4:	203cfb1e 	bne	r4,zero,10093d4 <_dtoa_r+0x560>
 1009fe8:	d9001617 	ldw	r4,88(sp)
 1009fec:	900b883a 	mov	r5,r18
 1009ff0:	01800144 	movi	r6,5
 1009ff4:	000f883a 	mov	r7,zero
 1009ff8:	100c6900 	call	100c690 <__multadd>
 1009ffc:	d9000717 	ldw	r4,28(sp)
 100a000:	100b883a 	mov	r5,r2
 100a004:	1025883a 	mov	r18,r2
 100a008:	100bacc0 	call	100bacc <__mcmp>
 100a00c:	00bcf10e 	bge	zero,r2,10093d4 <_dtoa_r+0x560>
 100a010:	d8c00d17 	ldw	r3,52(sp)
 100a014:	d9000517 	ldw	r4,20(sp)
 100a018:	d8000615 	stw	zero,24(sp)
 100a01c:	18c00044 	addi	r3,r3,1
 100a020:	d8c00d15 	stw	r3,52(sp)
 100a024:	00800c44 	movi	r2,49
 100a028:	27000044 	addi	fp,r4,1
 100a02c:	20800005 	stb	r2,0(r4)
 100a030:	003e8906 	br	1009a58 <_dtoa_r+0xbe4>
 100a034:	d8c00517 	ldw	r3,20(sp)
 100a038:	003bc206 	br	1008f44 <_dtoa_r+0xd0>
 100a03c:	01804134 	movhi	r6,260
 100a040:	319a6704 	addi	r6,r6,27036
 100a044:	30c00917 	ldw	r3,36(r6)
 100a048:	30800817 	ldw	r2,32(r6)
 100a04c:	d9001217 	ldw	r4,72(sp)
 100a050:	d9401317 	ldw	r5,76(sp)
 100a054:	180f883a 	mov	r7,r3
 100a058:	100d883a 	mov	r6,r2
 100a05c:	10052400 	call	1005240 <__divdf3>
 100a060:	948003cc 	andi	r18,r18,15
 100a064:	058000c4 	movi	r22,3
 100a068:	1029883a 	mov	r20,r2
 100a06c:	182b883a 	mov	r21,r3
 100a070:	003c8906 	br	1009298 <_dtoa_r+0x424>
 100a074:	d9001017 	ldw	r4,64(sp)
 100a078:	d9800917 	ldw	r6,36(sp)
 100a07c:	0025883a 	mov	r18,zero
 100a080:	1105c83a 	sub	r2,r2,r4
 100a084:	2089883a 	add	r4,r4,r2
 100a088:	308d883a 	add	r6,r6,r2
 100a08c:	d9001015 	stw	r4,64(sp)
 100a090:	d9800915 	stw	r6,36(sp)
 100a094:	003e3206 	br	1009960 <_dtoa_r+0xaec>
 100a098:	28800044 	addi	r2,r5,1
 100a09c:	27000044 	addi	fp,r4,1
 100a0a0:	20800005 	stb	r2,0(r4)
 100a0a4:	003e6c06 	br	1009a58 <_dtoa_r+0xbe4>
 100a0a8:	d8800f17 	ldw	r2,60(sp)
 100a0ac:	00bce016 	blt	zero,r2,1009430 <_dtoa_r+0x5bc>
 100a0b0:	d9800f17 	ldw	r6,60(sp)
 100a0b4:	303cc51e 	bne	r6,zero,10093cc <_dtoa_r+0x558>
 100a0b8:	0005883a 	mov	r2,zero
 100a0bc:	00d00534 	movhi	r3,16404
 100a0c0:	980b883a 	mov	r5,r19
 100a0c4:	180f883a 	mov	r7,r3
 100a0c8:	9009883a 	mov	r4,r18
 100a0cc:	100d883a 	mov	r6,r2
 100a0d0:	1004e7c0 	call	1004e7c <__muldf3>
 100a0d4:	180b883a 	mov	r5,r3
 100a0d8:	a80f883a 	mov	r7,r21
 100a0dc:	1009883a 	mov	r4,r2
 100a0e0:	a00d883a 	mov	r6,r20
 100a0e4:	10055a80 	call	10055a8 <__gedf2>
 100a0e8:	103cb80e 	bge	r2,zero,10093cc <_dtoa_r+0x558>
 100a0ec:	0027883a 	mov	r19,zero
 100a0f0:	0025883a 	mov	r18,zero
 100a0f4:	003fc606 	br	100a010 <_dtoa_r+0x119c>
 100a0f8:	99400117 	ldw	r5,4(r19)
 100a0fc:	d9001617 	ldw	r4,88(sp)
 100a100:	100bef00 	call	100bef0 <_Balloc>
 100a104:	99800417 	ldw	r6,16(r19)
 100a108:	11000304 	addi	r4,r2,12
 100a10c:	99400304 	addi	r5,r19,12
 100a110:	318d883a 	add	r6,r6,r6
 100a114:	318d883a 	add	r6,r6,r6
 100a118:	31800204 	addi	r6,r6,8
 100a11c:	1023883a 	mov	r17,r2
 100a120:	100b7580 	call	100b758 <memcpy>
 100a124:	d9001617 	ldw	r4,88(sp)
 100a128:	880b883a 	mov	r5,r17
 100a12c:	01800044 	movi	r6,1
 100a130:	100c2b40 	call	100c2b4 <__lshift>
 100a134:	100b883a 	mov	r5,r2
 100a138:	003d9c06 	br	10097ac <_dtoa_r+0x938>
 100a13c:	00800e44 	movi	r2,57
 100a140:	b8807026 	beq	r23,r2,100a304 <_dtoa_r+0x1490>
 100a144:	b8800044 	addi	r2,r23,1
 100a148:	b7000044 	addi	fp,r22,1
 100a14c:	b0800005 	stb	r2,0(r22)
 100a150:	003e4106 	br	1009a58 <_dtoa_r+0xbe4>
 100a154:	d8800317 	ldw	r2,12(sp)
 100a158:	01804134 	movhi	r6,260
 100a15c:	319a3504 	addi	r6,r6,26836
 100a160:	b009883a 	mov	r4,r22
 100a164:	100e90fa 	slli	r7,r2,3
 100a168:	b80b883a 	mov	r5,r23
 100a16c:	398f883a 	add	r7,r7,r6
 100a170:	38bffe17 	ldw	r2,-8(r7)
 100a174:	d9800517 	ldw	r6,20(sp)
 100a178:	38ffff17 	ldw	r3,-4(r7)
 100a17c:	37000044 	addi	fp,r6,1
 100a180:	180f883a 	mov	r7,r3
 100a184:	100d883a 	mov	r6,r2
 100a188:	1004e7c0 	call	1004e7c <__muldf3>
 100a18c:	a80b883a 	mov	r5,r21
 100a190:	a009883a 	mov	r4,r20
 100a194:	182f883a 	mov	r23,r3
 100a198:	102d883a 	mov	r22,r2
 100a19c:	10058380 	call	1005838 <__fixdfsi>
 100a1a0:	1009883a 	mov	r4,r2
 100a1a4:	1027883a 	mov	r19,r2
 100a1a8:	10057400 	call	1005740 <__floatsidf>
 100a1ac:	a80b883a 	mov	r5,r21
 100a1b0:	a009883a 	mov	r4,r20
 100a1b4:	180f883a 	mov	r7,r3
 100a1b8:	100d883a 	mov	r6,r2
 100a1bc:	1004d880 	call	1004d88 <__subdf3>
 100a1c0:	180b883a 	mov	r5,r3
 100a1c4:	d8c00517 	ldw	r3,20(sp)
 100a1c8:	9cc00c04 	addi	r19,r19,48
 100a1cc:	1009883a 	mov	r4,r2
 100a1d0:	1cc00005 	stb	r19,0(r3)
 100a1d4:	2021883a 	mov	r16,r4
 100a1d8:	d9000317 	ldw	r4,12(sp)
 100a1dc:	00800044 	movi	r2,1
 100a1e0:	2823883a 	mov	r17,r5
 100a1e4:	20802226 	beq	r4,r2,100a270 <_dtoa_r+0x13fc>
 100a1e8:	1029883a 	mov	r20,r2
 100a1ec:	0005883a 	mov	r2,zero
 100a1f0:	00d00934 	movhi	r3,16420
 100a1f4:	180f883a 	mov	r7,r3
 100a1f8:	100d883a 	mov	r6,r2
 100a1fc:	880b883a 	mov	r5,r17
 100a200:	8009883a 	mov	r4,r16
 100a204:	1004e7c0 	call	1004e7c <__muldf3>
 100a208:	180b883a 	mov	r5,r3
 100a20c:	1009883a 	mov	r4,r2
 100a210:	1823883a 	mov	r17,r3
 100a214:	1021883a 	mov	r16,r2
 100a218:	10058380 	call	1005838 <__fixdfsi>
 100a21c:	1009883a 	mov	r4,r2
 100a220:	102b883a 	mov	r21,r2
 100a224:	10057400 	call	1005740 <__floatsidf>
 100a228:	880b883a 	mov	r5,r17
 100a22c:	8009883a 	mov	r4,r16
 100a230:	180f883a 	mov	r7,r3
 100a234:	100d883a 	mov	r6,r2
 100a238:	1004d880 	call	1004d88 <__subdf3>
 100a23c:	180b883a 	mov	r5,r3
 100a240:	d8c00517 	ldw	r3,20(sp)
 100a244:	1009883a 	mov	r4,r2
 100a248:	ad400c04 	addi	r21,r21,48
 100a24c:	1d05883a 	add	r2,r3,r20
 100a250:	15400005 	stb	r21,0(r2)
 100a254:	2021883a 	mov	r16,r4
 100a258:	d9000317 	ldw	r4,12(sp)
 100a25c:	a5000044 	addi	r20,r20,1
 100a260:	2823883a 	mov	r17,r5
 100a264:	a13fe11e 	bne	r20,r4,100a1ec <_dtoa_r+0x1378>
 100a268:	e505883a 	add	r2,fp,r20
 100a26c:	173fffc4 	addi	fp,r2,-1
 100a270:	0025883a 	mov	r18,zero
 100a274:	04cff834 	movhi	r19,16352
 100a278:	b009883a 	mov	r4,r22
 100a27c:	b80b883a 	mov	r5,r23
 100a280:	900d883a 	mov	r6,r18
 100a284:	980f883a 	mov	r7,r19
 100a288:	1004e080 	call	1004e08 <__adddf3>
 100a28c:	180b883a 	mov	r5,r3
 100a290:	1009883a 	mov	r4,r2
 100a294:	800d883a 	mov	r6,r16
 100a298:	880f883a 	mov	r7,r17
 100a29c:	10056300 	call	1005630 <__ltdf2>
 100a2a0:	103cab16 	blt	r2,zero,1009550 <_dtoa_r+0x6dc>
 100a2a4:	0009883a 	mov	r4,zero
 100a2a8:	980b883a 	mov	r5,r19
 100a2ac:	b80f883a 	mov	r7,r23
 100a2b0:	b00d883a 	mov	r6,r22
 100a2b4:	1004d880 	call	1004d88 <__subdf3>
 100a2b8:	180b883a 	mov	r5,r3
 100a2bc:	880f883a 	mov	r7,r17
 100a2c0:	1009883a 	mov	r4,r2
 100a2c4:	800d883a 	mov	r6,r16
 100a2c8:	10055200 	call	1005520 <__gtdf2>
 100a2cc:	00bc470e 	bge	zero,r2,10093ec <_dtoa_r+0x578>
 100a2d0:	00c00c04 	movi	r3,48
 100a2d4:	e73fffc4 	addi	fp,fp,-1
 100a2d8:	e0800007 	ldb	r2,0(fp)
 100a2dc:	10fffd26 	beq	r2,r3,100a2d4 <_dtoa_r+0x1460>
 100a2e0:	d9800417 	ldw	r6,16(sp)
 100a2e4:	e7000044 	addi	fp,fp,1
 100a2e8:	d9800d15 	stw	r6,52(sp)
 100a2ec:	003cab06 	br	100959c <_dtoa_r+0x728>
 100a2f0:	d8c00f17 	ldw	r3,60(sp)
 100a2f4:	d9001117 	ldw	r4,68(sp)
 100a2f8:	20e1c83a 	sub	r16,r4,r3
 100a2fc:	0007883a 	mov	r3,zero
 100a300:	003d9b06 	br	1009970 <_dtoa_r+0xafc>
 100a304:	00800e44 	movi	r2,57
 100a308:	b0800005 	stb	r2,0(r22)
 100a30c:	b5800044 	addi	r22,r22,1
 100a310:	003dc106 	br	1009a18 <_dtoa_r+0xba4>
 100a314:	05800084 	movi	r22,2
 100a318:	003bf706 	br	10092f8 <_dtoa_r+0x484>
 100a31c:	d9000f17 	ldw	r4,60(sp)
 100a320:	013c000e 	bge	zero,r4,1009324 <_dtoa_r+0x4b0>
 100a324:	d9800e17 	ldw	r6,56(sp)
 100a328:	01bc300e 	bge	zero,r6,10093ec <_dtoa_r+0x578>
 100a32c:	0005883a 	mov	r2,zero
 100a330:	00d00934 	movhi	r3,16420
 100a334:	a80b883a 	mov	r5,r21
 100a338:	180f883a 	mov	r7,r3
 100a33c:	a009883a 	mov	r4,r20
 100a340:	100d883a 	mov	r6,r2
 100a344:	1004e7c0 	call	1004e7c <__muldf3>
 100a348:	b1000044 	addi	r4,r22,1
 100a34c:	1021883a 	mov	r16,r2
 100a350:	1823883a 	mov	r17,r3
 100a354:	10057400 	call	1005740 <__floatsidf>
 100a358:	880b883a 	mov	r5,r17
 100a35c:	8009883a 	mov	r4,r16
 100a360:	180f883a 	mov	r7,r3
 100a364:	100d883a 	mov	r6,r2
 100a368:	1004e7c0 	call	1004e7c <__muldf3>
 100a36c:	0011883a 	mov	r8,zero
 100a370:	02500734 	movhi	r9,16412
 100a374:	180b883a 	mov	r5,r3
 100a378:	480f883a 	mov	r7,r9
 100a37c:	1009883a 	mov	r4,r2
 100a380:	400d883a 	mov	r6,r8
 100a384:	1004e080 	call	1004e08 <__adddf3>
 100a388:	102d883a 	mov	r22,r2
 100a38c:	00bf3034 	movhi	r2,64704
 100a390:	10ef883a 	add	r23,r2,r3
 100a394:	d8800d17 	ldw	r2,52(sp)
 100a398:	d8c00e17 	ldw	r3,56(sp)
 100a39c:	8029883a 	mov	r20,r16
 100a3a0:	10bfffc4 	addi	r2,r2,-1
 100a3a4:	882b883a 	mov	r21,r17
 100a3a8:	d8800415 	stw	r2,16(sp)
 100a3ac:	d8c00315 	stw	r3,12(sp)
 100a3b0:	003e8306 	br	1009dc0 <_dtoa_r+0xf4c>
 100a3b4:	d8800117 	ldw	r2,4(sp)
 100a3b8:	dc001117 	ldw	r16,68(sp)
 100a3bc:	dc801017 	ldw	r18,64(sp)
 100a3c0:	00c00d84 	movi	r3,54
 100a3c4:	1887c83a 	sub	r3,r3,r2
 100a3c8:	003d6906 	br	1009970 <_dtoa_r+0xafc>
 100a3cc:	01800044 	movi	r6,1
 100a3d0:	3021883a 	mov	r16,r6
 100a3d4:	d9800f15 	stw	r6,60(sp)
 100a3d8:	d9802615 	stw	r6,152(sp)
 100a3dc:	d9800e15 	stw	r6,56(sp)
 100a3e0:	003b9306 	br	1009230 <_dtoa_r+0x3bc>
 100a3e4:	b021883a 	mov	r16,r22
 100a3e8:	dd800f15 	stw	r22,60(sp)
 100a3ec:	003b9006 	br	1009230 <_dtoa_r+0x3bc>
 100a3f0:	103e221e 	bne	r2,zero,1009c7c <_dtoa_r+0xe08>
 100a3f4:	b880004c 	andi	r2,r23,1
 100a3f8:	1005003a 	cmpeq	r2,r2,zero
 100a3fc:	103e1f1e 	bne	r2,zero,1009c7c <_dtoa_r+0xe08>
 100a400:	003e1b06 	br	1009c70 <_dtoa_r+0xdfc>
 100a404:	d9001617 	ldw	r4,88(sp)
 100a408:	980b883a 	mov	r5,r19
 100a40c:	01800284 	movi	r6,10
 100a410:	000f883a 	mov	r7,zero
 100a414:	100c6900 	call	100c690 <__multadd>
 100a418:	d8c00e17 	ldw	r3,56(sp)
 100a41c:	1027883a 	mov	r19,r2
 100a420:	d8c00f15 	stw	r3,60(sp)
 100a424:	003cd306 	br	1009774 <_dtoa_r+0x900>

0100a428 <_fflush_r>:
 100a428:	defffb04 	addi	sp,sp,-20
 100a42c:	dcc00315 	stw	r19,12(sp)
 100a430:	dc800215 	stw	r18,8(sp)
 100a434:	dfc00415 	stw	ra,16(sp)
 100a438:	dc400115 	stw	r17,4(sp)
 100a43c:	dc000015 	stw	r16,0(sp)
 100a440:	2027883a 	mov	r19,r4
 100a444:	2825883a 	mov	r18,r5
 100a448:	20000226 	beq	r4,zero,100a454 <_fflush_r+0x2c>
 100a44c:	20800e17 	ldw	r2,56(r4)
 100a450:	10005626 	beq	r2,zero,100a5ac <_fflush_r+0x184>
 100a454:	9100030b 	ldhu	r4,12(r18)
 100a458:	20ffffcc 	andi	r3,r4,65535
 100a45c:	18e0001c 	xori	r3,r3,32768
 100a460:	18e00004 	addi	r3,r3,-32768
 100a464:	1880020c 	andi	r2,r3,8
 100a468:	1000261e 	bne	r2,zero,100a504 <_fflush_r+0xdc>
 100a46c:	90c00117 	ldw	r3,4(r18)
 100a470:	20820014 	ori	r2,r4,2048
 100a474:	9080030d 	sth	r2,12(r18)
 100a478:	1009883a 	mov	r4,r2
 100a47c:	00c0400e 	bge	zero,r3,100a580 <_fflush_r+0x158>
 100a480:	92000a17 	ldw	r8,40(r18)
 100a484:	40004026 	beq	r8,zero,100a588 <_fflush_r+0x160>
 100a488:	2084000c 	andi	r2,r4,4096
 100a48c:	10005326 	beq	r2,zero,100a5dc <_fflush_r+0x1b4>
 100a490:	94001417 	ldw	r16,80(r18)
 100a494:	9080030b 	ldhu	r2,12(r18)
 100a498:	1080010c 	andi	r2,r2,4
 100a49c:	1000481e 	bne	r2,zero,100a5c0 <_fflush_r+0x198>
 100a4a0:	91400717 	ldw	r5,28(r18)
 100a4a4:	9809883a 	mov	r4,r19
 100a4a8:	800d883a 	mov	r6,r16
 100a4ac:	000f883a 	mov	r7,zero
 100a4b0:	403ee83a 	callr	r8
 100a4b4:	8080261e 	bne	r16,r2,100a550 <_fflush_r+0x128>
 100a4b8:	9080030b 	ldhu	r2,12(r18)
 100a4bc:	91000417 	ldw	r4,16(r18)
 100a4c0:	90000115 	stw	zero,4(r18)
 100a4c4:	10bdffcc 	andi	r2,r2,63487
 100a4c8:	10ffffcc 	andi	r3,r2,65535
 100a4cc:	18c4000c 	andi	r3,r3,4096
 100a4d0:	9080030d 	sth	r2,12(r18)
 100a4d4:	91000015 	stw	r4,0(r18)
 100a4d8:	18002b26 	beq	r3,zero,100a588 <_fflush_r+0x160>
 100a4dc:	0007883a 	mov	r3,zero
 100a4e0:	1805883a 	mov	r2,r3
 100a4e4:	94001415 	stw	r16,80(r18)
 100a4e8:	dfc00417 	ldw	ra,16(sp)
 100a4ec:	dcc00317 	ldw	r19,12(sp)
 100a4f0:	dc800217 	ldw	r18,8(sp)
 100a4f4:	dc400117 	ldw	r17,4(sp)
 100a4f8:	dc000017 	ldw	r16,0(sp)
 100a4fc:	dec00504 	addi	sp,sp,20
 100a500:	f800283a 	ret
 100a504:	94400417 	ldw	r17,16(r18)
 100a508:	88001f26 	beq	r17,zero,100a588 <_fflush_r+0x160>
 100a50c:	90800017 	ldw	r2,0(r18)
 100a510:	18c000cc 	andi	r3,r3,3
 100a514:	94400015 	stw	r17,0(r18)
 100a518:	1461c83a 	sub	r16,r2,r17
 100a51c:	18002526 	beq	r3,zero,100a5b4 <_fflush_r+0x18c>
 100a520:	0005883a 	mov	r2,zero
 100a524:	90800215 	stw	r2,8(r18)
 100a528:	0400170e 	bge	zero,r16,100a588 <_fflush_r+0x160>
 100a52c:	90c00917 	ldw	r3,36(r18)
 100a530:	91400717 	ldw	r5,28(r18)
 100a534:	880d883a 	mov	r6,r17
 100a538:	800f883a 	mov	r7,r16
 100a53c:	9809883a 	mov	r4,r19
 100a540:	183ee83a 	callr	r3
 100a544:	88a3883a 	add	r17,r17,r2
 100a548:	80a1c83a 	sub	r16,r16,r2
 100a54c:	00bff616 	blt	zero,r2,100a528 <_fflush_r+0x100>
 100a550:	9080030b 	ldhu	r2,12(r18)
 100a554:	00ffffc4 	movi	r3,-1
 100a558:	10801014 	ori	r2,r2,64
 100a55c:	9080030d 	sth	r2,12(r18)
 100a560:	1805883a 	mov	r2,r3
 100a564:	dfc00417 	ldw	ra,16(sp)
 100a568:	dcc00317 	ldw	r19,12(sp)
 100a56c:	dc800217 	ldw	r18,8(sp)
 100a570:	dc400117 	ldw	r17,4(sp)
 100a574:	dc000017 	ldw	r16,0(sp)
 100a578:	dec00504 	addi	sp,sp,20
 100a57c:	f800283a 	ret
 100a580:	90800f17 	ldw	r2,60(r18)
 100a584:	00bfbe16 	blt	zero,r2,100a480 <_fflush_r+0x58>
 100a588:	0007883a 	mov	r3,zero
 100a58c:	1805883a 	mov	r2,r3
 100a590:	dfc00417 	ldw	ra,16(sp)
 100a594:	dcc00317 	ldw	r19,12(sp)
 100a598:	dc800217 	ldw	r18,8(sp)
 100a59c:	dc400117 	ldw	r17,4(sp)
 100a5a0:	dc000017 	ldw	r16,0(sp)
 100a5a4:	dec00504 	addi	sp,sp,20
 100a5a8:	f800283a 	ret
 100a5ac:	100a6c00 	call	100a6c0 <__sinit>
 100a5b0:	003fa806 	br	100a454 <_fflush_r+0x2c>
 100a5b4:	90800517 	ldw	r2,20(r18)
 100a5b8:	90800215 	stw	r2,8(r18)
 100a5bc:	003fda06 	br	100a528 <_fflush_r+0x100>
 100a5c0:	90800117 	ldw	r2,4(r18)
 100a5c4:	90c00c17 	ldw	r3,48(r18)
 100a5c8:	80a1c83a 	sub	r16,r16,r2
 100a5cc:	183fb426 	beq	r3,zero,100a4a0 <_fflush_r+0x78>
 100a5d0:	90800f17 	ldw	r2,60(r18)
 100a5d4:	80a1c83a 	sub	r16,r16,r2
 100a5d8:	003fb106 	br	100a4a0 <_fflush_r+0x78>
 100a5dc:	91400717 	ldw	r5,28(r18)
 100a5e0:	9809883a 	mov	r4,r19
 100a5e4:	000d883a 	mov	r6,zero
 100a5e8:	01c00044 	movi	r7,1
 100a5ec:	403ee83a 	callr	r8
 100a5f0:	1021883a 	mov	r16,r2
 100a5f4:	00bfffc4 	movi	r2,-1
 100a5f8:	80800226 	beq	r16,r2,100a604 <_fflush_r+0x1dc>
 100a5fc:	92000a17 	ldw	r8,40(r18)
 100a600:	003fa406 	br	100a494 <_fflush_r+0x6c>
 100a604:	98c00017 	ldw	r3,0(r19)
 100a608:	00800744 	movi	r2,29
 100a60c:	18bfde26 	beq	r3,r2,100a588 <_fflush_r+0x160>
 100a610:	9080030b 	ldhu	r2,12(r18)
 100a614:	8007883a 	mov	r3,r16
 100a618:	10801014 	ori	r2,r2,64
 100a61c:	9080030d 	sth	r2,12(r18)
 100a620:	003fcf06 	br	100a560 <_fflush_r+0x138>

0100a624 <fflush>:
 100a624:	01404074 	movhi	r5,257
 100a628:	29690a04 	addi	r5,r5,-23512
 100a62c:	2007883a 	mov	r3,r4
 100a630:	20000526 	beq	r4,zero,100a648 <fflush+0x24>
 100a634:	00804174 	movhi	r2,261
 100a638:	10a15a04 	addi	r2,r2,-31384
 100a63c:	11000017 	ldw	r4,0(r2)
 100a640:	180b883a 	mov	r5,r3
 100a644:	100a4281 	jmpi	100a428 <_fflush_r>
 100a648:	00804174 	movhi	r2,261
 100a64c:	10a15b04 	addi	r2,r2,-31380
 100a650:	11000017 	ldw	r4,0(r2)
 100a654:	100b2281 	jmpi	100b228 <_fwalk_reent>

0100a658 <std>:
 100a658:	00804074 	movhi	r2,257
 100a65c:	10b41804 	addi	r2,r2,-12192
 100a660:	20800b15 	stw	r2,44(r4)
 100a664:	00804074 	movhi	r2,257
 100a668:	10b45304 	addi	r2,r2,-11956
 100a66c:	20800815 	stw	r2,32(r4)
 100a670:	00c04074 	movhi	r3,257
 100a674:	18f43404 	addi	r3,r3,-12080
 100a678:	00804074 	movhi	r2,257
 100a67c:	10b41a04 	addi	r2,r2,-12184
 100a680:	2140030d 	sth	r5,12(r4)
 100a684:	2180038d 	sth	r6,14(r4)
 100a688:	20c00915 	stw	r3,36(r4)
 100a68c:	20800a15 	stw	r2,40(r4)
 100a690:	20000015 	stw	zero,0(r4)
 100a694:	20000115 	stw	zero,4(r4)
 100a698:	20000215 	stw	zero,8(r4)
 100a69c:	20000415 	stw	zero,16(r4)
 100a6a0:	20000515 	stw	zero,20(r4)
 100a6a4:	20000615 	stw	zero,24(r4)
 100a6a8:	21000715 	stw	r4,28(r4)
 100a6ac:	f800283a 	ret

0100a6b0 <__sfp_lock_acquire>:
 100a6b0:	f800283a 	ret

0100a6b4 <__sfp_lock_release>:
 100a6b4:	f800283a 	ret

0100a6b8 <__sinit_lock_acquire>:
 100a6b8:	f800283a 	ret

0100a6bc <__sinit_lock_release>:
 100a6bc:	f800283a 	ret

0100a6c0 <__sinit>:
 100a6c0:	20800e17 	ldw	r2,56(r4)
 100a6c4:	defffd04 	addi	sp,sp,-12
 100a6c8:	dc400115 	stw	r17,4(sp)
 100a6cc:	dc000015 	stw	r16,0(sp)
 100a6d0:	dfc00215 	stw	ra,8(sp)
 100a6d4:	04400044 	movi	r17,1
 100a6d8:	01400104 	movi	r5,4
 100a6dc:	000d883a 	mov	r6,zero
 100a6e0:	2021883a 	mov	r16,r4
 100a6e4:	2200bb04 	addi	r8,r4,748
 100a6e8:	200f883a 	mov	r7,r4
 100a6ec:	10000526 	beq	r2,zero,100a704 <__sinit+0x44>
 100a6f0:	dfc00217 	ldw	ra,8(sp)
 100a6f4:	dc400117 	ldw	r17,4(sp)
 100a6f8:	dc000017 	ldw	r16,0(sp)
 100a6fc:	dec00304 	addi	sp,sp,12
 100a700:	f800283a 	ret
 100a704:	21000117 	ldw	r4,4(r4)
 100a708:	00804074 	movhi	r2,257
 100a70c:	10a9e904 	addi	r2,r2,-22620
 100a710:	00c000c4 	movi	r3,3
 100a714:	80800f15 	stw	r2,60(r16)
 100a718:	80c0b915 	stw	r3,740(r16)
 100a71c:	8200ba15 	stw	r8,744(r16)
 100a720:	84400e15 	stw	r17,56(r16)
 100a724:	8000b815 	stw	zero,736(r16)
 100a728:	100a6580 	call	100a658 <std>
 100a72c:	81000217 	ldw	r4,8(r16)
 100a730:	880d883a 	mov	r6,r17
 100a734:	800f883a 	mov	r7,r16
 100a738:	01400284 	movi	r5,10
 100a73c:	100a6580 	call	100a658 <std>
 100a740:	81000317 	ldw	r4,12(r16)
 100a744:	800f883a 	mov	r7,r16
 100a748:	01400484 	movi	r5,18
 100a74c:	01800084 	movi	r6,2
 100a750:	dfc00217 	ldw	ra,8(sp)
 100a754:	dc400117 	ldw	r17,4(sp)
 100a758:	dc000017 	ldw	r16,0(sp)
 100a75c:	dec00304 	addi	sp,sp,12
 100a760:	100a6581 	jmpi	100a658 <std>

0100a764 <__fp_lock>:
 100a764:	0005883a 	mov	r2,zero
 100a768:	f800283a 	ret

0100a76c <__fp_unlock>:
 100a76c:	0005883a 	mov	r2,zero
 100a770:	f800283a 	ret

0100a774 <__fp_unlock_all>:
 100a774:	00804174 	movhi	r2,261
 100a778:	10a15a04 	addi	r2,r2,-31384
 100a77c:	11000017 	ldw	r4,0(r2)
 100a780:	01404074 	movhi	r5,257
 100a784:	2969db04 	addi	r5,r5,-22676
 100a788:	100b2f01 	jmpi	100b2f0 <_fwalk>

0100a78c <__fp_lock_all>:
 100a78c:	00804174 	movhi	r2,261
 100a790:	10a15a04 	addi	r2,r2,-31384
 100a794:	11000017 	ldw	r4,0(r2)
 100a798:	01404074 	movhi	r5,257
 100a79c:	2969d904 	addi	r5,r5,-22684
 100a7a0:	100b2f01 	jmpi	100b2f0 <_fwalk>

0100a7a4 <_cleanup_r>:
 100a7a4:	01404074 	movhi	r5,257
 100a7a8:	29754a04 	addi	r5,r5,-10968
 100a7ac:	100b2f01 	jmpi	100b2f0 <_fwalk>

0100a7b0 <_cleanup>:
 100a7b0:	00804174 	movhi	r2,261
 100a7b4:	10a15b04 	addi	r2,r2,-31380
 100a7b8:	11000017 	ldw	r4,0(r2)
 100a7bc:	100a7a41 	jmpi	100a7a4 <_cleanup_r>

0100a7c0 <__sfmoreglue>:
 100a7c0:	defffc04 	addi	sp,sp,-16
 100a7c4:	dc000015 	stw	r16,0(sp)
 100a7c8:	2821883a 	mov	r16,r5
 100a7cc:	dc400115 	stw	r17,4(sp)
 100a7d0:	01401704 	movi	r5,92
 100a7d4:	2023883a 	mov	r17,r4
 100a7d8:	8009883a 	mov	r4,r16
 100a7dc:	dfc00315 	stw	ra,12(sp)
 100a7e0:	dcc00215 	stw	r19,8(sp)
 100a7e4:	1005a5c0 	call	1005a5c <__mulsi3>
 100a7e8:	11400304 	addi	r5,r2,12
 100a7ec:	8809883a 	mov	r4,r17
 100a7f0:	1027883a 	mov	r19,r2
 100a7f4:	10061740 	call	1006174 <_malloc_r>
 100a7f8:	10c00304 	addi	r3,r2,12
 100a7fc:	1023883a 	mov	r17,r2
 100a800:	1809883a 	mov	r4,r3
 100a804:	980d883a 	mov	r6,r19
 100a808:	000b883a 	mov	r5,zero
 100a80c:	10000b26 	beq	r2,zero,100a83c <__sfmoreglue+0x7c>
 100a810:	14000115 	stw	r16,4(r2)
 100a814:	10c00215 	stw	r3,8(r2)
 100a818:	10000015 	stw	zero,0(r2)
 100a81c:	100b8d80 	call	100b8d8 <memset>
 100a820:	8805883a 	mov	r2,r17
 100a824:	dfc00317 	ldw	ra,12(sp)
 100a828:	dcc00217 	ldw	r19,8(sp)
 100a82c:	dc400117 	ldw	r17,4(sp)
 100a830:	dc000017 	ldw	r16,0(sp)
 100a834:	dec00404 	addi	sp,sp,16
 100a838:	f800283a 	ret
 100a83c:	0023883a 	mov	r17,zero
 100a840:	8805883a 	mov	r2,r17
 100a844:	dfc00317 	ldw	ra,12(sp)
 100a848:	dcc00217 	ldw	r19,8(sp)
 100a84c:	dc400117 	ldw	r17,4(sp)
 100a850:	dc000017 	ldw	r16,0(sp)
 100a854:	dec00404 	addi	sp,sp,16
 100a858:	f800283a 	ret

0100a85c <__sfp>:
 100a85c:	defffd04 	addi	sp,sp,-12
 100a860:	00804174 	movhi	r2,261
 100a864:	10a15b04 	addi	r2,r2,-31380
 100a868:	dc000015 	stw	r16,0(sp)
 100a86c:	14000017 	ldw	r16,0(r2)
 100a870:	dc400115 	stw	r17,4(sp)
 100a874:	dfc00215 	stw	ra,8(sp)
 100a878:	80800e17 	ldw	r2,56(r16)
 100a87c:	2023883a 	mov	r17,r4
 100a880:	10002626 	beq	r2,zero,100a91c <__sfp+0xc0>
 100a884:	8400b804 	addi	r16,r16,736
 100a888:	80800117 	ldw	r2,4(r16)
 100a88c:	81000217 	ldw	r4,8(r16)
 100a890:	10ffffc4 	addi	r3,r2,-1
 100a894:	18000916 	blt	r3,zero,100a8bc <__sfp+0x60>
 100a898:	2080030f 	ldh	r2,12(r4)
 100a89c:	10000b26 	beq	r2,zero,100a8cc <__sfp+0x70>
 100a8a0:	017fffc4 	movi	r5,-1
 100a8a4:	00000206 	br	100a8b0 <__sfp+0x54>
 100a8a8:	2080030f 	ldh	r2,12(r4)
 100a8ac:	10000726 	beq	r2,zero,100a8cc <__sfp+0x70>
 100a8b0:	18ffffc4 	addi	r3,r3,-1
 100a8b4:	21001704 	addi	r4,r4,92
 100a8b8:	197ffb1e 	bne	r3,r5,100a8a8 <__sfp+0x4c>
 100a8bc:	80800017 	ldw	r2,0(r16)
 100a8c0:	10001926 	beq	r2,zero,100a928 <__sfp+0xcc>
 100a8c4:	1021883a 	mov	r16,r2
 100a8c8:	003fef06 	br	100a888 <__sfp+0x2c>
 100a8cc:	00bfffc4 	movi	r2,-1
 100a8d0:	00c00044 	movi	r3,1
 100a8d4:	2080038d 	sth	r2,14(r4)
 100a8d8:	20c0030d 	sth	r3,12(r4)
 100a8dc:	20000015 	stw	zero,0(r4)
 100a8e0:	20000215 	stw	zero,8(r4)
 100a8e4:	20000115 	stw	zero,4(r4)
 100a8e8:	20000415 	stw	zero,16(r4)
 100a8ec:	20000515 	stw	zero,20(r4)
 100a8f0:	20000615 	stw	zero,24(r4)
 100a8f4:	20000c15 	stw	zero,48(r4)
 100a8f8:	20000d15 	stw	zero,52(r4)
 100a8fc:	20001115 	stw	zero,68(r4)
 100a900:	20001215 	stw	zero,72(r4)
 100a904:	2005883a 	mov	r2,r4
 100a908:	dfc00217 	ldw	ra,8(sp)
 100a90c:	dc400117 	ldw	r17,4(sp)
 100a910:	dc000017 	ldw	r16,0(sp)
 100a914:	dec00304 	addi	sp,sp,12
 100a918:	f800283a 	ret
 100a91c:	8009883a 	mov	r4,r16
 100a920:	100a6c00 	call	100a6c0 <__sinit>
 100a924:	003fd706 	br	100a884 <__sfp+0x28>
 100a928:	8809883a 	mov	r4,r17
 100a92c:	01400104 	movi	r5,4
 100a930:	100a7c00 	call	100a7c0 <__sfmoreglue>
 100a934:	80800015 	stw	r2,0(r16)
 100a938:	103fe21e 	bne	r2,zero,100a8c4 <__sfp+0x68>
 100a93c:	00800304 	movi	r2,12
 100a940:	0009883a 	mov	r4,zero
 100a944:	88800015 	stw	r2,0(r17)
 100a948:	003fee06 	br	100a904 <__sfp+0xa8>

0100a94c <_malloc_trim_r>:
 100a94c:	defffb04 	addi	sp,sp,-20
 100a950:	dcc00315 	stw	r19,12(sp)
 100a954:	04c04134 	movhi	r19,260
 100a958:	9cdaaa04 	addi	r19,r19,27304
 100a95c:	dc800215 	stw	r18,8(sp)
 100a960:	dc400115 	stw	r17,4(sp)
 100a964:	dc000015 	stw	r16,0(sp)
 100a968:	2823883a 	mov	r17,r5
 100a96c:	2025883a 	mov	r18,r4
 100a970:	dfc00415 	stw	ra,16(sp)
 100a974:	100eea80 	call	100eea8 <__malloc_lock>
 100a978:	98800217 	ldw	r2,8(r19)
 100a97c:	9009883a 	mov	r4,r18
 100a980:	000b883a 	mov	r5,zero
 100a984:	10c00117 	ldw	r3,4(r2)
 100a988:	00bfff04 	movi	r2,-4
 100a98c:	18a0703a 	and	r16,r3,r2
 100a990:	8463c83a 	sub	r17,r16,r17
 100a994:	8c43fbc4 	addi	r17,r17,4079
 100a998:	8822d33a 	srli	r17,r17,12
 100a99c:	0083ffc4 	movi	r2,4095
 100a9a0:	8c7fffc4 	addi	r17,r17,-1
 100a9a4:	8822933a 	slli	r17,r17,12
 100a9a8:	1440060e 	bge	r2,r17,100a9c4 <_malloc_trim_r+0x78>
 100a9ac:	1006a740 	call	1006a74 <_sbrk_r>
 100a9b0:	98c00217 	ldw	r3,8(r19)
 100a9b4:	9009883a 	mov	r4,r18
 100a9b8:	044bc83a 	sub	r5,zero,r17
 100a9bc:	80c7883a 	add	r3,r16,r3
 100a9c0:	10c00926 	beq	r2,r3,100a9e8 <_malloc_trim_r+0x9c>
 100a9c4:	100eec80 	call	100eec8 <__malloc_unlock>
 100a9c8:	0005883a 	mov	r2,zero
 100a9cc:	dfc00417 	ldw	ra,16(sp)
 100a9d0:	dcc00317 	ldw	r19,12(sp)
 100a9d4:	dc800217 	ldw	r18,8(sp)
 100a9d8:	dc400117 	ldw	r17,4(sp)
 100a9dc:	dc000017 	ldw	r16,0(sp)
 100a9e0:	dec00504 	addi	sp,sp,20
 100a9e4:	f800283a 	ret
 100a9e8:	9009883a 	mov	r4,r18
 100a9ec:	1006a740 	call	1006a74 <_sbrk_r>
 100a9f0:	844dc83a 	sub	r6,r16,r17
 100a9f4:	00ffffc4 	movi	r3,-1
 100a9f8:	9009883a 	mov	r4,r18
 100a9fc:	000b883a 	mov	r5,zero
 100aa00:	01c04174 	movhi	r7,261
 100aa04:	39e83804 	addi	r7,r7,-24352
 100aa08:	31800054 	ori	r6,r6,1
 100aa0c:	10c00926 	beq	r2,r3,100aa34 <_malloc_trim_r+0xe8>
 100aa10:	38800017 	ldw	r2,0(r7)
 100aa14:	98c00217 	ldw	r3,8(r19)
 100aa18:	9009883a 	mov	r4,r18
 100aa1c:	1445c83a 	sub	r2,r2,r17
 100aa20:	38800015 	stw	r2,0(r7)
 100aa24:	19800115 	stw	r6,4(r3)
 100aa28:	100eec80 	call	100eec8 <__malloc_unlock>
 100aa2c:	00800044 	movi	r2,1
 100aa30:	003fe606 	br	100a9cc <_malloc_trim_r+0x80>
 100aa34:	1006a740 	call	1006a74 <_sbrk_r>
 100aa38:	99800217 	ldw	r6,8(r19)
 100aa3c:	100f883a 	mov	r7,r2
 100aa40:	9009883a 	mov	r4,r18
 100aa44:	1187c83a 	sub	r3,r2,r6
 100aa48:	008003c4 	movi	r2,15
 100aa4c:	19400054 	ori	r5,r3,1
 100aa50:	10ffdc0e 	bge	r2,r3,100a9c4 <_malloc_trim_r+0x78>
 100aa54:	00804174 	movhi	r2,261
 100aa58:	10a15904 	addi	r2,r2,-31388
 100aa5c:	10c00017 	ldw	r3,0(r2)
 100aa60:	00804174 	movhi	r2,261
 100aa64:	10a83804 	addi	r2,r2,-24352
 100aa68:	31400115 	stw	r5,4(r6)
 100aa6c:	38c7c83a 	sub	r3,r7,r3
 100aa70:	10c00015 	stw	r3,0(r2)
 100aa74:	003fd306 	br	100a9c4 <_malloc_trim_r+0x78>

0100aa78 <_free_r>:
 100aa78:	defffd04 	addi	sp,sp,-12
 100aa7c:	dc400115 	stw	r17,4(sp)
 100aa80:	dc000015 	stw	r16,0(sp)
 100aa84:	dfc00215 	stw	ra,8(sp)
 100aa88:	2821883a 	mov	r16,r5
 100aa8c:	2023883a 	mov	r17,r4
 100aa90:	28005a26 	beq	r5,zero,100abfc <_free_r+0x184>
 100aa94:	100eea80 	call	100eea8 <__malloc_lock>
 100aa98:	823ffe04 	addi	r8,r16,-8
 100aa9c:	41400117 	ldw	r5,4(r8)
 100aaa0:	00bfff84 	movi	r2,-2
 100aaa4:	02804134 	movhi	r10,260
 100aaa8:	529aaa04 	addi	r10,r10,27304
 100aaac:	288e703a 	and	r7,r5,r2
 100aab0:	41cd883a 	add	r6,r8,r7
 100aab4:	30c00117 	ldw	r3,4(r6)
 100aab8:	51000217 	ldw	r4,8(r10)
 100aabc:	00bfff04 	movi	r2,-4
 100aac0:	1892703a 	and	r9,r3,r2
 100aac4:	5017883a 	mov	r11,r10
 100aac8:	31006726 	beq	r6,r4,100ac68 <_free_r+0x1f0>
 100aacc:	2880004c 	andi	r2,r5,1
 100aad0:	1005003a 	cmpeq	r2,r2,zero
 100aad4:	32400115 	stw	r9,4(r6)
 100aad8:	10001a1e 	bne	r2,zero,100ab44 <_free_r+0xcc>
 100aadc:	000b883a 	mov	r5,zero
 100aae0:	3247883a 	add	r3,r6,r9
 100aae4:	18800117 	ldw	r2,4(r3)
 100aae8:	1080004c 	andi	r2,r2,1
 100aaec:	1000231e 	bne	r2,zero,100ab7c <_free_r+0x104>
 100aaf0:	280ac03a 	cmpne	r5,r5,zero
 100aaf4:	3a4f883a 	add	r7,r7,r9
 100aaf8:	2800451e 	bne	r5,zero,100ac10 <_free_r+0x198>
 100aafc:	31000217 	ldw	r4,8(r6)
 100ab00:	00804134 	movhi	r2,260
 100ab04:	109aac04 	addi	r2,r2,27312
 100ab08:	20807b26 	beq	r4,r2,100acf8 <_free_r+0x280>
 100ab0c:	30800317 	ldw	r2,12(r6)
 100ab10:	3a07883a 	add	r3,r7,r8
 100ab14:	19c00015 	stw	r7,0(r3)
 100ab18:	11000215 	stw	r4,8(r2)
 100ab1c:	20800315 	stw	r2,12(r4)
 100ab20:	38800054 	ori	r2,r7,1
 100ab24:	40800115 	stw	r2,4(r8)
 100ab28:	28001a26 	beq	r5,zero,100ab94 <_free_r+0x11c>
 100ab2c:	8809883a 	mov	r4,r17
 100ab30:	dfc00217 	ldw	ra,8(sp)
 100ab34:	dc400117 	ldw	r17,4(sp)
 100ab38:	dc000017 	ldw	r16,0(sp)
 100ab3c:	dec00304 	addi	sp,sp,12
 100ab40:	100eec81 	jmpi	100eec8 <__malloc_unlock>
 100ab44:	80bffe17 	ldw	r2,-8(r16)
 100ab48:	50c00204 	addi	r3,r10,8
 100ab4c:	4091c83a 	sub	r8,r8,r2
 100ab50:	41000217 	ldw	r4,8(r8)
 100ab54:	388f883a 	add	r7,r7,r2
 100ab58:	20c06126 	beq	r4,r3,100ace0 <_free_r+0x268>
 100ab5c:	40800317 	ldw	r2,12(r8)
 100ab60:	3247883a 	add	r3,r6,r9
 100ab64:	000b883a 	mov	r5,zero
 100ab68:	11000215 	stw	r4,8(r2)
 100ab6c:	20800315 	stw	r2,12(r4)
 100ab70:	18800117 	ldw	r2,4(r3)
 100ab74:	1080004c 	andi	r2,r2,1
 100ab78:	103fdd26 	beq	r2,zero,100aaf0 <_free_r+0x78>
 100ab7c:	38800054 	ori	r2,r7,1
 100ab80:	3a07883a 	add	r3,r7,r8
 100ab84:	280ac03a 	cmpne	r5,r5,zero
 100ab88:	40800115 	stw	r2,4(r8)
 100ab8c:	19c00015 	stw	r7,0(r3)
 100ab90:	283fe61e 	bne	r5,zero,100ab2c <_free_r+0xb4>
 100ab94:	00807fc4 	movi	r2,511
 100ab98:	11c01f2e 	bgeu	r2,r7,100ac18 <_free_r+0x1a0>
 100ab9c:	3806d27a 	srli	r3,r7,9
 100aba0:	1800481e 	bne	r3,zero,100acc4 <_free_r+0x24c>
 100aba4:	3804d0fa 	srli	r2,r7,3
 100aba8:	100690fa 	slli	r3,r2,3
 100abac:	1acd883a 	add	r6,r3,r11
 100abb0:	31400217 	ldw	r5,8(r6)
 100abb4:	31405926 	beq	r6,r5,100ad1c <_free_r+0x2a4>
 100abb8:	28800117 	ldw	r2,4(r5)
 100abbc:	00ffff04 	movi	r3,-4
 100abc0:	10c4703a 	and	r2,r2,r3
 100abc4:	3880022e 	bgeu	r7,r2,100abd0 <_free_r+0x158>
 100abc8:	29400217 	ldw	r5,8(r5)
 100abcc:	317ffa1e 	bne	r6,r5,100abb8 <_free_r+0x140>
 100abd0:	29800317 	ldw	r6,12(r5)
 100abd4:	41800315 	stw	r6,12(r8)
 100abd8:	41400215 	stw	r5,8(r8)
 100abdc:	8809883a 	mov	r4,r17
 100abe0:	2a000315 	stw	r8,12(r5)
 100abe4:	32000215 	stw	r8,8(r6)
 100abe8:	dfc00217 	ldw	ra,8(sp)
 100abec:	dc400117 	ldw	r17,4(sp)
 100abf0:	dc000017 	ldw	r16,0(sp)
 100abf4:	dec00304 	addi	sp,sp,12
 100abf8:	100eec81 	jmpi	100eec8 <__malloc_unlock>
 100abfc:	dfc00217 	ldw	ra,8(sp)
 100ac00:	dc400117 	ldw	r17,4(sp)
 100ac04:	dc000017 	ldw	r16,0(sp)
 100ac08:	dec00304 	addi	sp,sp,12
 100ac0c:	f800283a 	ret
 100ac10:	31000217 	ldw	r4,8(r6)
 100ac14:	003fbd06 	br	100ab0c <_free_r+0x94>
 100ac18:	3806d0fa 	srli	r3,r7,3
 100ac1c:	00800044 	movi	r2,1
 100ac20:	51400117 	ldw	r5,4(r10)
 100ac24:	180890fa 	slli	r4,r3,3
 100ac28:	1807d0ba 	srai	r3,r3,2
 100ac2c:	22c9883a 	add	r4,r4,r11
 100ac30:	21800217 	ldw	r6,8(r4)
 100ac34:	10c4983a 	sll	r2,r2,r3
 100ac38:	41000315 	stw	r4,12(r8)
 100ac3c:	41800215 	stw	r6,8(r8)
 100ac40:	288ab03a 	or	r5,r5,r2
 100ac44:	22000215 	stw	r8,8(r4)
 100ac48:	8809883a 	mov	r4,r17
 100ac4c:	51400115 	stw	r5,4(r10)
 100ac50:	32000315 	stw	r8,12(r6)
 100ac54:	dfc00217 	ldw	ra,8(sp)
 100ac58:	dc400117 	ldw	r17,4(sp)
 100ac5c:	dc000017 	ldw	r16,0(sp)
 100ac60:	dec00304 	addi	sp,sp,12
 100ac64:	100eec81 	jmpi	100eec8 <__malloc_unlock>
 100ac68:	2880004c 	andi	r2,r5,1
 100ac6c:	3a4d883a 	add	r6,r7,r9
 100ac70:	1000071e 	bne	r2,zero,100ac90 <_free_r+0x218>
 100ac74:	80bffe17 	ldw	r2,-8(r16)
 100ac78:	4091c83a 	sub	r8,r8,r2
 100ac7c:	41000317 	ldw	r4,12(r8)
 100ac80:	40c00217 	ldw	r3,8(r8)
 100ac84:	308d883a 	add	r6,r6,r2
 100ac88:	20c00215 	stw	r3,8(r4)
 100ac8c:	19000315 	stw	r4,12(r3)
 100ac90:	00804174 	movhi	r2,261
 100ac94:	10a15804 	addi	r2,r2,-31392
 100ac98:	11000017 	ldw	r4,0(r2)
 100ac9c:	30c00054 	ori	r3,r6,1
 100aca0:	52000215 	stw	r8,8(r10)
 100aca4:	40c00115 	stw	r3,4(r8)
 100aca8:	313fa036 	bltu	r6,r4,100ab2c <_free_r+0xb4>
 100acac:	00804174 	movhi	r2,261
 100acb0:	10a82704 	addi	r2,r2,-24420
 100acb4:	11400017 	ldw	r5,0(r2)
 100acb8:	8809883a 	mov	r4,r17
 100acbc:	100a94c0 	call	100a94c <_malloc_trim_r>
 100acc0:	003f9a06 	br	100ab2c <_free_r+0xb4>
 100acc4:	00800104 	movi	r2,4
 100acc8:	10c0072e 	bgeu	r2,r3,100ace8 <_free_r+0x270>
 100accc:	00800504 	movi	r2,20
 100acd0:	10c01936 	bltu	r2,r3,100ad38 <_free_r+0x2c0>
 100acd4:	188016c4 	addi	r2,r3,91
 100acd8:	100690fa 	slli	r3,r2,3
 100acdc:	003fb306 	br	100abac <_free_r+0x134>
 100ace0:	01400044 	movi	r5,1
 100ace4:	003f7e06 	br	100aae0 <_free_r+0x68>
 100ace8:	3804d1ba 	srli	r2,r7,6
 100acec:	10800e04 	addi	r2,r2,56
 100acf0:	100690fa 	slli	r3,r2,3
 100acf4:	003fad06 	br	100abac <_free_r+0x134>
 100acf8:	22000315 	stw	r8,12(r4)
 100acfc:	22000215 	stw	r8,8(r4)
 100ad00:	3a05883a 	add	r2,r7,r8
 100ad04:	38c00054 	ori	r3,r7,1
 100ad08:	11c00015 	stw	r7,0(r2)
 100ad0c:	41000215 	stw	r4,8(r8)
 100ad10:	40c00115 	stw	r3,4(r8)
 100ad14:	41000315 	stw	r4,12(r8)
 100ad18:	003f8406 	br	100ab2c <_free_r+0xb4>
 100ad1c:	1005d0ba 	srai	r2,r2,2
 100ad20:	00c00044 	movi	r3,1
 100ad24:	51000117 	ldw	r4,4(r10)
 100ad28:	1886983a 	sll	r3,r3,r2
 100ad2c:	20c8b03a 	or	r4,r4,r3
 100ad30:	51000115 	stw	r4,4(r10)
 100ad34:	003fa706 	br	100abd4 <_free_r+0x15c>
 100ad38:	00801504 	movi	r2,84
 100ad3c:	10c00436 	bltu	r2,r3,100ad50 <_free_r+0x2d8>
 100ad40:	3804d33a 	srli	r2,r7,12
 100ad44:	10801b84 	addi	r2,r2,110
 100ad48:	100690fa 	slli	r3,r2,3
 100ad4c:	003f9706 	br	100abac <_free_r+0x134>
 100ad50:	00805504 	movi	r2,340
 100ad54:	10c00436 	bltu	r2,r3,100ad68 <_free_r+0x2f0>
 100ad58:	3804d3fa 	srli	r2,r7,15
 100ad5c:	10801dc4 	addi	r2,r2,119
 100ad60:	100690fa 	slli	r3,r2,3
 100ad64:	003f9106 	br	100abac <_free_r+0x134>
 100ad68:	00815504 	movi	r2,1364
 100ad6c:	10c0032e 	bgeu	r2,r3,100ad7c <_free_r+0x304>
 100ad70:	00801f84 	movi	r2,126
 100ad74:	00c0fc04 	movi	r3,1008
 100ad78:	003f8c06 	br	100abac <_free_r+0x134>
 100ad7c:	3804d4ba 	srli	r2,r7,18
 100ad80:	10801f04 	addi	r2,r2,124
 100ad84:	100690fa 	slli	r3,r2,3
 100ad88:	003f8806 	br	100abac <_free_r+0x134>

0100ad8c <__sfvwrite_r>:
 100ad8c:	30800217 	ldw	r2,8(r6)
 100ad90:	defff504 	addi	sp,sp,-44
 100ad94:	df000915 	stw	fp,36(sp)
 100ad98:	dd800715 	stw	r22,28(sp)
 100ad9c:	dc800315 	stw	r18,12(sp)
 100ada0:	dfc00a15 	stw	ra,40(sp)
 100ada4:	ddc00815 	stw	r23,32(sp)
 100ada8:	dd400615 	stw	r21,24(sp)
 100adac:	dd000515 	stw	r20,20(sp)
 100adb0:	dcc00415 	stw	r19,16(sp)
 100adb4:	dc400215 	stw	r17,8(sp)
 100adb8:	dc000115 	stw	r16,4(sp)
 100adbc:	302d883a 	mov	r22,r6
 100adc0:	2039883a 	mov	fp,r4
 100adc4:	2825883a 	mov	r18,r5
 100adc8:	10001c26 	beq	r2,zero,100ae3c <__sfvwrite_r+0xb0>
 100adcc:	29c0030b 	ldhu	r7,12(r5)
 100add0:	3880020c 	andi	r2,r7,8
 100add4:	10002726 	beq	r2,zero,100ae74 <__sfvwrite_r+0xe8>
 100add8:	28800417 	ldw	r2,16(r5)
 100addc:	10002526 	beq	r2,zero,100ae74 <__sfvwrite_r+0xe8>
 100ade0:	3880008c 	andi	r2,r7,2
 100ade4:	b5400017 	ldw	r21,0(r22)
 100ade8:	10002826 	beq	r2,zero,100ae8c <__sfvwrite_r+0x100>
 100adec:	0021883a 	mov	r16,zero
 100adf0:	0023883a 	mov	r17,zero
 100adf4:	880d883a 	mov	r6,r17
 100adf8:	e009883a 	mov	r4,fp
 100adfc:	00810004 	movi	r2,1024
 100ae00:	80006e26 	beq	r16,zero,100afbc <__sfvwrite_r+0x230>
 100ae04:	800f883a 	mov	r7,r16
 100ae08:	91400717 	ldw	r5,28(r18)
 100ae0c:	1400012e 	bgeu	r2,r16,100ae14 <__sfvwrite_r+0x88>
 100ae10:	100f883a 	mov	r7,r2
 100ae14:	90c00917 	ldw	r3,36(r18)
 100ae18:	183ee83a 	callr	r3
 100ae1c:	1007883a 	mov	r3,r2
 100ae20:	80a1c83a 	sub	r16,r16,r2
 100ae24:	88a3883a 	add	r17,r17,r2
 100ae28:	00806d0e 	bge	zero,r2,100afe0 <__sfvwrite_r+0x254>
 100ae2c:	b0800217 	ldw	r2,8(r22)
 100ae30:	10c5c83a 	sub	r2,r2,r3
 100ae34:	b0800215 	stw	r2,8(r22)
 100ae38:	103fee1e 	bne	r2,zero,100adf4 <__sfvwrite_r+0x68>
 100ae3c:	0009883a 	mov	r4,zero
 100ae40:	2005883a 	mov	r2,r4
 100ae44:	dfc00a17 	ldw	ra,40(sp)
 100ae48:	df000917 	ldw	fp,36(sp)
 100ae4c:	ddc00817 	ldw	r23,32(sp)
 100ae50:	dd800717 	ldw	r22,28(sp)
 100ae54:	dd400617 	ldw	r21,24(sp)
 100ae58:	dd000517 	ldw	r20,20(sp)
 100ae5c:	dcc00417 	ldw	r19,16(sp)
 100ae60:	dc800317 	ldw	r18,12(sp)
 100ae64:	dc400217 	ldw	r17,8(sp)
 100ae68:	dc000117 	ldw	r16,4(sp)
 100ae6c:	dec00b04 	addi	sp,sp,44
 100ae70:	f800283a 	ret
 100ae74:	1008af40 	call	1008af4 <__swsetup_r>
 100ae78:	1000e41e 	bne	r2,zero,100b20c <__sfvwrite_r+0x480>
 100ae7c:	91c0030b 	ldhu	r7,12(r18)
 100ae80:	b5400017 	ldw	r21,0(r22)
 100ae84:	3880008c 	andi	r2,r7,2
 100ae88:	103fd81e 	bne	r2,zero,100adec <__sfvwrite_r+0x60>
 100ae8c:	3880004c 	andi	r2,r7,1
 100ae90:	1005003a 	cmpeq	r2,r2,zero
 100ae94:	10005726 	beq	r2,zero,100aff4 <__sfvwrite_r+0x268>
 100ae98:	0029883a 	mov	r20,zero
 100ae9c:	002f883a 	mov	r23,zero
 100aea0:	a0004226 	beq	r20,zero,100afac <__sfvwrite_r+0x220>
 100aea4:	3880800c 	andi	r2,r7,512
 100aea8:	94000217 	ldw	r16,8(r18)
 100aeac:	10008b26 	beq	r2,zero,100b0dc <__sfvwrite_r+0x350>
 100aeb0:	800d883a 	mov	r6,r16
 100aeb4:	a400a536 	bltu	r20,r16,100b14c <__sfvwrite_r+0x3c0>
 100aeb8:	3881200c 	andi	r2,r7,1152
 100aebc:	10002726 	beq	r2,zero,100af5c <__sfvwrite_r+0x1d0>
 100aec0:	90800517 	ldw	r2,20(r18)
 100aec4:	92000417 	ldw	r8,16(r18)
 100aec8:	91400017 	ldw	r5,0(r18)
 100aecc:	1087883a 	add	r3,r2,r2
 100aed0:	1887883a 	add	r3,r3,r2
 100aed4:	1808d7fa 	srli	r4,r3,31
 100aed8:	2a21c83a 	sub	r16,r5,r8
 100aedc:	80800044 	addi	r2,r16,1
 100aee0:	20c9883a 	add	r4,r4,r3
 100aee4:	2027d07a 	srai	r19,r4,1
 100aee8:	a085883a 	add	r2,r20,r2
 100aeec:	980d883a 	mov	r6,r19
 100aef0:	9880022e 	bgeu	r19,r2,100aefc <__sfvwrite_r+0x170>
 100aef4:	1027883a 	mov	r19,r2
 100aef8:	100d883a 	mov	r6,r2
 100aefc:	3881000c 	andi	r2,r7,1024
 100af00:	1000b826 	beq	r2,zero,100b1e4 <__sfvwrite_r+0x458>
 100af04:	300b883a 	mov	r5,r6
 100af08:	e009883a 	mov	r4,fp
 100af0c:	10061740 	call	1006174 <_malloc_r>
 100af10:	10003126 	beq	r2,zero,100afd8 <__sfvwrite_r+0x24c>
 100af14:	91400417 	ldw	r5,16(r18)
 100af18:	1009883a 	mov	r4,r2
 100af1c:	800d883a 	mov	r6,r16
 100af20:	1023883a 	mov	r17,r2
 100af24:	100b7580 	call	100b758 <memcpy>
 100af28:	90c0030b 	ldhu	r3,12(r18)
 100af2c:	00beffc4 	movi	r2,-1025
 100af30:	1886703a 	and	r3,r3,r2
 100af34:	18c02014 	ori	r3,r3,128
 100af38:	90c0030d 	sth	r3,12(r18)
 100af3c:	9c07c83a 	sub	r3,r19,r16
 100af40:	8c05883a 	add	r2,r17,r16
 100af44:	a00d883a 	mov	r6,r20
 100af48:	a021883a 	mov	r16,r20
 100af4c:	90800015 	stw	r2,0(r18)
 100af50:	90c00215 	stw	r3,8(r18)
 100af54:	94400415 	stw	r17,16(r18)
 100af58:	94c00515 	stw	r19,20(r18)
 100af5c:	91000017 	ldw	r4,0(r18)
 100af60:	b80b883a 	mov	r5,r23
 100af64:	a023883a 	mov	r17,r20
 100af68:	100b7f80 	call	100b7f8 <memmove>
 100af6c:	90c00217 	ldw	r3,8(r18)
 100af70:	90800017 	ldw	r2,0(r18)
 100af74:	a027883a 	mov	r19,r20
 100af78:	1c07c83a 	sub	r3,r3,r16
 100af7c:	1405883a 	add	r2,r2,r16
 100af80:	90c00215 	stw	r3,8(r18)
 100af84:	a021883a 	mov	r16,r20
 100af88:	90800015 	stw	r2,0(r18)
 100af8c:	b0800217 	ldw	r2,8(r22)
 100af90:	1405c83a 	sub	r2,r2,r16
 100af94:	b0800215 	stw	r2,8(r22)
 100af98:	103fa826 	beq	r2,zero,100ae3c <__sfvwrite_r+0xb0>
 100af9c:	a469c83a 	sub	r20,r20,r17
 100afa0:	91c0030b 	ldhu	r7,12(r18)
 100afa4:	bcef883a 	add	r23,r23,r19
 100afa8:	a03fbe1e 	bne	r20,zero,100aea4 <__sfvwrite_r+0x118>
 100afac:	adc00017 	ldw	r23,0(r21)
 100afb0:	ad000117 	ldw	r20,4(r21)
 100afb4:	ad400204 	addi	r21,r21,8
 100afb8:	003fb906 	br	100aea0 <__sfvwrite_r+0x114>
 100afbc:	ac400017 	ldw	r17,0(r21)
 100afc0:	ac000117 	ldw	r16,4(r21)
 100afc4:	ad400204 	addi	r21,r21,8
 100afc8:	003f8a06 	br	100adf4 <__sfvwrite_r+0x68>
 100afcc:	91400417 	ldw	r5,16(r18)
 100afd0:	e009883a 	mov	r4,fp
 100afd4:	100aa780 	call	100aa78 <_free_r>
 100afd8:	00800304 	movi	r2,12
 100afdc:	e0800015 	stw	r2,0(fp)
 100afe0:	9080030b 	ldhu	r2,12(r18)
 100afe4:	013fffc4 	movi	r4,-1
 100afe8:	10801014 	ori	r2,r2,64
 100afec:	9080030d 	sth	r2,12(r18)
 100aff0:	003f9306 	br	100ae40 <__sfvwrite_r+0xb4>
 100aff4:	0027883a 	mov	r19,zero
 100aff8:	002f883a 	mov	r23,zero
 100affc:	d8000015 	stw	zero,0(sp)
 100b000:	0029883a 	mov	r20,zero
 100b004:	98001e26 	beq	r19,zero,100b080 <__sfvwrite_r+0x2f4>
 100b008:	d8c00017 	ldw	r3,0(sp)
 100b00c:	1804c03a 	cmpne	r2,r3,zero
 100b010:	10005e26 	beq	r2,zero,100b18c <__sfvwrite_r+0x400>
 100b014:	9821883a 	mov	r16,r19
 100b018:	a4c0012e 	bgeu	r20,r19,100b020 <__sfvwrite_r+0x294>
 100b01c:	a021883a 	mov	r16,r20
 100b020:	91000017 	ldw	r4,0(r18)
 100b024:	90800417 	ldw	r2,16(r18)
 100b028:	91800217 	ldw	r6,8(r18)
 100b02c:	91c00517 	ldw	r7,20(r18)
 100b030:	1100022e 	bgeu	r2,r4,100b03c <__sfvwrite_r+0x2b0>
 100b034:	31e3883a 	add	r17,r6,r7
 100b038:	8c001616 	blt	r17,r16,100b094 <__sfvwrite_r+0x308>
 100b03c:	81c03816 	blt	r16,r7,100b120 <__sfvwrite_r+0x394>
 100b040:	90c00917 	ldw	r3,36(r18)
 100b044:	91400717 	ldw	r5,28(r18)
 100b048:	e009883a 	mov	r4,fp
 100b04c:	b80d883a 	mov	r6,r23
 100b050:	183ee83a 	callr	r3
 100b054:	1023883a 	mov	r17,r2
 100b058:	00bfe10e 	bge	zero,r2,100afe0 <__sfvwrite_r+0x254>
 100b05c:	a469c83a 	sub	r20,r20,r17
 100b060:	a0001826 	beq	r20,zero,100b0c4 <__sfvwrite_r+0x338>
 100b064:	b0800217 	ldw	r2,8(r22)
 100b068:	1445c83a 	sub	r2,r2,r17
 100b06c:	b0800215 	stw	r2,8(r22)
 100b070:	103f7226 	beq	r2,zero,100ae3c <__sfvwrite_r+0xb0>
 100b074:	9c67c83a 	sub	r19,r19,r17
 100b078:	bc6f883a 	add	r23,r23,r17
 100b07c:	983fe21e 	bne	r19,zero,100b008 <__sfvwrite_r+0x27c>
 100b080:	adc00017 	ldw	r23,0(r21)
 100b084:	acc00117 	ldw	r19,4(r21)
 100b088:	ad400204 	addi	r21,r21,8
 100b08c:	d8000015 	stw	zero,0(sp)
 100b090:	003fdc06 	br	100b004 <__sfvwrite_r+0x278>
 100b094:	b80b883a 	mov	r5,r23
 100b098:	880d883a 	mov	r6,r17
 100b09c:	100b7f80 	call	100b7f8 <memmove>
 100b0a0:	90c00017 	ldw	r3,0(r18)
 100b0a4:	e009883a 	mov	r4,fp
 100b0a8:	900b883a 	mov	r5,r18
 100b0ac:	1c47883a 	add	r3,r3,r17
 100b0b0:	90c00015 	stw	r3,0(r18)
 100b0b4:	100a4280 	call	100a428 <_fflush_r>
 100b0b8:	103fc91e 	bne	r2,zero,100afe0 <__sfvwrite_r+0x254>
 100b0bc:	a469c83a 	sub	r20,r20,r17
 100b0c0:	a03fe81e 	bne	r20,zero,100b064 <__sfvwrite_r+0x2d8>
 100b0c4:	e009883a 	mov	r4,fp
 100b0c8:	900b883a 	mov	r5,r18
 100b0cc:	100a4280 	call	100a428 <_fflush_r>
 100b0d0:	103fc31e 	bne	r2,zero,100afe0 <__sfvwrite_r+0x254>
 100b0d4:	d8000015 	stw	zero,0(sp)
 100b0d8:	003fe206 	br	100b064 <__sfvwrite_r+0x2d8>
 100b0dc:	91000017 	ldw	r4,0(r18)
 100b0e0:	90800417 	ldw	r2,16(r18)
 100b0e4:	1100022e 	bgeu	r2,r4,100b0f0 <__sfvwrite_r+0x364>
 100b0e8:	8023883a 	mov	r17,r16
 100b0ec:	85003136 	bltu	r16,r20,100b1b4 <__sfvwrite_r+0x428>
 100b0f0:	91c00517 	ldw	r7,20(r18)
 100b0f4:	a1c01836 	bltu	r20,r7,100b158 <__sfvwrite_r+0x3cc>
 100b0f8:	90c00917 	ldw	r3,36(r18)
 100b0fc:	91400717 	ldw	r5,28(r18)
 100b100:	e009883a 	mov	r4,fp
 100b104:	b80d883a 	mov	r6,r23
 100b108:	183ee83a 	callr	r3
 100b10c:	1021883a 	mov	r16,r2
 100b110:	00bfb30e 	bge	zero,r2,100afe0 <__sfvwrite_r+0x254>
 100b114:	1023883a 	mov	r17,r2
 100b118:	1027883a 	mov	r19,r2
 100b11c:	003f9b06 	br	100af8c <__sfvwrite_r+0x200>
 100b120:	b80b883a 	mov	r5,r23
 100b124:	800d883a 	mov	r6,r16
 100b128:	100b7f80 	call	100b7f8 <memmove>
 100b12c:	90c00217 	ldw	r3,8(r18)
 100b130:	90800017 	ldw	r2,0(r18)
 100b134:	8023883a 	mov	r17,r16
 100b138:	1c07c83a 	sub	r3,r3,r16
 100b13c:	1405883a 	add	r2,r2,r16
 100b140:	90c00215 	stw	r3,8(r18)
 100b144:	90800015 	stw	r2,0(r18)
 100b148:	003fc406 	br	100b05c <__sfvwrite_r+0x2d0>
 100b14c:	a00d883a 	mov	r6,r20
 100b150:	a021883a 	mov	r16,r20
 100b154:	003f8106 	br	100af5c <__sfvwrite_r+0x1d0>
 100b158:	b80b883a 	mov	r5,r23
 100b15c:	a00d883a 	mov	r6,r20
 100b160:	100b7f80 	call	100b7f8 <memmove>
 100b164:	90c00217 	ldw	r3,8(r18)
 100b168:	90800017 	ldw	r2,0(r18)
 100b16c:	a021883a 	mov	r16,r20
 100b170:	1d07c83a 	sub	r3,r3,r20
 100b174:	1505883a 	add	r2,r2,r20
 100b178:	a023883a 	mov	r17,r20
 100b17c:	a027883a 	mov	r19,r20
 100b180:	90c00215 	stw	r3,8(r18)
 100b184:	90800015 	stw	r2,0(r18)
 100b188:	003f8006 	br	100af8c <__sfvwrite_r+0x200>
 100b18c:	b809883a 	mov	r4,r23
 100b190:	01400284 	movi	r5,10
 100b194:	980d883a 	mov	r6,r19
 100b198:	100b6740 	call	100b674 <memchr>
 100b19c:	10001726 	beq	r2,zero,100b1fc <__sfvwrite_r+0x470>
 100b1a0:	15c5c83a 	sub	r2,r2,r23
 100b1a4:	15000044 	addi	r20,r2,1
 100b1a8:	00800044 	movi	r2,1
 100b1ac:	d8800015 	stw	r2,0(sp)
 100b1b0:	003f9806 	br	100b014 <__sfvwrite_r+0x288>
 100b1b4:	b80b883a 	mov	r5,r23
 100b1b8:	800d883a 	mov	r6,r16
 100b1bc:	100b7f80 	call	100b7f8 <memmove>
 100b1c0:	90c00017 	ldw	r3,0(r18)
 100b1c4:	e009883a 	mov	r4,fp
 100b1c8:	900b883a 	mov	r5,r18
 100b1cc:	1c07883a 	add	r3,r3,r16
 100b1d0:	90c00015 	stw	r3,0(r18)
 100b1d4:	8027883a 	mov	r19,r16
 100b1d8:	100a4280 	call	100a428 <_fflush_r>
 100b1dc:	103f6b26 	beq	r2,zero,100af8c <__sfvwrite_r+0x200>
 100b1e0:	003f7f06 	br	100afe0 <__sfvwrite_r+0x254>
 100b1e4:	400b883a 	mov	r5,r8
 100b1e8:	e009883a 	mov	r4,fp
 100b1ec:	100c9fc0 	call	100c9fc <_realloc_r>
 100b1f0:	103f7626 	beq	r2,zero,100afcc <__sfvwrite_r+0x240>
 100b1f4:	1023883a 	mov	r17,r2
 100b1f8:	003f5006 	br	100af3c <__sfvwrite_r+0x1b0>
 100b1fc:	00c00044 	movi	r3,1
 100b200:	9d000044 	addi	r20,r19,1
 100b204:	d8c00015 	stw	r3,0(sp)
 100b208:	003f8206 	br	100b014 <__sfvwrite_r+0x288>
 100b20c:	9080030b 	ldhu	r2,12(r18)
 100b210:	00c00244 	movi	r3,9
 100b214:	013fffc4 	movi	r4,-1
 100b218:	10801014 	ori	r2,r2,64
 100b21c:	9080030d 	sth	r2,12(r18)
 100b220:	e0c00015 	stw	r3,0(fp)
 100b224:	003f0606 	br	100ae40 <__sfvwrite_r+0xb4>

0100b228 <_fwalk_reent>:
 100b228:	defff704 	addi	sp,sp,-36
 100b22c:	dcc00315 	stw	r19,12(sp)
 100b230:	24c0b804 	addi	r19,r4,736
 100b234:	dd800615 	stw	r22,24(sp)
 100b238:	dd400515 	stw	r21,20(sp)
 100b23c:	dfc00815 	stw	ra,32(sp)
 100b240:	ddc00715 	stw	r23,28(sp)
 100b244:	dd000415 	stw	r20,16(sp)
 100b248:	dc800215 	stw	r18,8(sp)
 100b24c:	dc400115 	stw	r17,4(sp)
 100b250:	dc000015 	stw	r16,0(sp)
 100b254:	202b883a 	mov	r21,r4
 100b258:	282d883a 	mov	r22,r5
 100b25c:	100a6b00 	call	100a6b0 <__sfp_lock_acquire>
 100b260:	98002126 	beq	r19,zero,100b2e8 <_fwalk_reent+0xc0>
 100b264:	002f883a 	mov	r23,zero
 100b268:	9c800117 	ldw	r18,4(r19)
 100b26c:	9c000217 	ldw	r16,8(r19)
 100b270:	90bfffc4 	addi	r2,r18,-1
 100b274:	10000d16 	blt	r2,zero,100b2ac <_fwalk_reent+0x84>
 100b278:	0023883a 	mov	r17,zero
 100b27c:	053fffc4 	movi	r20,-1
 100b280:	8080030f 	ldh	r2,12(r16)
 100b284:	8c400044 	addi	r17,r17,1
 100b288:	10000626 	beq	r2,zero,100b2a4 <_fwalk_reent+0x7c>
 100b28c:	8080038f 	ldh	r2,14(r16)
 100b290:	800b883a 	mov	r5,r16
 100b294:	a809883a 	mov	r4,r21
 100b298:	15000226 	beq	r2,r20,100b2a4 <_fwalk_reent+0x7c>
 100b29c:	b03ee83a 	callr	r22
 100b2a0:	b8aeb03a 	or	r23,r23,r2
 100b2a4:	84001704 	addi	r16,r16,92
 100b2a8:	947ff51e 	bne	r18,r17,100b280 <_fwalk_reent+0x58>
 100b2ac:	9cc00017 	ldw	r19,0(r19)
 100b2b0:	983fed1e 	bne	r19,zero,100b268 <_fwalk_reent+0x40>
 100b2b4:	100a6b40 	call	100a6b4 <__sfp_lock_release>
 100b2b8:	b805883a 	mov	r2,r23
 100b2bc:	dfc00817 	ldw	ra,32(sp)
 100b2c0:	ddc00717 	ldw	r23,28(sp)
 100b2c4:	dd800617 	ldw	r22,24(sp)
 100b2c8:	dd400517 	ldw	r21,20(sp)
 100b2cc:	dd000417 	ldw	r20,16(sp)
 100b2d0:	dcc00317 	ldw	r19,12(sp)
 100b2d4:	dc800217 	ldw	r18,8(sp)
 100b2d8:	dc400117 	ldw	r17,4(sp)
 100b2dc:	dc000017 	ldw	r16,0(sp)
 100b2e0:	dec00904 	addi	sp,sp,36
 100b2e4:	f800283a 	ret
 100b2e8:	002f883a 	mov	r23,zero
 100b2ec:	003ff106 	br	100b2b4 <_fwalk_reent+0x8c>

0100b2f0 <_fwalk>:
 100b2f0:	defff804 	addi	sp,sp,-32
 100b2f4:	dcc00315 	stw	r19,12(sp)
 100b2f8:	24c0b804 	addi	r19,r4,736
 100b2fc:	dd400515 	stw	r21,20(sp)
 100b300:	dfc00715 	stw	ra,28(sp)
 100b304:	dd800615 	stw	r22,24(sp)
 100b308:	dd000415 	stw	r20,16(sp)
 100b30c:	dc800215 	stw	r18,8(sp)
 100b310:	dc400115 	stw	r17,4(sp)
 100b314:	dc000015 	stw	r16,0(sp)
 100b318:	282b883a 	mov	r21,r5
 100b31c:	100a6b00 	call	100a6b0 <__sfp_lock_acquire>
 100b320:	98001f26 	beq	r19,zero,100b3a0 <_fwalk+0xb0>
 100b324:	002d883a 	mov	r22,zero
 100b328:	9c800117 	ldw	r18,4(r19)
 100b32c:	9c000217 	ldw	r16,8(r19)
 100b330:	90bfffc4 	addi	r2,r18,-1
 100b334:	10000c16 	blt	r2,zero,100b368 <_fwalk+0x78>
 100b338:	0023883a 	mov	r17,zero
 100b33c:	053fffc4 	movi	r20,-1
 100b340:	8080030f 	ldh	r2,12(r16)
 100b344:	8c400044 	addi	r17,r17,1
 100b348:	10000526 	beq	r2,zero,100b360 <_fwalk+0x70>
 100b34c:	8080038f 	ldh	r2,14(r16)
 100b350:	8009883a 	mov	r4,r16
 100b354:	15000226 	beq	r2,r20,100b360 <_fwalk+0x70>
 100b358:	a83ee83a 	callr	r21
 100b35c:	b0acb03a 	or	r22,r22,r2
 100b360:	84001704 	addi	r16,r16,92
 100b364:	947ff61e 	bne	r18,r17,100b340 <_fwalk+0x50>
 100b368:	9cc00017 	ldw	r19,0(r19)
 100b36c:	983fee1e 	bne	r19,zero,100b328 <_fwalk+0x38>
 100b370:	100a6b40 	call	100a6b4 <__sfp_lock_release>
 100b374:	b005883a 	mov	r2,r22
 100b378:	dfc00717 	ldw	ra,28(sp)
 100b37c:	dd800617 	ldw	r22,24(sp)
 100b380:	dd400517 	ldw	r21,20(sp)
 100b384:	dd000417 	ldw	r20,16(sp)
 100b388:	dcc00317 	ldw	r19,12(sp)
 100b38c:	dc800217 	ldw	r18,8(sp)
 100b390:	dc400117 	ldw	r17,4(sp)
 100b394:	dc000017 	ldw	r16,0(sp)
 100b398:	dec00804 	addi	sp,sp,32
 100b39c:	f800283a 	ret
 100b3a0:	002d883a 	mov	r22,zero
 100b3a4:	003ff206 	br	100b370 <_fwalk+0x80>

0100b3a8 <_gettimeofday_r>:
 100b3a8:	defffd04 	addi	sp,sp,-12
 100b3ac:	dc000015 	stw	r16,0(sp)
 100b3b0:	04004174 	movhi	r16,261
 100b3b4:	84282a04 	addi	r16,r16,-24408
 100b3b8:	dc400115 	stw	r17,4(sp)
 100b3bc:	80000015 	stw	zero,0(r16)
 100b3c0:	2023883a 	mov	r17,r4
 100b3c4:	2809883a 	mov	r4,r5
 100b3c8:	300b883a 	mov	r5,r6
 100b3cc:	dfc00215 	stw	ra,8(sp)
 100b3d0:	100e8bc0 	call	100e8bc <gettimeofday>
 100b3d4:	1007883a 	mov	r3,r2
 100b3d8:	00bfffc4 	movi	r2,-1
 100b3dc:	18800626 	beq	r3,r2,100b3f8 <_gettimeofday_r+0x50>
 100b3e0:	1805883a 	mov	r2,r3
 100b3e4:	dfc00217 	ldw	ra,8(sp)
 100b3e8:	dc400117 	ldw	r17,4(sp)
 100b3ec:	dc000017 	ldw	r16,0(sp)
 100b3f0:	dec00304 	addi	sp,sp,12
 100b3f4:	f800283a 	ret
 100b3f8:	80800017 	ldw	r2,0(r16)
 100b3fc:	103ff826 	beq	r2,zero,100b3e0 <_gettimeofday_r+0x38>
 100b400:	88800015 	stw	r2,0(r17)
 100b404:	1805883a 	mov	r2,r3
 100b408:	dfc00217 	ldw	ra,8(sp)
 100b40c:	dc400117 	ldw	r17,4(sp)
 100b410:	dc000017 	ldw	r16,0(sp)
 100b414:	dec00304 	addi	sp,sp,12
 100b418:	f800283a 	ret

0100b41c <__locale_charset>:
 100b41c:	d0a00517 	ldw	r2,-32748(gp)
 100b420:	f800283a 	ret

0100b424 <_localeconv_r>:
 100b424:	00804134 	movhi	r2,260
 100b428:	109a2904 	addi	r2,r2,26788
 100b42c:	f800283a 	ret

0100b430 <localeconv>:
 100b430:	00804174 	movhi	r2,261
 100b434:	10a15a04 	addi	r2,r2,-31384
 100b438:	11000017 	ldw	r4,0(r2)
 100b43c:	100b4241 	jmpi	100b424 <_localeconv_r>

0100b440 <_setlocale_r>:
 100b440:	defffc04 	addi	sp,sp,-16
 100b444:	00c04134 	movhi	r3,260
 100b448:	18da2404 	addi	r3,r3,26768
 100b44c:	dc800215 	stw	r18,8(sp)
 100b450:	dc400115 	stw	r17,4(sp)
 100b454:	dc000015 	stw	r16,0(sp)
 100b458:	2023883a 	mov	r17,r4
 100b45c:	2825883a 	mov	r18,r5
 100b460:	dfc00315 	stw	ra,12(sp)
 100b464:	3021883a 	mov	r16,r6
 100b468:	3009883a 	mov	r4,r6
 100b46c:	180b883a 	mov	r5,r3
 100b470:	30000926 	beq	r6,zero,100b498 <_setlocale_r+0x58>
 100b474:	100d1ac0 	call	100d1ac <strcmp>
 100b478:	8009883a 	mov	r4,r16
 100b47c:	01404134 	movhi	r5,260
 100b480:	295a0f04 	addi	r5,r5,26684
 100b484:	10000b1e 	bne	r2,zero,100b4b4 <_setlocale_r+0x74>
 100b488:	8c000d15 	stw	r16,52(r17)
 100b48c:	8c800c15 	stw	r18,48(r17)
 100b490:	00c04134 	movhi	r3,260
 100b494:	18da2404 	addi	r3,r3,26768
 100b498:	1805883a 	mov	r2,r3
 100b49c:	dfc00317 	ldw	ra,12(sp)
 100b4a0:	dc800217 	ldw	r18,8(sp)
 100b4a4:	dc400117 	ldw	r17,4(sp)
 100b4a8:	dc000017 	ldw	r16,0(sp)
 100b4ac:	dec00404 	addi	sp,sp,16
 100b4b0:	f800283a 	ret
 100b4b4:	100d1ac0 	call	100d1ac <strcmp>
 100b4b8:	0007883a 	mov	r3,zero
 100b4bc:	103ff226 	beq	r2,zero,100b488 <_setlocale_r+0x48>
 100b4c0:	003ff506 	br	100b498 <_setlocale_r+0x58>

0100b4c4 <setlocale>:
 100b4c4:	01804174 	movhi	r6,261
 100b4c8:	31a15a04 	addi	r6,r6,-31384
 100b4cc:	2007883a 	mov	r3,r4
 100b4d0:	31000017 	ldw	r4,0(r6)
 100b4d4:	280d883a 	mov	r6,r5
 100b4d8:	180b883a 	mov	r5,r3
 100b4dc:	100b4401 	jmpi	100b440 <_setlocale_r>

0100b4e0 <__smakebuf_r>:
 100b4e0:	2880030b 	ldhu	r2,12(r5)
 100b4e4:	deffed04 	addi	sp,sp,-76
 100b4e8:	dc401015 	stw	r17,64(sp)
 100b4ec:	1080008c 	andi	r2,r2,2
 100b4f0:	dc000f15 	stw	r16,60(sp)
 100b4f4:	dfc01215 	stw	ra,72(sp)
 100b4f8:	dc801115 	stw	r18,68(sp)
 100b4fc:	2821883a 	mov	r16,r5
 100b500:	2023883a 	mov	r17,r4
 100b504:	10000b26 	beq	r2,zero,100b534 <__smakebuf_r+0x54>
 100b508:	28c010c4 	addi	r3,r5,67
 100b50c:	00800044 	movi	r2,1
 100b510:	28800515 	stw	r2,20(r5)
 100b514:	28c00415 	stw	r3,16(r5)
 100b518:	28c00015 	stw	r3,0(r5)
 100b51c:	dfc01217 	ldw	ra,72(sp)
 100b520:	dc801117 	ldw	r18,68(sp)
 100b524:	dc401017 	ldw	r17,64(sp)
 100b528:	dc000f17 	ldw	r16,60(sp)
 100b52c:	dec01304 	addi	sp,sp,76
 100b530:	f800283a 	ret
 100b534:	2940038f 	ldh	r5,14(r5)
 100b538:	28002116 	blt	r5,zero,100b5c0 <__smakebuf_r+0xe0>
 100b53c:	d80d883a 	mov	r6,sp
 100b540:	100d53c0 	call	100d53c <_fstat_r>
 100b544:	10001e16 	blt	r2,zero,100b5c0 <__smakebuf_r+0xe0>
 100b548:	d8800117 	ldw	r2,4(sp)
 100b54c:	00e00014 	movui	r3,32768
 100b550:	113c000c 	andi	r4,r2,61440
 100b554:	20c03126 	beq	r4,r3,100b61c <__smakebuf_r+0x13c>
 100b558:	8080030b 	ldhu	r2,12(r16)
 100b55c:	00c80004 	movi	r3,8192
 100b560:	10820014 	ori	r2,r2,2048
 100b564:	8080030d 	sth	r2,12(r16)
 100b568:	20c01e26 	beq	r4,r3,100b5e4 <__smakebuf_r+0x104>
 100b56c:	04810004 	movi	r18,1024
 100b570:	8809883a 	mov	r4,r17
 100b574:	900b883a 	mov	r5,r18
 100b578:	10061740 	call	1006174 <_malloc_r>
 100b57c:	1009883a 	mov	r4,r2
 100b580:	10003126 	beq	r2,zero,100b648 <__smakebuf_r+0x168>
 100b584:	80c0030b 	ldhu	r3,12(r16)
 100b588:	00804074 	movhi	r2,257
 100b58c:	10a9e904 	addi	r2,r2,-22620
 100b590:	88800f15 	stw	r2,60(r17)
 100b594:	18c02014 	ori	r3,r3,128
 100b598:	84800515 	stw	r18,20(r16)
 100b59c:	80c0030d 	sth	r3,12(r16)
 100b5a0:	81000415 	stw	r4,16(r16)
 100b5a4:	81000015 	stw	r4,0(r16)
 100b5a8:	dfc01217 	ldw	ra,72(sp)
 100b5ac:	dc801117 	ldw	r18,68(sp)
 100b5b0:	dc401017 	ldw	r17,64(sp)
 100b5b4:	dc000f17 	ldw	r16,60(sp)
 100b5b8:	dec01304 	addi	sp,sp,76
 100b5bc:	f800283a 	ret
 100b5c0:	80c0030b 	ldhu	r3,12(r16)
 100b5c4:	1880200c 	andi	r2,r3,128
 100b5c8:	10000426 	beq	r2,zero,100b5dc <__smakebuf_r+0xfc>
 100b5cc:	04801004 	movi	r18,64
 100b5d0:	18820014 	ori	r2,r3,2048
 100b5d4:	8080030d 	sth	r2,12(r16)
 100b5d8:	003fe506 	br	100b570 <__smakebuf_r+0x90>
 100b5dc:	04810004 	movi	r18,1024
 100b5e0:	003ffb06 	br	100b5d0 <__smakebuf_r+0xf0>
 100b5e4:	8140038f 	ldh	r5,14(r16)
 100b5e8:	8809883a 	mov	r4,r17
 100b5ec:	100d5b00 	call	100d5b0 <_isatty_r>
 100b5f0:	103fde26 	beq	r2,zero,100b56c <__smakebuf_r+0x8c>
 100b5f4:	8080030b 	ldhu	r2,12(r16)
 100b5f8:	80c010c4 	addi	r3,r16,67
 100b5fc:	04810004 	movi	r18,1024
 100b600:	10800054 	ori	r2,r2,1
 100b604:	8080030d 	sth	r2,12(r16)
 100b608:	00800044 	movi	r2,1
 100b60c:	80c00415 	stw	r3,16(r16)
 100b610:	80800515 	stw	r2,20(r16)
 100b614:	80c00015 	stw	r3,0(r16)
 100b618:	003fd506 	br	100b570 <__smakebuf_r+0x90>
 100b61c:	80c00a17 	ldw	r3,40(r16)
 100b620:	00804074 	movhi	r2,257
 100b624:	10b41a04 	addi	r2,r2,-12184
 100b628:	18bfcb1e 	bne	r3,r2,100b558 <__smakebuf_r+0x78>
 100b62c:	8080030b 	ldhu	r2,12(r16)
 100b630:	00c10004 	movi	r3,1024
 100b634:	1825883a 	mov	r18,r3
 100b638:	10c4b03a 	or	r2,r2,r3
 100b63c:	8080030d 	sth	r2,12(r16)
 100b640:	80c01315 	stw	r3,76(r16)
 100b644:	003fca06 	br	100b570 <__smakebuf_r+0x90>
 100b648:	8100030b 	ldhu	r4,12(r16)
 100b64c:	2080800c 	andi	r2,r4,512
 100b650:	103fb21e 	bne	r2,zero,100b51c <__smakebuf_r+0x3c>
 100b654:	80c010c4 	addi	r3,r16,67
 100b658:	21000094 	ori	r4,r4,2
 100b65c:	00800044 	movi	r2,1
 100b660:	80800515 	stw	r2,20(r16)
 100b664:	8100030d 	sth	r4,12(r16)
 100b668:	80c00415 	stw	r3,16(r16)
 100b66c:	80c00015 	stw	r3,0(r16)
 100b670:	003faa06 	br	100b51c <__smakebuf_r+0x3c>

0100b674 <memchr>:
 100b674:	008000c4 	movi	r2,3
 100b678:	29403fcc 	andi	r5,r5,255
 100b67c:	2007883a 	mov	r3,r4
 100b680:	1180022e 	bgeu	r2,r6,100b68c <memchr+0x18>
 100b684:	2084703a 	and	r2,r4,r2
 100b688:	10000b26 	beq	r2,zero,100b6b8 <memchr+0x44>
 100b68c:	313fffc4 	addi	r4,r6,-1
 100b690:	3000051e 	bne	r6,zero,100b6a8 <memchr+0x34>
 100b694:	00002c06 	br	100b748 <memchr+0xd4>
 100b698:	213fffc4 	addi	r4,r4,-1
 100b69c:	00bfffc4 	movi	r2,-1
 100b6a0:	18c00044 	addi	r3,r3,1
 100b6a4:	20802826 	beq	r4,r2,100b748 <memchr+0xd4>
 100b6a8:	18800003 	ldbu	r2,0(r3)
 100b6ac:	28bffa1e 	bne	r5,r2,100b698 <memchr+0x24>
 100b6b0:	1805883a 	mov	r2,r3
 100b6b4:	f800283a 	ret
 100b6b8:	0011883a 	mov	r8,zero
 100b6bc:	0007883a 	mov	r3,zero
 100b6c0:	01c00104 	movi	r7,4
 100b6c4:	4004923a 	slli	r2,r8,8
 100b6c8:	18c00044 	addi	r3,r3,1
 100b6cc:	1151883a 	add	r8,r2,r5
 100b6d0:	19fffc1e 	bne	r3,r7,100b6c4 <memchr+0x50>
 100b6d4:	02bfbff4 	movhi	r10,65279
 100b6d8:	52bfbfc4 	addi	r10,r10,-257
 100b6dc:	02602074 	movhi	r9,32897
 100b6e0:	4a602004 	addi	r9,r9,-32640
 100b6e4:	02c000c4 	movi	r11,3
 100b6e8:	20800017 	ldw	r2,0(r4)
 100b6ec:	31bfff04 	addi	r6,r6,-4
 100b6f0:	200f883a 	mov	r7,r4
 100b6f4:	1204f03a 	xor	r2,r2,r8
 100b6f8:	1287883a 	add	r3,r2,r10
 100b6fc:	1a46703a 	and	r3,r3,r9
 100b700:	0084303a 	nor	r2,zero,r2
 100b704:	10c4703a 	and	r2,r2,r3
 100b708:	10000b26 	beq	r2,zero,100b738 <memchr+0xc4>
 100b70c:	20800003 	ldbu	r2,0(r4)
 100b710:	28800f26 	beq	r5,r2,100b750 <memchr+0xdc>
 100b714:	20800043 	ldbu	r2,1(r4)
 100b718:	21c00044 	addi	r7,r4,1
 100b71c:	28800c26 	beq	r5,r2,100b750 <memchr+0xdc>
 100b720:	20800083 	ldbu	r2,2(r4)
 100b724:	21c00084 	addi	r7,r4,2
 100b728:	28800926 	beq	r5,r2,100b750 <memchr+0xdc>
 100b72c:	208000c3 	ldbu	r2,3(r4)
 100b730:	21c000c4 	addi	r7,r4,3
 100b734:	28800626 	beq	r5,r2,100b750 <memchr+0xdc>
 100b738:	21000104 	addi	r4,r4,4
 100b73c:	59bfea36 	bltu	r11,r6,100b6e8 <memchr+0x74>
 100b740:	2007883a 	mov	r3,r4
 100b744:	003fd106 	br	100b68c <memchr+0x18>
 100b748:	0005883a 	mov	r2,zero
 100b74c:	f800283a 	ret
 100b750:	3805883a 	mov	r2,r7
 100b754:	f800283a 	ret

0100b758 <memcpy>:
 100b758:	01c003c4 	movi	r7,15
 100b75c:	2007883a 	mov	r3,r4
 100b760:	3980032e 	bgeu	r7,r6,100b770 <memcpy+0x18>
 100b764:	2904b03a 	or	r2,r5,r4
 100b768:	108000cc 	andi	r2,r2,3
 100b76c:	10000926 	beq	r2,zero,100b794 <memcpy+0x3c>
 100b770:	30000626 	beq	r6,zero,100b78c <memcpy+0x34>
 100b774:	30cd883a 	add	r6,r6,r3
 100b778:	28800003 	ldbu	r2,0(r5)
 100b77c:	29400044 	addi	r5,r5,1
 100b780:	18800005 	stb	r2,0(r3)
 100b784:	18c00044 	addi	r3,r3,1
 100b788:	30fffb1e 	bne	r6,r3,100b778 <memcpy+0x20>
 100b78c:	2005883a 	mov	r2,r4
 100b790:	f800283a 	ret
 100b794:	3811883a 	mov	r8,r7
 100b798:	200f883a 	mov	r7,r4
 100b79c:	28c00017 	ldw	r3,0(r5)
 100b7a0:	31bffc04 	addi	r6,r6,-16
 100b7a4:	38c00015 	stw	r3,0(r7)
 100b7a8:	28800117 	ldw	r2,4(r5)
 100b7ac:	38800115 	stw	r2,4(r7)
 100b7b0:	28c00217 	ldw	r3,8(r5)
 100b7b4:	38c00215 	stw	r3,8(r7)
 100b7b8:	28800317 	ldw	r2,12(r5)
 100b7bc:	29400404 	addi	r5,r5,16
 100b7c0:	38800315 	stw	r2,12(r7)
 100b7c4:	39c00404 	addi	r7,r7,16
 100b7c8:	41bff436 	bltu	r8,r6,100b79c <memcpy+0x44>
 100b7cc:	008000c4 	movi	r2,3
 100b7d0:	1180072e 	bgeu	r2,r6,100b7f0 <memcpy+0x98>
 100b7d4:	1007883a 	mov	r3,r2
 100b7d8:	28800017 	ldw	r2,0(r5)
 100b7dc:	31bfff04 	addi	r6,r6,-4
 100b7e0:	29400104 	addi	r5,r5,4
 100b7e4:	38800015 	stw	r2,0(r7)
 100b7e8:	39c00104 	addi	r7,r7,4
 100b7ec:	19bffa36 	bltu	r3,r6,100b7d8 <memcpy+0x80>
 100b7f0:	3807883a 	mov	r3,r7
 100b7f4:	003fde06 	br	100b770 <memcpy+0x18>

0100b7f8 <memmove>:
 100b7f8:	2807883a 	mov	r3,r5
 100b7fc:	2011883a 	mov	r8,r4
 100b800:	29000c2e 	bgeu	r5,r4,100b834 <memmove+0x3c>
 100b804:	298f883a 	add	r7,r5,r6
 100b808:	21c00a2e 	bgeu	r4,r7,100b834 <memmove+0x3c>
 100b80c:	30000726 	beq	r6,zero,100b82c <memmove+0x34>
 100b810:	2187883a 	add	r3,r4,r6
 100b814:	198dc83a 	sub	r6,r3,r6
 100b818:	39ffffc4 	addi	r7,r7,-1
 100b81c:	38800003 	ldbu	r2,0(r7)
 100b820:	18ffffc4 	addi	r3,r3,-1
 100b824:	18800005 	stb	r2,0(r3)
 100b828:	19bffb1e 	bne	r3,r6,100b818 <memmove+0x20>
 100b82c:	2005883a 	mov	r2,r4
 100b830:	f800283a 	ret
 100b834:	01c003c4 	movi	r7,15
 100b838:	39800a36 	bltu	r7,r6,100b864 <memmove+0x6c>
 100b83c:	303ffb26 	beq	r6,zero,100b82c <memmove+0x34>
 100b840:	400f883a 	mov	r7,r8
 100b844:	320d883a 	add	r6,r6,r8
 100b848:	28800003 	ldbu	r2,0(r5)
 100b84c:	29400044 	addi	r5,r5,1
 100b850:	38800005 	stb	r2,0(r7)
 100b854:	39c00044 	addi	r7,r7,1
 100b858:	39bffb1e 	bne	r7,r6,100b848 <memmove+0x50>
 100b85c:	2005883a 	mov	r2,r4
 100b860:	f800283a 	ret
 100b864:	1904b03a 	or	r2,r3,r4
 100b868:	108000cc 	andi	r2,r2,3
 100b86c:	103ff31e 	bne	r2,zero,100b83c <memmove+0x44>
 100b870:	3811883a 	mov	r8,r7
 100b874:	180b883a 	mov	r5,r3
 100b878:	200f883a 	mov	r7,r4
 100b87c:	28c00017 	ldw	r3,0(r5)
 100b880:	31bffc04 	addi	r6,r6,-16
 100b884:	38c00015 	stw	r3,0(r7)
 100b888:	28800117 	ldw	r2,4(r5)
 100b88c:	38800115 	stw	r2,4(r7)
 100b890:	28c00217 	ldw	r3,8(r5)
 100b894:	38c00215 	stw	r3,8(r7)
 100b898:	28800317 	ldw	r2,12(r5)
 100b89c:	29400404 	addi	r5,r5,16
 100b8a0:	38800315 	stw	r2,12(r7)
 100b8a4:	39c00404 	addi	r7,r7,16
 100b8a8:	41bff436 	bltu	r8,r6,100b87c <memmove+0x84>
 100b8ac:	008000c4 	movi	r2,3
 100b8b0:	1180072e 	bgeu	r2,r6,100b8d0 <memmove+0xd8>
 100b8b4:	1007883a 	mov	r3,r2
 100b8b8:	28800017 	ldw	r2,0(r5)
 100b8bc:	31bfff04 	addi	r6,r6,-4
 100b8c0:	29400104 	addi	r5,r5,4
 100b8c4:	38800015 	stw	r2,0(r7)
 100b8c8:	39c00104 	addi	r7,r7,4
 100b8cc:	19bffa36 	bltu	r3,r6,100b8b8 <memmove+0xc0>
 100b8d0:	3811883a 	mov	r8,r7
 100b8d4:	003fd906 	br	100b83c <memmove+0x44>

0100b8d8 <memset>:
 100b8d8:	008000c4 	movi	r2,3
 100b8dc:	29403fcc 	andi	r5,r5,255
 100b8e0:	2007883a 	mov	r3,r4
 100b8e4:	1180022e 	bgeu	r2,r6,100b8f0 <memset+0x18>
 100b8e8:	2084703a 	and	r2,r4,r2
 100b8ec:	10000826 	beq	r2,zero,100b910 <memset+0x38>
 100b8f0:	30000526 	beq	r6,zero,100b908 <memset+0x30>
 100b8f4:	2805883a 	mov	r2,r5
 100b8f8:	30cd883a 	add	r6,r6,r3
 100b8fc:	18800005 	stb	r2,0(r3)
 100b900:	18c00044 	addi	r3,r3,1
 100b904:	19bffd1e 	bne	r3,r6,100b8fc <memset+0x24>
 100b908:	2005883a 	mov	r2,r4
 100b90c:	f800283a 	ret
 100b910:	2804923a 	slli	r2,r5,8
 100b914:	020003c4 	movi	r8,15
 100b918:	200f883a 	mov	r7,r4
 100b91c:	2884b03a 	or	r2,r5,r2
 100b920:	1006943a 	slli	r3,r2,16
 100b924:	10c6b03a 	or	r3,r2,r3
 100b928:	41800a2e 	bgeu	r8,r6,100b954 <memset+0x7c>
 100b92c:	4005883a 	mov	r2,r8
 100b930:	31bffc04 	addi	r6,r6,-16
 100b934:	38c00015 	stw	r3,0(r7)
 100b938:	38c00115 	stw	r3,4(r7)
 100b93c:	38c00215 	stw	r3,8(r7)
 100b940:	38c00315 	stw	r3,12(r7)
 100b944:	39c00404 	addi	r7,r7,16
 100b948:	11bff936 	bltu	r2,r6,100b930 <memset+0x58>
 100b94c:	008000c4 	movi	r2,3
 100b950:	1180052e 	bgeu	r2,r6,100b968 <memset+0x90>
 100b954:	31bfff04 	addi	r6,r6,-4
 100b958:	008000c4 	movi	r2,3
 100b95c:	38c00015 	stw	r3,0(r7)
 100b960:	39c00104 	addi	r7,r7,4
 100b964:	11bffb36 	bltu	r2,r6,100b954 <memset+0x7c>
 100b968:	3807883a 	mov	r3,r7
 100b96c:	003fe006 	br	100b8f0 <memset+0x18>

0100b970 <_Bfree>:
 100b970:	28000826 	beq	r5,zero,100b994 <_Bfree+0x24>
 100b974:	28800117 	ldw	r2,4(r5)
 100b978:	21001317 	ldw	r4,76(r4)
 100b97c:	1085883a 	add	r2,r2,r2
 100b980:	1085883a 	add	r2,r2,r2
 100b984:	1105883a 	add	r2,r2,r4
 100b988:	10c00017 	ldw	r3,0(r2)
 100b98c:	28c00015 	stw	r3,0(r5)
 100b990:	11400015 	stw	r5,0(r2)
 100b994:	f800283a 	ret

0100b998 <__hi0bits>:
 100b998:	20bfffec 	andhi	r2,r4,65535
 100b99c:	10001426 	beq	r2,zero,100b9f0 <__hi0bits+0x58>
 100b9a0:	0007883a 	mov	r3,zero
 100b9a4:	20bfc02c 	andhi	r2,r4,65280
 100b9a8:	1000021e 	bne	r2,zero,100b9b4 <__hi0bits+0x1c>
 100b9ac:	2008923a 	slli	r4,r4,8
 100b9b0:	18c00204 	addi	r3,r3,8
 100b9b4:	20bc002c 	andhi	r2,r4,61440
 100b9b8:	1000021e 	bne	r2,zero,100b9c4 <__hi0bits+0x2c>
 100b9bc:	2008913a 	slli	r4,r4,4
 100b9c0:	18c00104 	addi	r3,r3,4
 100b9c4:	20b0002c 	andhi	r2,r4,49152
 100b9c8:	1000031e 	bne	r2,zero,100b9d8 <__hi0bits+0x40>
 100b9cc:	2105883a 	add	r2,r4,r4
 100b9d0:	18c00084 	addi	r3,r3,2
 100b9d4:	1089883a 	add	r4,r2,r2
 100b9d8:	20000316 	blt	r4,zero,100b9e8 <__hi0bits+0x50>
 100b9dc:	2090002c 	andhi	r2,r4,16384
 100b9e0:	10000626 	beq	r2,zero,100b9fc <__hi0bits+0x64>
 100b9e4:	18c00044 	addi	r3,r3,1
 100b9e8:	1805883a 	mov	r2,r3
 100b9ec:	f800283a 	ret
 100b9f0:	2008943a 	slli	r4,r4,16
 100b9f4:	00c00404 	movi	r3,16
 100b9f8:	003fea06 	br	100b9a4 <__hi0bits+0xc>
 100b9fc:	00c00804 	movi	r3,32
 100ba00:	1805883a 	mov	r2,r3
 100ba04:	f800283a 	ret

0100ba08 <__lo0bits>:
 100ba08:	20c00017 	ldw	r3,0(r4)
 100ba0c:	188001cc 	andi	r2,r3,7
 100ba10:	10000a26 	beq	r2,zero,100ba3c <__lo0bits+0x34>
 100ba14:	1880004c 	andi	r2,r3,1
 100ba18:	1005003a 	cmpeq	r2,r2,zero
 100ba1c:	10002126 	beq	r2,zero,100baa4 <__lo0bits+0x9c>
 100ba20:	1880008c 	andi	r2,r3,2
 100ba24:	1000251e 	bne	r2,zero,100babc <__lo0bits+0xb4>
 100ba28:	1804d0ba 	srli	r2,r3,2
 100ba2c:	01400084 	movi	r5,2
 100ba30:	20800015 	stw	r2,0(r4)
 100ba34:	2805883a 	mov	r2,r5
 100ba38:	f800283a 	ret
 100ba3c:	18bfffcc 	andi	r2,r3,65535
 100ba40:	10001526 	beq	r2,zero,100ba98 <__lo0bits+0x90>
 100ba44:	000b883a 	mov	r5,zero
 100ba48:	18803fcc 	andi	r2,r3,255
 100ba4c:	1000021e 	bne	r2,zero,100ba58 <__lo0bits+0x50>
 100ba50:	1806d23a 	srli	r3,r3,8
 100ba54:	29400204 	addi	r5,r5,8
 100ba58:	188003cc 	andi	r2,r3,15
 100ba5c:	1000021e 	bne	r2,zero,100ba68 <__lo0bits+0x60>
 100ba60:	1806d13a 	srli	r3,r3,4
 100ba64:	29400104 	addi	r5,r5,4
 100ba68:	188000cc 	andi	r2,r3,3
 100ba6c:	1000021e 	bne	r2,zero,100ba78 <__lo0bits+0x70>
 100ba70:	1806d0ba 	srli	r3,r3,2
 100ba74:	29400084 	addi	r5,r5,2
 100ba78:	1880004c 	andi	r2,r3,1
 100ba7c:	1000031e 	bne	r2,zero,100ba8c <__lo0bits+0x84>
 100ba80:	1806d07a 	srli	r3,r3,1
 100ba84:	18000a26 	beq	r3,zero,100bab0 <__lo0bits+0xa8>
 100ba88:	29400044 	addi	r5,r5,1
 100ba8c:	2805883a 	mov	r2,r5
 100ba90:	20c00015 	stw	r3,0(r4)
 100ba94:	f800283a 	ret
 100ba98:	1806d43a 	srli	r3,r3,16
 100ba9c:	01400404 	movi	r5,16
 100baa0:	003fe906 	br	100ba48 <__lo0bits+0x40>
 100baa4:	000b883a 	mov	r5,zero
 100baa8:	2805883a 	mov	r2,r5
 100baac:	f800283a 	ret
 100bab0:	01400804 	movi	r5,32
 100bab4:	2805883a 	mov	r2,r5
 100bab8:	f800283a 	ret
 100babc:	1804d07a 	srli	r2,r3,1
 100bac0:	01400044 	movi	r5,1
 100bac4:	20800015 	stw	r2,0(r4)
 100bac8:	003fda06 	br	100ba34 <__lo0bits+0x2c>

0100bacc <__mcmp>:
 100bacc:	20800417 	ldw	r2,16(r4)
 100bad0:	28c00417 	ldw	r3,16(r5)
 100bad4:	10cfc83a 	sub	r7,r2,r3
 100bad8:	38000c1e 	bne	r7,zero,100bb0c <__mcmp+0x40>
 100badc:	18c5883a 	add	r2,r3,r3
 100bae0:	1085883a 	add	r2,r2,r2
 100bae4:	10c00504 	addi	r3,r2,20
 100bae8:	21000504 	addi	r4,r4,20
 100baec:	28cb883a 	add	r5,r5,r3
 100baf0:	2085883a 	add	r2,r4,r2
 100baf4:	10bfff04 	addi	r2,r2,-4
 100baf8:	297fff04 	addi	r5,r5,-4
 100bafc:	11800017 	ldw	r6,0(r2)
 100bb00:	28c00017 	ldw	r3,0(r5)
 100bb04:	30c0031e 	bne	r6,r3,100bb14 <__mcmp+0x48>
 100bb08:	20bffa36 	bltu	r4,r2,100baf4 <__mcmp+0x28>
 100bb0c:	3805883a 	mov	r2,r7
 100bb10:	f800283a 	ret
 100bb14:	30c00336 	bltu	r6,r3,100bb24 <__mcmp+0x58>
 100bb18:	01c00044 	movi	r7,1
 100bb1c:	3805883a 	mov	r2,r7
 100bb20:	f800283a 	ret
 100bb24:	01ffffc4 	movi	r7,-1
 100bb28:	003ff806 	br	100bb0c <__mcmp+0x40>

0100bb2c <__ulp>:
 100bb2c:	295ffc2c 	andhi	r5,r5,32752
 100bb30:	013f3034 	movhi	r4,64704
 100bb34:	290b883a 	add	r5,r5,r4
 100bb38:	0145c83a 	sub	r2,zero,r5
 100bb3c:	1007d53a 	srai	r3,r2,20
 100bb40:	000d883a 	mov	r6,zero
 100bb44:	0140040e 	bge	zero,r5,100bb58 <__ulp+0x2c>
 100bb48:	280f883a 	mov	r7,r5
 100bb4c:	3807883a 	mov	r3,r7
 100bb50:	3005883a 	mov	r2,r6
 100bb54:	f800283a 	ret
 100bb58:	008004c4 	movi	r2,19
 100bb5c:	193ffb04 	addi	r4,r3,-20
 100bb60:	10c00c0e 	bge	r2,r3,100bb94 <__ulp+0x68>
 100bb64:	008007c4 	movi	r2,31
 100bb68:	1107c83a 	sub	r3,r2,r4
 100bb6c:	00800784 	movi	r2,30
 100bb70:	01400044 	movi	r5,1
 100bb74:	11000216 	blt	r2,r4,100bb80 <__ulp+0x54>
 100bb78:	00800044 	movi	r2,1
 100bb7c:	10ca983a 	sll	r5,r2,r3
 100bb80:	000f883a 	mov	r7,zero
 100bb84:	280d883a 	mov	r6,r5
 100bb88:	3807883a 	mov	r3,r7
 100bb8c:	3005883a 	mov	r2,r6
 100bb90:	f800283a 	ret
 100bb94:	00800234 	movhi	r2,8
 100bb98:	10cfd83a 	sra	r7,r2,r3
 100bb9c:	000d883a 	mov	r6,zero
 100bba0:	3005883a 	mov	r2,r6
 100bba4:	3807883a 	mov	r3,r7
 100bba8:	f800283a 	ret

0100bbac <__b2d>:
 100bbac:	20800417 	ldw	r2,16(r4)
 100bbb0:	defff904 	addi	sp,sp,-28
 100bbb4:	dd000415 	stw	r20,16(sp)
 100bbb8:	1085883a 	add	r2,r2,r2
 100bbbc:	25000504 	addi	r20,r4,20
 100bbc0:	1085883a 	add	r2,r2,r2
 100bbc4:	dc000015 	stw	r16,0(sp)
 100bbc8:	a0a1883a 	add	r16,r20,r2
 100bbcc:	dd400515 	stw	r21,20(sp)
 100bbd0:	857fff17 	ldw	r21,-4(r16)
 100bbd4:	dc400115 	stw	r17,4(sp)
 100bbd8:	dfc00615 	stw	ra,24(sp)
 100bbdc:	a809883a 	mov	r4,r21
 100bbe0:	2823883a 	mov	r17,r5
 100bbe4:	dcc00315 	stw	r19,12(sp)
 100bbe8:	dc800215 	stw	r18,8(sp)
 100bbec:	100b9980 	call	100b998 <__hi0bits>
 100bbf0:	100b883a 	mov	r5,r2
 100bbf4:	00800804 	movi	r2,32
 100bbf8:	1145c83a 	sub	r2,r2,r5
 100bbfc:	88800015 	stw	r2,0(r17)
 100bc00:	00800284 	movi	r2,10
 100bc04:	80ffff04 	addi	r3,r16,-4
 100bc08:	11401416 	blt	r2,r5,100bc5c <__b2d+0xb0>
 100bc0c:	008002c4 	movi	r2,11
 100bc10:	1149c83a 	sub	r4,r2,r5
 100bc14:	a0c02736 	bltu	r20,r3,100bcb4 <__b2d+0x108>
 100bc18:	000d883a 	mov	r6,zero
 100bc1c:	28800544 	addi	r2,r5,21
 100bc20:	a906d83a 	srl	r3,r21,r4
 100bc24:	a884983a 	sll	r2,r21,r2
 100bc28:	1ccffc34 	orhi	r19,r3,16368
 100bc2c:	11a4b03a 	or	r18,r2,r6
 100bc30:	9005883a 	mov	r2,r18
 100bc34:	9807883a 	mov	r3,r19
 100bc38:	dfc00617 	ldw	ra,24(sp)
 100bc3c:	dd400517 	ldw	r21,20(sp)
 100bc40:	dd000417 	ldw	r20,16(sp)
 100bc44:	dcc00317 	ldw	r19,12(sp)
 100bc48:	dc800217 	ldw	r18,8(sp)
 100bc4c:	dc400117 	ldw	r17,4(sp)
 100bc50:	dc000017 	ldw	r16,0(sp)
 100bc54:	dec00704 	addi	sp,sp,28
 100bc58:	f800283a 	ret
 100bc5c:	a0c00e36 	bltu	r20,r3,100bc98 <__b2d+0xec>
 100bc60:	293ffd44 	addi	r4,r5,-11
 100bc64:	000d883a 	mov	r6,zero
 100bc68:	20000f26 	beq	r4,zero,100bca8 <__b2d+0xfc>
 100bc6c:	00800804 	movi	r2,32
 100bc70:	110bc83a 	sub	r5,r2,r4
 100bc74:	a0c01236 	bltu	r20,r3,100bcc0 <__b2d+0x114>
 100bc78:	000f883a 	mov	r7,zero
 100bc7c:	a904983a 	sll	r2,r21,r4
 100bc80:	3146d83a 	srl	r3,r6,r5
 100bc84:	3108983a 	sll	r4,r6,r4
 100bc88:	108ffc34 	orhi	r2,r2,16368
 100bc8c:	18a6b03a 	or	r19,r3,r2
 100bc90:	3924b03a 	or	r18,r7,r4
 100bc94:	003fe606 	br	100bc30 <__b2d+0x84>
 100bc98:	293ffd44 	addi	r4,r5,-11
 100bc9c:	81bffe17 	ldw	r6,-8(r16)
 100bca0:	80fffe04 	addi	r3,r16,-8
 100bca4:	203ff11e 	bne	r4,zero,100bc6c <__b2d+0xc0>
 100bca8:	accffc34 	orhi	r19,r21,16368
 100bcac:	3025883a 	mov	r18,r6
 100bcb0:	003fdf06 	br	100bc30 <__b2d+0x84>
 100bcb4:	18bfff17 	ldw	r2,-4(r3)
 100bcb8:	110cd83a 	srl	r6,r2,r4
 100bcbc:	003fd706 	br	100bc1c <__b2d+0x70>
 100bcc0:	18bfff17 	ldw	r2,-4(r3)
 100bcc4:	114ed83a 	srl	r7,r2,r5
 100bcc8:	003fec06 	br	100bc7c <__b2d+0xd0>

0100bccc <__ratio>:
 100bccc:	defff904 	addi	sp,sp,-28
 100bcd0:	dc400215 	stw	r17,8(sp)
 100bcd4:	2823883a 	mov	r17,r5
 100bcd8:	d80b883a 	mov	r5,sp
 100bcdc:	dfc00615 	stw	ra,24(sp)
 100bce0:	dd000515 	stw	r20,20(sp)
 100bce4:	dcc00415 	stw	r19,16(sp)
 100bce8:	dc800315 	stw	r18,12(sp)
 100bcec:	2025883a 	mov	r18,r4
 100bcf0:	100bbac0 	call	100bbac <__b2d>
 100bcf4:	8809883a 	mov	r4,r17
 100bcf8:	d9400104 	addi	r5,sp,4
 100bcfc:	1027883a 	mov	r19,r2
 100bd00:	1829883a 	mov	r20,r3
 100bd04:	100bbac0 	call	100bbac <__b2d>
 100bd08:	89000417 	ldw	r4,16(r17)
 100bd0c:	91c00417 	ldw	r7,16(r18)
 100bd10:	d9800117 	ldw	r6,4(sp)
 100bd14:	180b883a 	mov	r5,r3
 100bd18:	390fc83a 	sub	r7,r7,r4
 100bd1c:	1009883a 	mov	r4,r2
 100bd20:	d8800017 	ldw	r2,0(sp)
 100bd24:	380e917a 	slli	r7,r7,5
 100bd28:	2011883a 	mov	r8,r4
 100bd2c:	1185c83a 	sub	r2,r2,r6
 100bd30:	11c5883a 	add	r2,r2,r7
 100bd34:	1006953a 	slli	r3,r2,20
 100bd38:	2813883a 	mov	r9,r5
 100bd3c:	00800d0e 	bge	zero,r2,100bd74 <__ratio+0xa8>
 100bd40:	1d29883a 	add	r20,r3,r20
 100bd44:	a00b883a 	mov	r5,r20
 100bd48:	480f883a 	mov	r7,r9
 100bd4c:	9809883a 	mov	r4,r19
 100bd50:	400d883a 	mov	r6,r8
 100bd54:	10052400 	call	1005240 <__divdf3>
 100bd58:	dfc00617 	ldw	ra,24(sp)
 100bd5c:	dd000517 	ldw	r20,20(sp)
 100bd60:	dcc00417 	ldw	r19,16(sp)
 100bd64:	dc800317 	ldw	r18,12(sp)
 100bd68:	dc400217 	ldw	r17,8(sp)
 100bd6c:	dec00704 	addi	sp,sp,28
 100bd70:	f800283a 	ret
 100bd74:	28d3c83a 	sub	r9,r5,r3
 100bd78:	003ff206 	br	100bd44 <__ratio+0x78>

0100bd7c <_mprec_log10>:
 100bd7c:	defffe04 	addi	sp,sp,-8
 100bd80:	008005c4 	movi	r2,23
 100bd84:	dc000015 	stw	r16,0(sp)
 100bd88:	dfc00115 	stw	ra,4(sp)
 100bd8c:	2021883a 	mov	r16,r4
 100bd90:	11000c16 	blt	r2,r4,100bdc4 <_mprec_log10+0x48>
 100bd94:	200490fa 	slli	r2,r4,3
 100bd98:	00c04134 	movhi	r3,260
 100bd9c:	18da3504 	addi	r3,r3,26836
 100bda0:	10c5883a 	add	r2,r2,r3
 100bda4:	12400117 	ldw	r9,4(r2)
 100bda8:	12000017 	ldw	r8,0(r2)
 100bdac:	4807883a 	mov	r3,r9
 100bdb0:	4005883a 	mov	r2,r8
 100bdb4:	dfc00117 	ldw	ra,4(sp)
 100bdb8:	dc000017 	ldw	r16,0(sp)
 100bdbc:	dec00204 	addi	sp,sp,8
 100bdc0:	f800283a 	ret
 100bdc4:	0011883a 	mov	r8,zero
 100bdc8:	024ffc34 	movhi	r9,16368
 100bdcc:	0005883a 	mov	r2,zero
 100bdd0:	00d00934 	movhi	r3,16420
 100bdd4:	480b883a 	mov	r5,r9
 100bdd8:	4009883a 	mov	r4,r8
 100bddc:	180f883a 	mov	r7,r3
 100bde0:	100d883a 	mov	r6,r2
 100bde4:	1004e7c0 	call	1004e7c <__muldf3>
 100bde8:	843fffc4 	addi	r16,r16,-1
 100bdec:	1011883a 	mov	r8,r2
 100bdf0:	1813883a 	mov	r9,r3
 100bdf4:	803ff51e 	bne	r16,zero,100bdcc <_mprec_log10+0x50>
 100bdf8:	4005883a 	mov	r2,r8
 100bdfc:	4807883a 	mov	r3,r9
 100be00:	dfc00117 	ldw	ra,4(sp)
 100be04:	dc000017 	ldw	r16,0(sp)
 100be08:	dec00204 	addi	sp,sp,8
 100be0c:	f800283a 	ret

0100be10 <__copybits>:
 100be10:	297fffc4 	addi	r5,r5,-1
 100be14:	30800417 	ldw	r2,16(r6)
 100be18:	280bd17a 	srai	r5,r5,5
 100be1c:	31800504 	addi	r6,r6,20
 100be20:	1085883a 	add	r2,r2,r2
 100be24:	294b883a 	add	r5,r5,r5
 100be28:	294b883a 	add	r5,r5,r5
 100be2c:	1085883a 	add	r2,r2,r2
 100be30:	290b883a 	add	r5,r5,r4
 100be34:	3087883a 	add	r3,r6,r2
 100be38:	29400104 	addi	r5,r5,4
 100be3c:	30c0052e 	bgeu	r6,r3,100be54 <__copybits+0x44>
 100be40:	30800017 	ldw	r2,0(r6)
 100be44:	31800104 	addi	r6,r6,4
 100be48:	20800015 	stw	r2,0(r4)
 100be4c:	21000104 	addi	r4,r4,4
 100be50:	30fffb36 	bltu	r6,r3,100be40 <__copybits+0x30>
 100be54:	2140032e 	bgeu	r4,r5,100be64 <__copybits+0x54>
 100be58:	20000015 	stw	zero,0(r4)
 100be5c:	21000104 	addi	r4,r4,4
 100be60:	217ffd36 	bltu	r4,r5,100be58 <__copybits+0x48>
 100be64:	f800283a 	ret

0100be68 <__any_on>:
 100be68:	20800417 	ldw	r2,16(r4)
 100be6c:	2807d17a 	srai	r3,r5,5
 100be70:	21000504 	addi	r4,r4,20
 100be74:	10c00d0e 	bge	r2,r3,100beac <__any_on+0x44>
 100be78:	1085883a 	add	r2,r2,r2
 100be7c:	1085883a 	add	r2,r2,r2
 100be80:	208d883a 	add	r6,r4,r2
 100be84:	2180182e 	bgeu	r4,r6,100bee8 <__any_on+0x80>
 100be88:	30bfff17 	ldw	r2,-4(r6)
 100be8c:	30ffff04 	addi	r3,r6,-4
 100be90:	1000041e 	bne	r2,zero,100bea4 <__any_on+0x3c>
 100be94:	20c0142e 	bgeu	r4,r3,100bee8 <__any_on+0x80>
 100be98:	18ffff04 	addi	r3,r3,-4
 100be9c:	18800017 	ldw	r2,0(r3)
 100bea0:	103ffc26 	beq	r2,zero,100be94 <__any_on+0x2c>
 100bea4:	00800044 	movi	r2,1
 100bea8:	f800283a 	ret
 100beac:	18800a0e 	bge	r3,r2,100bed8 <__any_on+0x70>
 100beb0:	294007cc 	andi	r5,r5,31
 100beb4:	28000826 	beq	r5,zero,100bed8 <__any_on+0x70>
 100beb8:	18c5883a 	add	r2,r3,r3
 100bebc:	1085883a 	add	r2,r2,r2
 100bec0:	208d883a 	add	r6,r4,r2
 100bec4:	30c00017 	ldw	r3,0(r6)
 100bec8:	1944d83a 	srl	r2,r3,r5
 100becc:	1144983a 	sll	r2,r2,r5
 100bed0:	18bff41e 	bne	r3,r2,100bea4 <__any_on+0x3c>
 100bed4:	003feb06 	br	100be84 <__any_on+0x1c>
 100bed8:	18c5883a 	add	r2,r3,r3
 100bedc:	1085883a 	add	r2,r2,r2
 100bee0:	208d883a 	add	r6,r4,r2
 100bee4:	003fe706 	br	100be84 <__any_on+0x1c>
 100bee8:	0005883a 	mov	r2,zero
 100beec:	f800283a 	ret

0100bef0 <_Balloc>:
 100bef0:	20c01317 	ldw	r3,76(r4)
 100bef4:	defffb04 	addi	sp,sp,-20
 100bef8:	dcc00315 	stw	r19,12(sp)
 100befc:	dc800215 	stw	r18,8(sp)
 100bf00:	dfc00415 	stw	ra,16(sp)
 100bf04:	2825883a 	mov	r18,r5
 100bf08:	dc400115 	stw	r17,4(sp)
 100bf0c:	dc000015 	stw	r16,0(sp)
 100bf10:	2027883a 	mov	r19,r4
 100bf14:	01800404 	movi	r6,16
 100bf18:	01400104 	movi	r5,4
 100bf1c:	18001726 	beq	r3,zero,100bf7c <_Balloc+0x8c>
 100bf20:	01400044 	movi	r5,1
 100bf24:	9485883a 	add	r2,r18,r18
 100bf28:	2ca2983a 	sll	r17,r5,r18
 100bf2c:	1085883a 	add	r2,r2,r2
 100bf30:	10c7883a 	add	r3,r2,r3
 100bf34:	1c000017 	ldw	r16,0(r3)
 100bf38:	8c4d883a 	add	r6,r17,r17
 100bf3c:	318d883a 	add	r6,r6,r6
 100bf40:	9809883a 	mov	r4,r19
 100bf44:	31800504 	addi	r6,r6,20
 100bf48:	80001226 	beq	r16,zero,100bf94 <_Balloc+0xa4>
 100bf4c:	80800017 	ldw	r2,0(r16)
 100bf50:	18800015 	stw	r2,0(r3)
 100bf54:	80000415 	stw	zero,16(r16)
 100bf58:	80000315 	stw	zero,12(r16)
 100bf5c:	8005883a 	mov	r2,r16
 100bf60:	dfc00417 	ldw	ra,16(sp)
 100bf64:	dcc00317 	ldw	r19,12(sp)
 100bf68:	dc800217 	ldw	r18,8(sp)
 100bf6c:	dc400117 	ldw	r17,4(sp)
 100bf70:	dc000017 	ldw	r16,0(sp)
 100bf74:	dec00504 	addi	sp,sp,20
 100bf78:	f800283a 	ret
 100bf7c:	100d2e00 	call	100d2e0 <_calloc_r>
 100bf80:	1007883a 	mov	r3,r2
 100bf84:	0021883a 	mov	r16,zero
 100bf88:	98801315 	stw	r2,76(r19)
 100bf8c:	103fe41e 	bne	r2,zero,100bf20 <_Balloc+0x30>
 100bf90:	003ff206 	br	100bf5c <_Balloc+0x6c>
 100bf94:	100d2e00 	call	100d2e0 <_calloc_r>
 100bf98:	103ff026 	beq	r2,zero,100bf5c <_Balloc+0x6c>
 100bf9c:	1021883a 	mov	r16,r2
 100bfa0:	14800115 	stw	r18,4(r2)
 100bfa4:	14400215 	stw	r17,8(r2)
 100bfa8:	003fea06 	br	100bf54 <_Balloc+0x64>

0100bfac <__d2b>:
 100bfac:	defff504 	addi	sp,sp,-44
 100bfb0:	dcc00515 	stw	r19,20(sp)
 100bfb4:	04c00044 	movi	r19,1
 100bfb8:	dc000215 	stw	r16,8(sp)
 100bfbc:	2821883a 	mov	r16,r5
 100bfc0:	980b883a 	mov	r5,r19
 100bfc4:	ddc00915 	stw	r23,36(sp)
 100bfc8:	dd800815 	stw	r22,32(sp)
 100bfcc:	dd400715 	stw	r21,28(sp)
 100bfd0:	dd000615 	stw	r20,24(sp)
 100bfd4:	dc800415 	stw	r18,16(sp)
 100bfd8:	dc400315 	stw	r17,12(sp)
 100bfdc:	dfc00a15 	stw	ra,40(sp)
 100bfe0:	3023883a 	mov	r17,r6
 100bfe4:	382d883a 	mov	r22,r7
 100bfe8:	ddc00b17 	ldw	r23,44(sp)
 100bfec:	100bef00 	call	100bef0 <_Balloc>
 100bff0:	1025883a 	mov	r18,r2
 100bff4:	00a00034 	movhi	r2,32768
 100bff8:	10bfffc4 	addi	r2,r2,-1
 100bffc:	8888703a 	and	r4,r17,r2
 100c000:	202ad53a 	srli	r21,r4,20
 100c004:	00800434 	movhi	r2,16
 100c008:	10bfffc4 	addi	r2,r2,-1
 100c00c:	8886703a 	and	r3,r17,r2
 100c010:	a829003a 	cmpeq	r20,r21,zero
 100c014:	800b883a 	mov	r5,r16
 100c018:	d8c00115 	stw	r3,4(sp)
 100c01c:	94000504 	addi	r16,r18,20
 100c020:	a000021e 	bne	r20,zero,100c02c <__d2b+0x80>
 100c024:	18c00434 	orhi	r3,r3,16
 100c028:	d8c00115 	stw	r3,4(sp)
 100c02c:	28002726 	beq	r5,zero,100c0cc <__d2b+0x120>
 100c030:	d809883a 	mov	r4,sp
 100c034:	d9400015 	stw	r5,0(sp)
 100c038:	100ba080 	call	100ba08 <__lo0bits>
 100c03c:	100d883a 	mov	r6,r2
 100c040:	10003526 	beq	r2,zero,100c118 <__d2b+0x16c>
 100c044:	d8c00117 	ldw	r3,4(sp)
 100c048:	00800804 	movi	r2,32
 100c04c:	1185c83a 	sub	r2,r2,r6
 100c050:	d9000017 	ldw	r4,0(sp)
 100c054:	1886983a 	sll	r3,r3,r2
 100c058:	1906b03a 	or	r3,r3,r4
 100c05c:	90c00515 	stw	r3,20(r18)
 100c060:	d8c00117 	ldw	r3,4(sp)
 100c064:	1986d83a 	srl	r3,r3,r6
 100c068:	d8c00115 	stw	r3,4(sp)
 100c06c:	180b003a 	cmpeq	r5,r3,zero
 100c070:	00800084 	movi	r2,2
 100c074:	114bc83a 	sub	r5,r2,r5
 100c078:	80c00115 	stw	r3,4(r16)
 100c07c:	91400415 	stw	r5,16(r18)
 100c080:	a0001a1e 	bne	r20,zero,100c0ec <__d2b+0x140>
 100c084:	3545883a 	add	r2,r6,r21
 100c088:	10bef344 	addi	r2,r2,-1075
 100c08c:	00c00d44 	movi	r3,53
 100c090:	b0800015 	stw	r2,0(r22)
 100c094:	1987c83a 	sub	r3,r3,r6
 100c098:	b8c00015 	stw	r3,0(r23)
 100c09c:	9005883a 	mov	r2,r18
 100c0a0:	dfc00a17 	ldw	ra,40(sp)
 100c0a4:	ddc00917 	ldw	r23,36(sp)
 100c0a8:	dd800817 	ldw	r22,32(sp)
 100c0ac:	dd400717 	ldw	r21,28(sp)
 100c0b0:	dd000617 	ldw	r20,24(sp)
 100c0b4:	dcc00517 	ldw	r19,20(sp)
 100c0b8:	dc800417 	ldw	r18,16(sp)
 100c0bc:	dc400317 	ldw	r17,12(sp)
 100c0c0:	dc000217 	ldw	r16,8(sp)
 100c0c4:	dec00b04 	addi	sp,sp,44
 100c0c8:	f800283a 	ret
 100c0cc:	d9000104 	addi	r4,sp,4
 100c0d0:	100ba080 	call	100ba08 <__lo0bits>
 100c0d4:	11800804 	addi	r6,r2,32
 100c0d8:	d8800117 	ldw	r2,4(sp)
 100c0dc:	94c00415 	stw	r19,16(r18)
 100c0e0:	980b883a 	mov	r5,r19
 100c0e4:	90800515 	stw	r2,20(r18)
 100c0e8:	a03fe626 	beq	r20,zero,100c084 <__d2b+0xd8>
 100c0ec:	2945883a 	add	r2,r5,r5
 100c0f0:	1085883a 	add	r2,r2,r2
 100c0f4:	1405883a 	add	r2,r2,r16
 100c0f8:	113fff17 	ldw	r4,-4(r2)
 100c0fc:	30fef384 	addi	r3,r6,-1074
 100c100:	2820917a 	slli	r16,r5,5
 100c104:	b0c00015 	stw	r3,0(r22)
 100c108:	100b9980 	call	100b998 <__hi0bits>
 100c10c:	80a1c83a 	sub	r16,r16,r2
 100c110:	bc000015 	stw	r16,0(r23)
 100c114:	003fe106 	br	100c09c <__d2b+0xf0>
 100c118:	d8800017 	ldw	r2,0(sp)
 100c11c:	90800515 	stw	r2,20(r18)
 100c120:	d8c00117 	ldw	r3,4(sp)
 100c124:	003fd106 	br	100c06c <__d2b+0xc0>

0100c128 <__mdiff>:
 100c128:	defffb04 	addi	sp,sp,-20
 100c12c:	dc000015 	stw	r16,0(sp)
 100c130:	2821883a 	mov	r16,r5
 100c134:	dc800215 	stw	r18,8(sp)
 100c138:	300b883a 	mov	r5,r6
 100c13c:	2025883a 	mov	r18,r4
 100c140:	8009883a 	mov	r4,r16
 100c144:	dc400115 	stw	r17,4(sp)
 100c148:	dfc00415 	stw	ra,16(sp)
 100c14c:	dcc00315 	stw	r19,12(sp)
 100c150:	3023883a 	mov	r17,r6
 100c154:	100bacc0 	call	100bacc <__mcmp>
 100c158:	10004226 	beq	r2,zero,100c264 <__mdiff+0x13c>
 100c15c:	10005016 	blt	r2,zero,100c2a0 <__mdiff+0x178>
 100c160:	0027883a 	mov	r19,zero
 100c164:	81400117 	ldw	r5,4(r16)
 100c168:	9009883a 	mov	r4,r18
 100c16c:	100bef00 	call	100bef0 <_Balloc>
 100c170:	1019883a 	mov	r12,r2
 100c174:	82800417 	ldw	r10,16(r16)
 100c178:	88800417 	ldw	r2,16(r17)
 100c17c:	81800504 	addi	r6,r16,20
 100c180:	5287883a 	add	r3,r10,r10
 100c184:	1085883a 	add	r2,r2,r2
 100c188:	18c7883a 	add	r3,r3,r3
 100c18c:	1085883a 	add	r2,r2,r2
 100c190:	8a000504 	addi	r8,r17,20
 100c194:	64c00315 	stw	r19,12(r12)
 100c198:	30db883a 	add	r13,r6,r3
 100c19c:	4097883a 	add	r11,r8,r2
 100c1a0:	61c00504 	addi	r7,r12,20
 100c1a4:	0013883a 	mov	r9,zero
 100c1a8:	31000017 	ldw	r4,0(r6)
 100c1ac:	41400017 	ldw	r5,0(r8)
 100c1b0:	42000104 	addi	r8,r8,4
 100c1b4:	20bfffcc 	andi	r2,r4,65535
 100c1b8:	28ffffcc 	andi	r3,r5,65535
 100c1bc:	10c5c83a 	sub	r2,r2,r3
 100c1c0:	1245883a 	add	r2,r2,r9
 100c1c4:	2008d43a 	srli	r4,r4,16
 100c1c8:	280ad43a 	srli	r5,r5,16
 100c1cc:	1007d43a 	srai	r3,r2,16
 100c1d0:	3880000d 	sth	r2,0(r7)
 100c1d4:	2149c83a 	sub	r4,r4,r5
 100c1d8:	20c9883a 	add	r4,r4,r3
 100c1dc:	3900008d 	sth	r4,2(r7)
 100c1e0:	31800104 	addi	r6,r6,4
 100c1e4:	39c00104 	addi	r7,r7,4
 100c1e8:	2013d43a 	srai	r9,r4,16
 100c1ec:	42ffee36 	bltu	r8,r11,100c1a8 <__mdiff+0x80>
 100c1f0:	33400c2e 	bgeu	r6,r13,100c224 <__mdiff+0xfc>
 100c1f4:	30800017 	ldw	r2,0(r6)
 100c1f8:	31800104 	addi	r6,r6,4
 100c1fc:	10ffffcc 	andi	r3,r2,65535
 100c200:	1a47883a 	add	r3,r3,r9
 100c204:	1004d43a 	srli	r2,r2,16
 100c208:	1809d43a 	srai	r4,r3,16
 100c20c:	38c0000d 	sth	r3,0(r7)
 100c210:	1105883a 	add	r2,r2,r4
 100c214:	3880008d 	sth	r2,2(r7)
 100c218:	1013d43a 	srai	r9,r2,16
 100c21c:	39c00104 	addi	r7,r7,4
 100c220:	337ff436 	bltu	r6,r13,100c1f4 <__mdiff+0xcc>
 100c224:	38bfff17 	ldw	r2,-4(r7)
 100c228:	38ffff04 	addi	r3,r7,-4
 100c22c:	1000041e 	bne	r2,zero,100c240 <__mdiff+0x118>
 100c230:	18ffff04 	addi	r3,r3,-4
 100c234:	18800017 	ldw	r2,0(r3)
 100c238:	52bfffc4 	addi	r10,r10,-1
 100c23c:	103ffc26 	beq	r2,zero,100c230 <__mdiff+0x108>
 100c240:	6005883a 	mov	r2,r12
 100c244:	62800415 	stw	r10,16(r12)
 100c248:	dfc00417 	ldw	ra,16(sp)
 100c24c:	dcc00317 	ldw	r19,12(sp)
 100c250:	dc800217 	ldw	r18,8(sp)
 100c254:	dc400117 	ldw	r17,4(sp)
 100c258:	dc000017 	ldw	r16,0(sp)
 100c25c:	dec00504 	addi	sp,sp,20
 100c260:	f800283a 	ret
 100c264:	9009883a 	mov	r4,r18
 100c268:	000b883a 	mov	r5,zero
 100c26c:	100bef00 	call	100bef0 <_Balloc>
 100c270:	1019883a 	mov	r12,r2
 100c274:	00800044 	movi	r2,1
 100c278:	60800415 	stw	r2,16(r12)
 100c27c:	6005883a 	mov	r2,r12
 100c280:	60000515 	stw	zero,20(r12)
 100c284:	dfc00417 	ldw	ra,16(sp)
 100c288:	dcc00317 	ldw	r19,12(sp)
 100c28c:	dc800217 	ldw	r18,8(sp)
 100c290:	dc400117 	ldw	r17,4(sp)
 100c294:	dc000017 	ldw	r16,0(sp)
 100c298:	dec00504 	addi	sp,sp,20
 100c29c:	f800283a 	ret
 100c2a0:	880d883a 	mov	r6,r17
 100c2a4:	04c00044 	movi	r19,1
 100c2a8:	8023883a 	mov	r17,r16
 100c2ac:	3021883a 	mov	r16,r6
 100c2b0:	003fac06 	br	100c164 <__mdiff+0x3c>

0100c2b4 <__lshift>:
 100c2b4:	defff904 	addi	sp,sp,-28
 100c2b8:	28800417 	ldw	r2,16(r5)
 100c2bc:	dc000015 	stw	r16,0(sp)
 100c2c0:	3021d17a 	srai	r16,r6,5
 100c2c4:	28c00217 	ldw	r3,8(r5)
 100c2c8:	10800044 	addi	r2,r2,1
 100c2cc:	dc400115 	stw	r17,4(sp)
 100c2d0:	80a3883a 	add	r17,r16,r2
 100c2d4:	dd400515 	stw	r21,20(sp)
 100c2d8:	dd000415 	stw	r20,16(sp)
 100c2dc:	dc800215 	stw	r18,8(sp)
 100c2e0:	dfc00615 	stw	ra,24(sp)
 100c2e4:	2825883a 	mov	r18,r5
 100c2e8:	dcc00315 	stw	r19,12(sp)
 100c2ec:	3029883a 	mov	r20,r6
 100c2f0:	202b883a 	mov	r21,r4
 100c2f4:	29400117 	ldw	r5,4(r5)
 100c2f8:	1c40030e 	bge	r3,r17,100c308 <__lshift+0x54>
 100c2fc:	18c7883a 	add	r3,r3,r3
 100c300:	29400044 	addi	r5,r5,1
 100c304:	1c7ffd16 	blt	r3,r17,100c2fc <__lshift+0x48>
 100c308:	a809883a 	mov	r4,r21
 100c30c:	100bef00 	call	100bef0 <_Balloc>
 100c310:	1027883a 	mov	r19,r2
 100c314:	11400504 	addi	r5,r2,20
 100c318:	0400090e 	bge	zero,r16,100c340 <__lshift+0x8c>
 100c31c:	2805883a 	mov	r2,r5
 100c320:	0007883a 	mov	r3,zero
 100c324:	18c00044 	addi	r3,r3,1
 100c328:	10000015 	stw	zero,0(r2)
 100c32c:	10800104 	addi	r2,r2,4
 100c330:	80fffc1e 	bne	r16,r3,100c324 <__lshift+0x70>
 100c334:	8405883a 	add	r2,r16,r16
 100c338:	1085883a 	add	r2,r2,r2
 100c33c:	288b883a 	add	r5,r5,r2
 100c340:	90800417 	ldw	r2,16(r18)
 100c344:	91000504 	addi	r4,r18,20
 100c348:	a18007cc 	andi	r6,r20,31
 100c34c:	1085883a 	add	r2,r2,r2
 100c350:	1085883a 	add	r2,r2,r2
 100c354:	208f883a 	add	r7,r4,r2
 100c358:	30001e26 	beq	r6,zero,100c3d4 <__lshift+0x120>
 100c35c:	00800804 	movi	r2,32
 100c360:	1191c83a 	sub	r8,r2,r6
 100c364:	0007883a 	mov	r3,zero
 100c368:	20800017 	ldw	r2,0(r4)
 100c36c:	1184983a 	sll	r2,r2,r6
 100c370:	1884b03a 	or	r2,r3,r2
 100c374:	28800015 	stw	r2,0(r5)
 100c378:	20c00017 	ldw	r3,0(r4)
 100c37c:	21000104 	addi	r4,r4,4
 100c380:	29400104 	addi	r5,r5,4
 100c384:	1a06d83a 	srl	r3,r3,r8
 100c388:	21fff736 	bltu	r4,r7,100c368 <__lshift+0xb4>
 100c38c:	28c00015 	stw	r3,0(r5)
 100c390:	18000126 	beq	r3,zero,100c398 <__lshift+0xe4>
 100c394:	8c400044 	addi	r17,r17,1
 100c398:	88bfffc4 	addi	r2,r17,-1
 100c39c:	98800415 	stw	r2,16(r19)
 100c3a0:	a809883a 	mov	r4,r21
 100c3a4:	900b883a 	mov	r5,r18
 100c3a8:	100b9700 	call	100b970 <_Bfree>
 100c3ac:	9805883a 	mov	r2,r19
 100c3b0:	dfc00617 	ldw	ra,24(sp)
 100c3b4:	dd400517 	ldw	r21,20(sp)
 100c3b8:	dd000417 	ldw	r20,16(sp)
 100c3bc:	dcc00317 	ldw	r19,12(sp)
 100c3c0:	dc800217 	ldw	r18,8(sp)
 100c3c4:	dc400117 	ldw	r17,4(sp)
 100c3c8:	dc000017 	ldw	r16,0(sp)
 100c3cc:	dec00704 	addi	sp,sp,28
 100c3d0:	f800283a 	ret
 100c3d4:	20800017 	ldw	r2,0(r4)
 100c3d8:	21000104 	addi	r4,r4,4
 100c3dc:	28800015 	stw	r2,0(r5)
 100c3e0:	29400104 	addi	r5,r5,4
 100c3e4:	21ffec2e 	bgeu	r4,r7,100c398 <__lshift+0xe4>
 100c3e8:	20800017 	ldw	r2,0(r4)
 100c3ec:	21000104 	addi	r4,r4,4
 100c3f0:	28800015 	stw	r2,0(r5)
 100c3f4:	29400104 	addi	r5,r5,4
 100c3f8:	21fff636 	bltu	r4,r7,100c3d4 <__lshift+0x120>
 100c3fc:	003fe606 	br	100c398 <__lshift+0xe4>

0100c400 <__multiply>:
 100c400:	defff004 	addi	sp,sp,-64
 100c404:	dc800815 	stw	r18,32(sp)
 100c408:	dc400715 	stw	r17,28(sp)
 100c40c:	2c800417 	ldw	r18,16(r5)
 100c410:	34400417 	ldw	r17,16(r6)
 100c414:	dcc00915 	stw	r19,36(sp)
 100c418:	dc000615 	stw	r16,24(sp)
 100c41c:	dfc00f15 	stw	ra,60(sp)
 100c420:	df000e15 	stw	fp,56(sp)
 100c424:	ddc00d15 	stw	r23,52(sp)
 100c428:	dd800c15 	stw	r22,48(sp)
 100c42c:	dd400b15 	stw	r21,44(sp)
 100c430:	dd000a15 	stw	r20,40(sp)
 100c434:	2821883a 	mov	r16,r5
 100c438:	3027883a 	mov	r19,r6
 100c43c:	9440040e 	bge	r18,r17,100c450 <__multiply+0x50>
 100c440:	8825883a 	mov	r18,r17
 100c444:	2c400417 	ldw	r17,16(r5)
 100c448:	2827883a 	mov	r19,r5
 100c44c:	3021883a 	mov	r16,r6
 100c450:	80800217 	ldw	r2,8(r16)
 100c454:	9447883a 	add	r3,r18,r17
 100c458:	d8c00415 	stw	r3,16(sp)
 100c45c:	81400117 	ldw	r5,4(r16)
 100c460:	10c0010e 	bge	r2,r3,100c468 <__multiply+0x68>
 100c464:	29400044 	addi	r5,r5,1
 100c468:	100bef00 	call	100bef0 <_Balloc>
 100c46c:	d8800515 	stw	r2,20(sp)
 100c470:	d9000417 	ldw	r4,16(sp)
 100c474:	d8c00517 	ldw	r3,20(sp)
 100c478:	2105883a 	add	r2,r4,r4
 100c47c:	1085883a 	add	r2,r2,r2
 100c480:	19000504 	addi	r4,r3,20
 100c484:	2085883a 	add	r2,r4,r2
 100c488:	d8800315 	stw	r2,12(sp)
 100c48c:	2080052e 	bgeu	r4,r2,100c4a4 <__multiply+0xa4>
 100c490:	2005883a 	mov	r2,r4
 100c494:	d8c00317 	ldw	r3,12(sp)
 100c498:	10000015 	stw	zero,0(r2)
 100c49c:	10800104 	addi	r2,r2,4
 100c4a0:	10fffc36 	bltu	r2,r3,100c494 <__multiply+0x94>
 100c4a4:	8c45883a 	add	r2,r17,r17
 100c4a8:	9487883a 	add	r3,r18,r18
 100c4ac:	9dc00504 	addi	r23,r19,20
 100c4b0:	1085883a 	add	r2,r2,r2
 100c4b4:	84000504 	addi	r16,r16,20
 100c4b8:	18c7883a 	add	r3,r3,r3
 100c4bc:	b885883a 	add	r2,r23,r2
 100c4c0:	dc000015 	stw	r16,0(sp)
 100c4c4:	d8800215 	stw	r2,8(sp)
 100c4c8:	80f9883a 	add	fp,r16,r3
 100c4cc:	b880432e 	bgeu	r23,r2,100c5dc <__multiply+0x1dc>
 100c4d0:	d9000115 	stw	r4,4(sp)
 100c4d4:	b9000017 	ldw	r4,0(r23)
 100c4d8:	253fffcc 	andi	r20,r4,65535
 100c4dc:	a0001a26 	beq	r20,zero,100c548 <__multiply+0x148>
 100c4e0:	dcc00017 	ldw	r19,0(sp)
 100c4e4:	dc800117 	ldw	r18,4(sp)
 100c4e8:	002b883a 	mov	r21,zero
 100c4ec:	9c400017 	ldw	r17,0(r19)
 100c4f0:	94000017 	ldw	r16,0(r18)
 100c4f4:	a009883a 	mov	r4,r20
 100c4f8:	897fffcc 	andi	r5,r17,65535
 100c4fc:	1005a5c0 	call	1005a5c <__mulsi3>
 100c500:	880ad43a 	srli	r5,r17,16
 100c504:	80ffffcc 	andi	r3,r16,65535
 100c508:	a8c7883a 	add	r3,r21,r3
 100c50c:	a009883a 	mov	r4,r20
 100c510:	10e3883a 	add	r17,r2,r3
 100c514:	8020d43a 	srli	r16,r16,16
 100c518:	1005a5c0 	call	1005a5c <__mulsi3>
 100c51c:	8806d43a 	srli	r3,r17,16
 100c520:	1405883a 	add	r2,r2,r16
 100c524:	9cc00104 	addi	r19,r19,4
 100c528:	1887883a 	add	r3,r3,r2
 100c52c:	90c0008d 	sth	r3,2(r18)
 100c530:	9440000d 	sth	r17,0(r18)
 100c534:	182ad43a 	srli	r21,r3,16
 100c538:	94800104 	addi	r18,r18,4
 100c53c:	9f3feb36 	bltu	r19,fp,100c4ec <__multiply+0xec>
 100c540:	95400015 	stw	r21,0(r18)
 100c544:	b9000017 	ldw	r4,0(r23)
 100c548:	202ad43a 	srli	r21,r4,16
 100c54c:	a8001c26 	beq	r21,zero,100c5c0 <__multiply+0x1c0>
 100c550:	d9000117 	ldw	r4,4(sp)
 100c554:	dd000017 	ldw	r20,0(sp)
 100c558:	002d883a 	mov	r22,zero
 100c55c:	24c00017 	ldw	r19,0(r4)
 100c560:	2025883a 	mov	r18,r4
 100c564:	9823883a 	mov	r17,r19
 100c568:	a4000017 	ldw	r16,0(r20)
 100c56c:	a809883a 	mov	r4,r21
 100c570:	a5000104 	addi	r20,r20,4
 100c574:	817fffcc 	andi	r5,r16,65535
 100c578:	1005a5c0 	call	1005a5c <__mulsi3>
 100c57c:	8806d43a 	srli	r3,r17,16
 100c580:	800ad43a 	srli	r5,r16,16
 100c584:	94c0000d 	sth	r19,0(r18)
 100c588:	b0c7883a 	add	r3,r22,r3
 100c58c:	10e1883a 	add	r16,r2,r3
 100c590:	9400008d 	sth	r16,2(r18)
 100c594:	a809883a 	mov	r4,r21
 100c598:	94800104 	addi	r18,r18,4
 100c59c:	1005a5c0 	call	1005a5c <__mulsi3>
 100c5a0:	94400017 	ldw	r17,0(r18)
 100c5a4:	8020d43a 	srli	r16,r16,16
 100c5a8:	88ffffcc 	andi	r3,r17,65535
 100c5ac:	10c5883a 	add	r2,r2,r3
 100c5b0:	80a7883a 	add	r19,r16,r2
 100c5b4:	982cd43a 	srli	r22,r19,16
 100c5b8:	a73feb36 	bltu	r20,fp,100c568 <__multiply+0x168>
 100c5bc:	94c00015 	stw	r19,0(r18)
 100c5c0:	d8800217 	ldw	r2,8(sp)
 100c5c4:	bdc00104 	addi	r23,r23,4
 100c5c8:	b880042e 	bgeu	r23,r2,100c5dc <__multiply+0x1dc>
 100c5cc:	d8c00117 	ldw	r3,4(sp)
 100c5d0:	18c00104 	addi	r3,r3,4
 100c5d4:	d8c00115 	stw	r3,4(sp)
 100c5d8:	003fbe06 	br	100c4d4 <__multiply+0xd4>
 100c5dc:	d9000417 	ldw	r4,16(sp)
 100c5e0:	01000c0e 	bge	zero,r4,100c614 <__multiply+0x214>
 100c5e4:	d8c00317 	ldw	r3,12(sp)
 100c5e8:	18bfff17 	ldw	r2,-4(r3)
 100c5ec:	18ffff04 	addi	r3,r3,-4
 100c5f0:	10000326 	beq	r2,zero,100c600 <__multiply+0x200>
 100c5f4:	00000706 	br	100c614 <__multiply+0x214>
 100c5f8:	18800017 	ldw	r2,0(r3)
 100c5fc:	1000051e 	bne	r2,zero,100c614 <__multiply+0x214>
 100c600:	d9000417 	ldw	r4,16(sp)
 100c604:	18ffff04 	addi	r3,r3,-4
 100c608:	213fffc4 	addi	r4,r4,-1
 100c60c:	d9000415 	stw	r4,16(sp)
 100c610:	203ff91e 	bne	r4,zero,100c5f8 <__multiply+0x1f8>
 100c614:	d8800417 	ldw	r2,16(sp)
 100c618:	d8c00517 	ldw	r3,20(sp)
 100c61c:	18800415 	stw	r2,16(r3)
 100c620:	1805883a 	mov	r2,r3
 100c624:	dfc00f17 	ldw	ra,60(sp)
 100c628:	df000e17 	ldw	fp,56(sp)
 100c62c:	ddc00d17 	ldw	r23,52(sp)
 100c630:	dd800c17 	ldw	r22,48(sp)
 100c634:	dd400b17 	ldw	r21,44(sp)
 100c638:	dd000a17 	ldw	r20,40(sp)
 100c63c:	dcc00917 	ldw	r19,36(sp)
 100c640:	dc800817 	ldw	r18,32(sp)
 100c644:	dc400717 	ldw	r17,28(sp)
 100c648:	dc000617 	ldw	r16,24(sp)
 100c64c:	dec01004 	addi	sp,sp,64
 100c650:	f800283a 	ret

0100c654 <__i2b>:
 100c654:	defffd04 	addi	sp,sp,-12
 100c658:	dc000015 	stw	r16,0(sp)
 100c65c:	04000044 	movi	r16,1
 100c660:	dc800115 	stw	r18,4(sp)
 100c664:	2825883a 	mov	r18,r5
 100c668:	800b883a 	mov	r5,r16
 100c66c:	dfc00215 	stw	ra,8(sp)
 100c670:	100bef00 	call	100bef0 <_Balloc>
 100c674:	14000415 	stw	r16,16(r2)
 100c678:	14800515 	stw	r18,20(r2)
 100c67c:	dfc00217 	ldw	ra,8(sp)
 100c680:	dc800117 	ldw	r18,4(sp)
 100c684:	dc000017 	ldw	r16,0(sp)
 100c688:	dec00304 	addi	sp,sp,12
 100c68c:	f800283a 	ret

0100c690 <__multadd>:
 100c690:	defff604 	addi	sp,sp,-40
 100c694:	dd800615 	stw	r22,24(sp)
 100c698:	2d800417 	ldw	r22,16(r5)
 100c69c:	df000815 	stw	fp,32(sp)
 100c6a0:	ddc00715 	stw	r23,28(sp)
 100c6a4:	dd400515 	stw	r21,20(sp)
 100c6a8:	dd000415 	stw	r20,16(sp)
 100c6ac:	dcc00315 	stw	r19,12(sp)
 100c6b0:	dc800215 	stw	r18,8(sp)
 100c6b4:	dfc00915 	stw	ra,36(sp)
 100c6b8:	dc400115 	stw	r17,4(sp)
 100c6bc:	dc000015 	stw	r16,0(sp)
 100c6c0:	282f883a 	mov	r23,r5
 100c6c4:	2039883a 	mov	fp,r4
 100c6c8:	302b883a 	mov	r21,r6
 100c6cc:	3829883a 	mov	r20,r7
 100c6d0:	2c800504 	addi	r18,r5,20
 100c6d4:	0027883a 	mov	r19,zero
 100c6d8:	94400017 	ldw	r17,0(r18)
 100c6dc:	a80b883a 	mov	r5,r21
 100c6e0:	9cc00044 	addi	r19,r19,1
 100c6e4:	893fffcc 	andi	r4,r17,65535
 100c6e8:	1005a5c0 	call	1005a5c <__mulsi3>
 100c6ec:	8808d43a 	srli	r4,r17,16
 100c6f0:	1521883a 	add	r16,r2,r20
 100c6f4:	a80b883a 	mov	r5,r21
 100c6f8:	1005a5c0 	call	1005a5c <__mulsi3>
 100c6fc:	8008d43a 	srli	r4,r16,16
 100c700:	843fffcc 	andi	r16,r16,65535
 100c704:	1105883a 	add	r2,r2,r4
 100c708:	1006943a 	slli	r3,r2,16
 100c70c:	1028d43a 	srli	r20,r2,16
 100c710:	1c07883a 	add	r3,r3,r16
 100c714:	90c00015 	stw	r3,0(r18)
 100c718:	94800104 	addi	r18,r18,4
 100c71c:	9dbfee16 	blt	r19,r22,100c6d8 <__multadd+0x48>
 100c720:	a0000826 	beq	r20,zero,100c744 <__multadd+0xb4>
 100c724:	b8800217 	ldw	r2,8(r23)
 100c728:	b080130e 	bge	r22,r2,100c778 <__multadd+0xe8>
 100c72c:	b585883a 	add	r2,r22,r22
 100c730:	1085883a 	add	r2,r2,r2
 100c734:	15c5883a 	add	r2,r2,r23
 100c738:	b0c00044 	addi	r3,r22,1
 100c73c:	15000515 	stw	r20,20(r2)
 100c740:	b8c00415 	stw	r3,16(r23)
 100c744:	b805883a 	mov	r2,r23
 100c748:	dfc00917 	ldw	ra,36(sp)
 100c74c:	df000817 	ldw	fp,32(sp)
 100c750:	ddc00717 	ldw	r23,28(sp)
 100c754:	dd800617 	ldw	r22,24(sp)
 100c758:	dd400517 	ldw	r21,20(sp)
 100c75c:	dd000417 	ldw	r20,16(sp)
 100c760:	dcc00317 	ldw	r19,12(sp)
 100c764:	dc800217 	ldw	r18,8(sp)
 100c768:	dc400117 	ldw	r17,4(sp)
 100c76c:	dc000017 	ldw	r16,0(sp)
 100c770:	dec00a04 	addi	sp,sp,40
 100c774:	f800283a 	ret
 100c778:	b9400117 	ldw	r5,4(r23)
 100c77c:	e009883a 	mov	r4,fp
 100c780:	29400044 	addi	r5,r5,1
 100c784:	100bef00 	call	100bef0 <_Balloc>
 100c788:	b9800417 	ldw	r6,16(r23)
 100c78c:	b9400304 	addi	r5,r23,12
 100c790:	11000304 	addi	r4,r2,12
 100c794:	318d883a 	add	r6,r6,r6
 100c798:	318d883a 	add	r6,r6,r6
 100c79c:	31800204 	addi	r6,r6,8
 100c7a0:	1023883a 	mov	r17,r2
 100c7a4:	100b7580 	call	100b758 <memcpy>
 100c7a8:	b80b883a 	mov	r5,r23
 100c7ac:	e009883a 	mov	r4,fp
 100c7b0:	100b9700 	call	100b970 <_Bfree>
 100c7b4:	882f883a 	mov	r23,r17
 100c7b8:	003fdc06 	br	100c72c <__multadd+0x9c>

0100c7bc <__pow5mult>:
 100c7bc:	defffa04 	addi	sp,sp,-24
 100c7c0:	308000cc 	andi	r2,r6,3
 100c7c4:	dd000415 	stw	r20,16(sp)
 100c7c8:	dcc00315 	stw	r19,12(sp)
 100c7cc:	dc000015 	stw	r16,0(sp)
 100c7d0:	dfc00515 	stw	ra,20(sp)
 100c7d4:	dc800215 	stw	r18,8(sp)
 100c7d8:	dc400115 	stw	r17,4(sp)
 100c7dc:	3021883a 	mov	r16,r6
 100c7e0:	2027883a 	mov	r19,r4
 100c7e4:	2829883a 	mov	r20,r5
 100c7e8:	10002b1e 	bne	r2,zero,100c898 <__pow5mult+0xdc>
 100c7ec:	8025d0ba 	srai	r18,r16,2
 100c7f0:	90001b26 	beq	r18,zero,100c860 <__pow5mult+0xa4>
 100c7f4:	9c001217 	ldw	r16,72(r19)
 100c7f8:	8000081e 	bne	r16,zero,100c81c <__pow5mult+0x60>
 100c7fc:	00003006 	br	100c8c0 <__pow5mult+0x104>
 100c800:	800b883a 	mov	r5,r16
 100c804:	800d883a 	mov	r6,r16
 100c808:	9809883a 	mov	r4,r19
 100c80c:	90001426 	beq	r18,zero,100c860 <__pow5mult+0xa4>
 100c810:	80800017 	ldw	r2,0(r16)
 100c814:	10001b26 	beq	r2,zero,100c884 <__pow5mult+0xc8>
 100c818:	1021883a 	mov	r16,r2
 100c81c:	9080004c 	andi	r2,r18,1
 100c820:	1005003a 	cmpeq	r2,r2,zero
 100c824:	9025d07a 	srai	r18,r18,1
 100c828:	800d883a 	mov	r6,r16
 100c82c:	9809883a 	mov	r4,r19
 100c830:	a00b883a 	mov	r5,r20
 100c834:	103ff21e 	bne	r2,zero,100c800 <__pow5mult+0x44>
 100c838:	100c4000 	call	100c400 <__multiply>
 100c83c:	a00b883a 	mov	r5,r20
 100c840:	9809883a 	mov	r4,r19
 100c844:	1023883a 	mov	r17,r2
 100c848:	100b9700 	call	100b970 <_Bfree>
 100c84c:	8829883a 	mov	r20,r17
 100c850:	800b883a 	mov	r5,r16
 100c854:	800d883a 	mov	r6,r16
 100c858:	9809883a 	mov	r4,r19
 100c85c:	903fec1e 	bne	r18,zero,100c810 <__pow5mult+0x54>
 100c860:	a005883a 	mov	r2,r20
 100c864:	dfc00517 	ldw	ra,20(sp)
 100c868:	dd000417 	ldw	r20,16(sp)
 100c86c:	dcc00317 	ldw	r19,12(sp)
 100c870:	dc800217 	ldw	r18,8(sp)
 100c874:	dc400117 	ldw	r17,4(sp)
 100c878:	dc000017 	ldw	r16,0(sp)
 100c87c:	dec00604 	addi	sp,sp,24
 100c880:	f800283a 	ret
 100c884:	100c4000 	call	100c400 <__multiply>
 100c888:	80800015 	stw	r2,0(r16)
 100c88c:	1021883a 	mov	r16,r2
 100c890:	10000015 	stw	zero,0(r2)
 100c894:	003fe106 	br	100c81c <__pow5mult+0x60>
 100c898:	1085883a 	add	r2,r2,r2
 100c89c:	00c04134 	movhi	r3,260
 100c8a0:	18da7b04 	addi	r3,r3,27116
 100c8a4:	1085883a 	add	r2,r2,r2
 100c8a8:	10c5883a 	add	r2,r2,r3
 100c8ac:	11bfff17 	ldw	r6,-4(r2)
 100c8b0:	000f883a 	mov	r7,zero
 100c8b4:	100c6900 	call	100c690 <__multadd>
 100c8b8:	1029883a 	mov	r20,r2
 100c8bc:	003fcb06 	br	100c7ec <__pow5mult+0x30>
 100c8c0:	9809883a 	mov	r4,r19
 100c8c4:	01409c44 	movi	r5,625
 100c8c8:	100c6540 	call	100c654 <__i2b>
 100c8cc:	98801215 	stw	r2,72(r19)
 100c8d0:	1021883a 	mov	r16,r2
 100c8d4:	10000015 	stw	zero,0(r2)
 100c8d8:	003fd006 	br	100c81c <__pow5mult+0x60>

0100c8dc <__s2b>:
 100c8dc:	defff904 	addi	sp,sp,-28
 100c8e0:	dcc00315 	stw	r19,12(sp)
 100c8e4:	dc800215 	stw	r18,8(sp)
 100c8e8:	2827883a 	mov	r19,r5
 100c8ec:	2025883a 	mov	r18,r4
 100c8f0:	01400244 	movi	r5,9
 100c8f4:	39000204 	addi	r4,r7,8
 100c8f8:	dd000415 	stw	r20,16(sp)
 100c8fc:	dc400115 	stw	r17,4(sp)
 100c900:	dfc00615 	stw	ra,24(sp)
 100c904:	dd400515 	stw	r21,20(sp)
 100c908:	dc000015 	stw	r16,0(sp)
 100c90c:	3829883a 	mov	r20,r7
 100c910:	3023883a 	mov	r17,r6
 100c914:	100598c0 	call	100598c <__divsi3>
 100c918:	00c00044 	movi	r3,1
 100c91c:	1880350e 	bge	r3,r2,100c9f4 <__s2b+0x118>
 100c920:	000b883a 	mov	r5,zero
 100c924:	18c7883a 	add	r3,r3,r3
 100c928:	29400044 	addi	r5,r5,1
 100c92c:	18bffd16 	blt	r3,r2,100c924 <__s2b+0x48>
 100c930:	9009883a 	mov	r4,r18
 100c934:	100bef00 	call	100bef0 <_Balloc>
 100c938:	1011883a 	mov	r8,r2
 100c93c:	d8800717 	ldw	r2,28(sp)
 100c940:	00c00044 	movi	r3,1
 100c944:	01800244 	movi	r6,9
 100c948:	40800515 	stw	r2,20(r8)
 100c94c:	40c00415 	stw	r3,16(r8)
 100c950:	3440260e 	bge	r6,r17,100c9ec <__s2b+0x110>
 100c954:	3021883a 	mov	r16,r6
 100c958:	99ab883a 	add	r21,r19,r6
 100c95c:	9c05883a 	add	r2,r19,r16
 100c960:	11c00007 	ldb	r7,0(r2)
 100c964:	400b883a 	mov	r5,r8
 100c968:	9009883a 	mov	r4,r18
 100c96c:	39fff404 	addi	r7,r7,-48
 100c970:	01800284 	movi	r6,10
 100c974:	100c6900 	call	100c690 <__multadd>
 100c978:	84000044 	addi	r16,r16,1
 100c97c:	1011883a 	mov	r8,r2
 100c980:	8c3ff61e 	bne	r17,r16,100c95c <__s2b+0x80>
 100c984:	ac45883a 	add	r2,r21,r17
 100c988:	117ffe04 	addi	r5,r2,-8
 100c98c:	880d883a 	mov	r6,r17
 100c990:	35000c0e 	bge	r6,r20,100c9c4 <__s2b+0xe8>
 100c994:	a185c83a 	sub	r2,r20,r6
 100c998:	2821883a 	mov	r16,r5
 100c99c:	28a3883a 	add	r17,r5,r2
 100c9a0:	81c00007 	ldb	r7,0(r16)
 100c9a4:	400b883a 	mov	r5,r8
 100c9a8:	9009883a 	mov	r4,r18
 100c9ac:	39fff404 	addi	r7,r7,-48
 100c9b0:	01800284 	movi	r6,10
 100c9b4:	100c6900 	call	100c690 <__multadd>
 100c9b8:	84000044 	addi	r16,r16,1
 100c9bc:	1011883a 	mov	r8,r2
 100c9c0:	847ff71e 	bne	r16,r17,100c9a0 <__s2b+0xc4>
 100c9c4:	4005883a 	mov	r2,r8
 100c9c8:	dfc00617 	ldw	ra,24(sp)
 100c9cc:	dd400517 	ldw	r21,20(sp)
 100c9d0:	dd000417 	ldw	r20,16(sp)
 100c9d4:	dcc00317 	ldw	r19,12(sp)
 100c9d8:	dc800217 	ldw	r18,8(sp)
 100c9dc:	dc400117 	ldw	r17,4(sp)
 100c9e0:	dc000017 	ldw	r16,0(sp)
 100c9e4:	dec00704 	addi	sp,sp,28
 100c9e8:	f800283a 	ret
 100c9ec:	99400284 	addi	r5,r19,10
 100c9f0:	003fe706 	br	100c990 <__s2b+0xb4>
 100c9f4:	000b883a 	mov	r5,zero
 100c9f8:	003fcd06 	br	100c930 <__s2b+0x54>

0100c9fc <_realloc_r>:
 100c9fc:	defff404 	addi	sp,sp,-48
 100ca00:	dd800815 	stw	r22,32(sp)
 100ca04:	dc800415 	stw	r18,16(sp)
 100ca08:	dc400315 	stw	r17,12(sp)
 100ca0c:	dfc00b15 	stw	ra,44(sp)
 100ca10:	df000a15 	stw	fp,40(sp)
 100ca14:	ddc00915 	stw	r23,36(sp)
 100ca18:	dd400715 	stw	r21,28(sp)
 100ca1c:	dd000615 	stw	r20,24(sp)
 100ca20:	dcc00515 	stw	r19,20(sp)
 100ca24:	dc000215 	stw	r16,8(sp)
 100ca28:	2825883a 	mov	r18,r5
 100ca2c:	3023883a 	mov	r17,r6
 100ca30:	202d883a 	mov	r22,r4
 100ca34:	2800c926 	beq	r5,zero,100cd5c <_realloc_r+0x360>
 100ca38:	100eea80 	call	100eea8 <__malloc_lock>
 100ca3c:	943ffe04 	addi	r16,r18,-8
 100ca40:	88c002c4 	addi	r3,r17,11
 100ca44:	00800584 	movi	r2,22
 100ca48:	82000117 	ldw	r8,4(r16)
 100ca4c:	10c01b2e 	bgeu	r2,r3,100cabc <_realloc_r+0xc0>
 100ca50:	00bffe04 	movi	r2,-8
 100ca54:	188e703a 	and	r7,r3,r2
 100ca58:	3839883a 	mov	fp,r7
 100ca5c:	38001a16 	blt	r7,zero,100cac8 <_realloc_r+0xcc>
 100ca60:	e4401936 	bltu	fp,r17,100cac8 <_realloc_r+0xcc>
 100ca64:	013fff04 	movi	r4,-4
 100ca68:	4126703a 	and	r19,r8,r4
 100ca6c:	99c02616 	blt	r19,r7,100cb08 <_realloc_r+0x10c>
 100ca70:	802b883a 	mov	r21,r16
 100ca74:	9829883a 	mov	r20,r19
 100ca78:	84000204 	addi	r16,r16,8
 100ca7c:	a80f883a 	mov	r7,r21
 100ca80:	a70dc83a 	sub	r6,r20,fp
 100ca84:	008003c4 	movi	r2,15
 100ca88:	1180c136 	bltu	r2,r6,100cd90 <_realloc_r+0x394>
 100ca8c:	38800117 	ldw	r2,4(r7)
 100ca90:	a549883a 	add	r4,r20,r21
 100ca94:	1080004c 	andi	r2,r2,1
 100ca98:	a084b03a 	or	r2,r20,r2
 100ca9c:	38800115 	stw	r2,4(r7)
 100caa0:	20c00117 	ldw	r3,4(r4)
 100caa4:	18c00054 	ori	r3,r3,1
 100caa8:	20c00115 	stw	r3,4(r4)
 100caac:	b009883a 	mov	r4,r22
 100cab0:	100eec80 	call	100eec8 <__malloc_unlock>
 100cab4:	8023883a 	mov	r17,r16
 100cab8:	00000606 	br	100cad4 <_realloc_r+0xd8>
 100cabc:	01c00404 	movi	r7,16
 100cac0:	3839883a 	mov	fp,r7
 100cac4:	e47fe72e 	bgeu	fp,r17,100ca64 <_realloc_r+0x68>
 100cac8:	00800304 	movi	r2,12
 100cacc:	0023883a 	mov	r17,zero
 100cad0:	b0800015 	stw	r2,0(r22)
 100cad4:	8805883a 	mov	r2,r17
 100cad8:	dfc00b17 	ldw	ra,44(sp)
 100cadc:	df000a17 	ldw	fp,40(sp)
 100cae0:	ddc00917 	ldw	r23,36(sp)
 100cae4:	dd800817 	ldw	r22,32(sp)
 100cae8:	dd400717 	ldw	r21,28(sp)
 100caec:	dd000617 	ldw	r20,24(sp)
 100caf0:	dcc00517 	ldw	r19,20(sp)
 100caf4:	dc800417 	ldw	r18,16(sp)
 100caf8:	dc400317 	ldw	r17,12(sp)
 100cafc:	dc000217 	ldw	r16,8(sp)
 100cb00:	dec00c04 	addi	sp,sp,48
 100cb04:	f800283a 	ret
 100cb08:	00804134 	movhi	r2,260
 100cb0c:	109aaa04 	addi	r2,r2,27304
 100cb10:	12400217 	ldw	r9,8(r2)
 100cb14:	84cd883a 	add	r6,r16,r19
 100cb18:	802b883a 	mov	r21,r16
 100cb1c:	3240b926 	beq	r6,r9,100ce04 <_realloc_r+0x408>
 100cb20:	31400117 	ldw	r5,4(r6)
 100cb24:	00bfff84 	movi	r2,-2
 100cb28:	2884703a 	and	r2,r5,r2
 100cb2c:	1185883a 	add	r2,r2,r6
 100cb30:	10c00117 	ldw	r3,4(r2)
 100cb34:	18c0004c 	andi	r3,r3,1
 100cb38:	1807003a 	cmpeq	r3,r3,zero
 100cb3c:	1800a326 	beq	r3,zero,100cdcc <_realloc_r+0x3d0>
 100cb40:	2908703a 	and	r4,r5,r4
 100cb44:	9929883a 	add	r20,r19,r4
 100cb48:	a1c0a30e 	bge	r20,r7,100cdd8 <_realloc_r+0x3dc>
 100cb4c:	4080004c 	andi	r2,r8,1
 100cb50:	1000551e 	bne	r2,zero,100cca8 <_realloc_r+0x2ac>
 100cb54:	80800017 	ldw	r2,0(r16)
 100cb58:	80afc83a 	sub	r23,r16,r2
 100cb5c:	b8c00117 	ldw	r3,4(r23)
 100cb60:	00bfff04 	movi	r2,-4
 100cb64:	1884703a 	and	r2,r3,r2
 100cb68:	30002e26 	beq	r6,zero,100cc24 <_realloc_r+0x228>
 100cb6c:	3240b926 	beq	r6,r9,100ce54 <_realloc_r+0x458>
 100cb70:	98a9883a 	add	r20,r19,r2
 100cb74:	2509883a 	add	r4,r4,r20
 100cb78:	d9000015 	stw	r4,0(sp)
 100cb7c:	21c02a16 	blt	r4,r7,100cc28 <_realloc_r+0x22c>
 100cb80:	30800317 	ldw	r2,12(r6)
 100cb84:	30c00217 	ldw	r3,8(r6)
 100cb88:	01400904 	movi	r5,36
 100cb8c:	99bfff04 	addi	r6,r19,-4
 100cb90:	18800315 	stw	r2,12(r3)
 100cb94:	10c00215 	stw	r3,8(r2)
 100cb98:	b9000317 	ldw	r4,12(r23)
 100cb9c:	b8800217 	ldw	r2,8(r23)
 100cba0:	b82b883a 	mov	r21,r23
 100cba4:	bc000204 	addi	r16,r23,8
 100cba8:	20800215 	stw	r2,8(r4)
 100cbac:	11000315 	stw	r4,12(r2)
 100cbb0:	2980e436 	bltu	r5,r6,100cf44 <_realloc_r+0x548>
 100cbb4:	008004c4 	movi	r2,19
 100cbb8:	9009883a 	mov	r4,r18
 100cbbc:	8011883a 	mov	r8,r16
 100cbc0:	11800f2e 	bgeu	r2,r6,100cc00 <_realloc_r+0x204>
 100cbc4:	90800017 	ldw	r2,0(r18)
 100cbc8:	ba000404 	addi	r8,r23,16
 100cbcc:	91000204 	addi	r4,r18,8
 100cbd0:	b8800215 	stw	r2,8(r23)
 100cbd4:	90c00117 	ldw	r3,4(r18)
 100cbd8:	008006c4 	movi	r2,27
 100cbdc:	b8c00315 	stw	r3,12(r23)
 100cbe0:	1180072e 	bgeu	r2,r6,100cc00 <_realloc_r+0x204>
 100cbe4:	90c00217 	ldw	r3,8(r18)
 100cbe8:	ba000604 	addi	r8,r23,24
 100cbec:	91000404 	addi	r4,r18,16
 100cbf0:	b8c00415 	stw	r3,16(r23)
 100cbf4:	90800317 	ldw	r2,12(r18)
 100cbf8:	b8800515 	stw	r2,20(r23)
 100cbfc:	3140e726 	beq	r6,r5,100cf9c <_realloc_r+0x5a0>
 100cc00:	20800017 	ldw	r2,0(r4)
 100cc04:	dd000017 	ldw	r20,0(sp)
 100cc08:	b80f883a 	mov	r7,r23
 100cc0c:	40800015 	stw	r2,0(r8)
 100cc10:	20c00117 	ldw	r3,4(r4)
 100cc14:	40c00115 	stw	r3,4(r8)
 100cc18:	20800217 	ldw	r2,8(r4)
 100cc1c:	40800215 	stw	r2,8(r8)
 100cc20:	003f9706 	br	100ca80 <_realloc_r+0x84>
 100cc24:	98a9883a 	add	r20,r19,r2
 100cc28:	a1c01f16 	blt	r20,r7,100cca8 <_realloc_r+0x2ac>
 100cc2c:	b8c00317 	ldw	r3,12(r23)
 100cc30:	b8800217 	ldw	r2,8(r23)
 100cc34:	99bfff04 	addi	r6,r19,-4
 100cc38:	01400904 	movi	r5,36
 100cc3c:	b82b883a 	mov	r21,r23
 100cc40:	18800215 	stw	r2,8(r3)
 100cc44:	10c00315 	stw	r3,12(r2)
 100cc48:	bc000204 	addi	r16,r23,8
 100cc4c:	2980c336 	bltu	r5,r6,100cf5c <_realloc_r+0x560>
 100cc50:	008004c4 	movi	r2,19
 100cc54:	9009883a 	mov	r4,r18
 100cc58:	8011883a 	mov	r8,r16
 100cc5c:	11800f2e 	bgeu	r2,r6,100cc9c <_realloc_r+0x2a0>
 100cc60:	90800017 	ldw	r2,0(r18)
 100cc64:	ba000404 	addi	r8,r23,16
 100cc68:	91000204 	addi	r4,r18,8
 100cc6c:	b8800215 	stw	r2,8(r23)
 100cc70:	90c00117 	ldw	r3,4(r18)
 100cc74:	008006c4 	movi	r2,27
 100cc78:	b8c00315 	stw	r3,12(r23)
 100cc7c:	1180072e 	bgeu	r2,r6,100cc9c <_realloc_r+0x2a0>
 100cc80:	90c00217 	ldw	r3,8(r18)
 100cc84:	ba000604 	addi	r8,r23,24
 100cc88:	91000404 	addi	r4,r18,16
 100cc8c:	b8c00415 	stw	r3,16(r23)
 100cc90:	90800317 	ldw	r2,12(r18)
 100cc94:	b8800515 	stw	r2,20(r23)
 100cc98:	3140c726 	beq	r6,r5,100cfb8 <_realloc_r+0x5bc>
 100cc9c:	20800017 	ldw	r2,0(r4)
 100cca0:	b80f883a 	mov	r7,r23
 100cca4:	003fd906 	br	100cc0c <_realloc_r+0x210>
 100cca8:	880b883a 	mov	r5,r17
 100ccac:	b009883a 	mov	r4,r22
 100ccb0:	10061740 	call	1006174 <_malloc_r>
 100ccb4:	1023883a 	mov	r17,r2
 100ccb8:	10002526 	beq	r2,zero,100cd50 <_realloc_r+0x354>
 100ccbc:	80800117 	ldw	r2,4(r16)
 100ccc0:	00ffff84 	movi	r3,-2
 100ccc4:	893ffe04 	addi	r4,r17,-8
 100ccc8:	10c4703a 	and	r2,r2,r3
 100cccc:	8085883a 	add	r2,r16,r2
 100ccd0:	20809526 	beq	r4,r2,100cf28 <_realloc_r+0x52c>
 100ccd4:	99bfff04 	addi	r6,r19,-4
 100ccd8:	01c00904 	movi	r7,36
 100ccdc:	39804536 	bltu	r7,r6,100cdf4 <_realloc_r+0x3f8>
 100cce0:	008004c4 	movi	r2,19
 100cce4:	9009883a 	mov	r4,r18
 100cce8:	880b883a 	mov	r5,r17
 100ccec:	11800f2e 	bgeu	r2,r6,100cd2c <_realloc_r+0x330>
 100ccf0:	90800017 	ldw	r2,0(r18)
 100ccf4:	89400204 	addi	r5,r17,8
 100ccf8:	91000204 	addi	r4,r18,8
 100ccfc:	88800015 	stw	r2,0(r17)
 100cd00:	90c00117 	ldw	r3,4(r18)
 100cd04:	008006c4 	movi	r2,27
 100cd08:	88c00115 	stw	r3,4(r17)
 100cd0c:	1180072e 	bgeu	r2,r6,100cd2c <_realloc_r+0x330>
 100cd10:	90c00217 	ldw	r3,8(r18)
 100cd14:	89400404 	addi	r5,r17,16
 100cd18:	91000404 	addi	r4,r18,16
 100cd1c:	88c00215 	stw	r3,8(r17)
 100cd20:	90800317 	ldw	r2,12(r18)
 100cd24:	88800315 	stw	r2,12(r17)
 100cd28:	31c09126 	beq	r6,r7,100cf70 <_realloc_r+0x574>
 100cd2c:	20800017 	ldw	r2,0(r4)
 100cd30:	28800015 	stw	r2,0(r5)
 100cd34:	20c00117 	ldw	r3,4(r4)
 100cd38:	28c00115 	stw	r3,4(r5)
 100cd3c:	20800217 	ldw	r2,8(r4)
 100cd40:	28800215 	stw	r2,8(r5)
 100cd44:	900b883a 	mov	r5,r18
 100cd48:	b009883a 	mov	r4,r22
 100cd4c:	100aa780 	call	100aa78 <_free_r>
 100cd50:	b009883a 	mov	r4,r22
 100cd54:	100eec80 	call	100eec8 <__malloc_unlock>
 100cd58:	003f5e06 	br	100cad4 <_realloc_r+0xd8>
 100cd5c:	300b883a 	mov	r5,r6
 100cd60:	dfc00b17 	ldw	ra,44(sp)
 100cd64:	df000a17 	ldw	fp,40(sp)
 100cd68:	ddc00917 	ldw	r23,36(sp)
 100cd6c:	dd800817 	ldw	r22,32(sp)
 100cd70:	dd400717 	ldw	r21,28(sp)
 100cd74:	dd000617 	ldw	r20,24(sp)
 100cd78:	dcc00517 	ldw	r19,20(sp)
 100cd7c:	dc800417 	ldw	r18,16(sp)
 100cd80:	dc400317 	ldw	r17,12(sp)
 100cd84:	dc000217 	ldw	r16,8(sp)
 100cd88:	dec00c04 	addi	sp,sp,48
 100cd8c:	10061741 	jmpi	1006174 <_malloc_r>
 100cd90:	38800117 	ldw	r2,4(r7)
 100cd94:	e54b883a 	add	r5,fp,r21
 100cd98:	31000054 	ori	r4,r6,1
 100cd9c:	1080004c 	andi	r2,r2,1
 100cda0:	1704b03a 	or	r2,r2,fp
 100cda4:	38800115 	stw	r2,4(r7)
 100cda8:	29000115 	stw	r4,4(r5)
 100cdac:	2987883a 	add	r3,r5,r6
 100cdb0:	18800117 	ldw	r2,4(r3)
 100cdb4:	29400204 	addi	r5,r5,8
 100cdb8:	b009883a 	mov	r4,r22
 100cdbc:	10800054 	ori	r2,r2,1
 100cdc0:	18800115 	stw	r2,4(r3)
 100cdc4:	100aa780 	call	100aa78 <_free_r>
 100cdc8:	003f3806 	br	100caac <_realloc_r+0xb0>
 100cdcc:	000d883a 	mov	r6,zero
 100cdd0:	0009883a 	mov	r4,zero
 100cdd4:	003f5d06 	br	100cb4c <_realloc_r+0x150>
 100cdd8:	30c00217 	ldw	r3,8(r6)
 100cddc:	30800317 	ldw	r2,12(r6)
 100cde0:	800f883a 	mov	r7,r16
 100cde4:	84000204 	addi	r16,r16,8
 100cde8:	10c00215 	stw	r3,8(r2)
 100cdec:	18800315 	stw	r2,12(r3)
 100cdf0:	003f2306 	br	100ca80 <_realloc_r+0x84>
 100cdf4:	8809883a 	mov	r4,r17
 100cdf8:	900b883a 	mov	r5,r18
 100cdfc:	100b7f80 	call	100b7f8 <memmove>
 100ce00:	003fd006 	br	100cd44 <_realloc_r+0x348>
 100ce04:	30800117 	ldw	r2,4(r6)
 100ce08:	e0c00404 	addi	r3,fp,16
 100ce0c:	1108703a 	and	r4,r2,r4
 100ce10:	9905883a 	add	r2,r19,r4
 100ce14:	10ff4d16 	blt	r2,r3,100cb4c <_realloc_r+0x150>
 100ce18:	1705c83a 	sub	r2,r2,fp
 100ce1c:	870b883a 	add	r5,r16,fp
 100ce20:	10800054 	ori	r2,r2,1
 100ce24:	28800115 	stw	r2,4(r5)
 100ce28:	80c00117 	ldw	r3,4(r16)
 100ce2c:	00804134 	movhi	r2,260
 100ce30:	109aaa04 	addi	r2,r2,27304
 100ce34:	b009883a 	mov	r4,r22
 100ce38:	18c0004c 	andi	r3,r3,1
 100ce3c:	e0c6b03a 	or	r3,fp,r3
 100ce40:	11400215 	stw	r5,8(r2)
 100ce44:	80c00115 	stw	r3,4(r16)
 100ce48:	100eec80 	call	100eec8 <__malloc_unlock>
 100ce4c:	84400204 	addi	r17,r16,8
 100ce50:	003f2006 	br	100cad4 <_realloc_r+0xd8>
 100ce54:	98a9883a 	add	r20,r19,r2
 100ce58:	2509883a 	add	r4,r4,r20
 100ce5c:	e0800404 	addi	r2,fp,16
 100ce60:	d9000115 	stw	r4,4(sp)
 100ce64:	20bf7016 	blt	r4,r2,100cc28 <_realloc_r+0x22c>
 100ce68:	b8c00317 	ldw	r3,12(r23)
 100ce6c:	b8800217 	ldw	r2,8(r23)
 100ce70:	99bfff04 	addi	r6,r19,-4
 100ce74:	01400904 	movi	r5,36
 100ce78:	18800215 	stw	r2,8(r3)
 100ce7c:	10c00315 	stw	r3,12(r2)
 100ce80:	bc400204 	addi	r17,r23,8
 100ce84:	29804136 	bltu	r5,r6,100cf8c <_realloc_r+0x590>
 100ce88:	008004c4 	movi	r2,19
 100ce8c:	9009883a 	mov	r4,r18
 100ce90:	880f883a 	mov	r7,r17
 100ce94:	11800f2e 	bgeu	r2,r6,100ced4 <_realloc_r+0x4d8>
 100ce98:	90800017 	ldw	r2,0(r18)
 100ce9c:	b9c00404 	addi	r7,r23,16
 100cea0:	91000204 	addi	r4,r18,8
 100cea4:	b8800215 	stw	r2,8(r23)
 100cea8:	90c00117 	ldw	r3,4(r18)
 100ceac:	008006c4 	movi	r2,27
 100ceb0:	b8c00315 	stw	r3,12(r23)
 100ceb4:	1180072e 	bgeu	r2,r6,100ced4 <_realloc_r+0x4d8>
 100ceb8:	90c00217 	ldw	r3,8(r18)
 100cebc:	b9c00604 	addi	r7,r23,24
 100cec0:	91000404 	addi	r4,r18,16
 100cec4:	b8c00415 	stw	r3,16(r23)
 100cec8:	90800317 	ldw	r2,12(r18)
 100cecc:	b8800515 	stw	r2,20(r23)
 100ced0:	31404026 	beq	r6,r5,100cfd4 <_realloc_r+0x5d8>
 100ced4:	20800017 	ldw	r2,0(r4)
 100ced8:	38800015 	stw	r2,0(r7)
 100cedc:	20c00117 	ldw	r3,4(r4)
 100cee0:	38c00115 	stw	r3,4(r7)
 100cee4:	20800217 	ldw	r2,8(r4)
 100cee8:	38800215 	stw	r2,8(r7)
 100ceec:	d8c00117 	ldw	r3,4(sp)
 100cef0:	bf0b883a 	add	r5,r23,fp
 100cef4:	b009883a 	mov	r4,r22
 100cef8:	1f05c83a 	sub	r2,r3,fp
 100cefc:	10800054 	ori	r2,r2,1
 100cf00:	28800115 	stw	r2,4(r5)
 100cf04:	b8c00117 	ldw	r3,4(r23)
 100cf08:	00804134 	movhi	r2,260
 100cf0c:	109aaa04 	addi	r2,r2,27304
 100cf10:	11400215 	stw	r5,8(r2)
 100cf14:	18c0004c 	andi	r3,r3,1
 100cf18:	e0c6b03a 	or	r3,fp,r3
 100cf1c:	b8c00115 	stw	r3,4(r23)
 100cf20:	100eec80 	call	100eec8 <__malloc_unlock>
 100cf24:	003eeb06 	br	100cad4 <_realloc_r+0xd8>
 100cf28:	20800117 	ldw	r2,4(r4)
 100cf2c:	00ffff04 	movi	r3,-4
 100cf30:	800f883a 	mov	r7,r16
 100cf34:	10c4703a 	and	r2,r2,r3
 100cf38:	98a9883a 	add	r20,r19,r2
 100cf3c:	84000204 	addi	r16,r16,8
 100cf40:	003ecf06 	br	100ca80 <_realloc_r+0x84>
 100cf44:	900b883a 	mov	r5,r18
 100cf48:	8009883a 	mov	r4,r16
 100cf4c:	100b7f80 	call	100b7f8 <memmove>
 100cf50:	dd000017 	ldw	r20,0(sp)
 100cf54:	b80f883a 	mov	r7,r23
 100cf58:	003ec906 	br	100ca80 <_realloc_r+0x84>
 100cf5c:	900b883a 	mov	r5,r18
 100cf60:	8009883a 	mov	r4,r16
 100cf64:	100b7f80 	call	100b7f8 <memmove>
 100cf68:	b80f883a 	mov	r7,r23
 100cf6c:	003ec406 	br	100ca80 <_realloc_r+0x84>
 100cf70:	90c00417 	ldw	r3,16(r18)
 100cf74:	89400604 	addi	r5,r17,24
 100cf78:	91000604 	addi	r4,r18,24
 100cf7c:	88c00415 	stw	r3,16(r17)
 100cf80:	90800517 	ldw	r2,20(r18)
 100cf84:	88800515 	stw	r2,20(r17)
 100cf88:	003f6806 	br	100cd2c <_realloc_r+0x330>
 100cf8c:	900b883a 	mov	r5,r18
 100cf90:	8809883a 	mov	r4,r17
 100cf94:	100b7f80 	call	100b7f8 <memmove>
 100cf98:	003fd406 	br	100ceec <_realloc_r+0x4f0>
 100cf9c:	90c00417 	ldw	r3,16(r18)
 100cfa0:	91000604 	addi	r4,r18,24
 100cfa4:	ba000804 	addi	r8,r23,32
 100cfa8:	b8c00615 	stw	r3,24(r23)
 100cfac:	90800517 	ldw	r2,20(r18)
 100cfb0:	b8800715 	stw	r2,28(r23)
 100cfb4:	003f1206 	br	100cc00 <_realloc_r+0x204>
 100cfb8:	90c00417 	ldw	r3,16(r18)
 100cfbc:	91000604 	addi	r4,r18,24
 100cfc0:	ba000804 	addi	r8,r23,32
 100cfc4:	b8c00615 	stw	r3,24(r23)
 100cfc8:	90800517 	ldw	r2,20(r18)
 100cfcc:	b8800715 	stw	r2,28(r23)
 100cfd0:	003f3206 	br	100cc9c <_realloc_r+0x2a0>
 100cfd4:	90c00417 	ldw	r3,16(r18)
 100cfd8:	91000604 	addi	r4,r18,24
 100cfdc:	b9c00804 	addi	r7,r23,32
 100cfe0:	b8c00615 	stw	r3,24(r23)
 100cfe4:	90800517 	ldw	r2,20(r18)
 100cfe8:	b8800715 	stw	r2,28(r23)
 100cfec:	003fb906 	br	100ced4 <_realloc_r+0x4d8>

0100cff0 <__isinfd>:
 100cff0:	200d883a 	mov	r6,r4
 100cff4:	0109c83a 	sub	r4,zero,r4
 100cff8:	2188b03a 	or	r4,r4,r6
 100cffc:	2008d7fa 	srli	r4,r4,31
 100d000:	00a00034 	movhi	r2,32768
 100d004:	10bfffc4 	addi	r2,r2,-1
 100d008:	1144703a 	and	r2,r2,r5
 100d00c:	2088b03a 	or	r4,r4,r2
 100d010:	009ffc34 	movhi	r2,32752
 100d014:	1105c83a 	sub	r2,r2,r4
 100d018:	0087c83a 	sub	r3,zero,r2
 100d01c:	10c4b03a 	or	r2,r2,r3
 100d020:	1004d7fa 	srli	r2,r2,31
 100d024:	00c00044 	movi	r3,1
 100d028:	1885c83a 	sub	r2,r3,r2
 100d02c:	f800283a 	ret

0100d030 <__isnand>:
 100d030:	200d883a 	mov	r6,r4
 100d034:	0109c83a 	sub	r4,zero,r4
 100d038:	2188b03a 	or	r4,r4,r6
 100d03c:	2008d7fa 	srli	r4,r4,31
 100d040:	00a00034 	movhi	r2,32768
 100d044:	10bfffc4 	addi	r2,r2,-1
 100d048:	1144703a 	and	r2,r2,r5
 100d04c:	2088b03a 	or	r4,r4,r2
 100d050:	009ffc34 	movhi	r2,32752
 100d054:	1105c83a 	sub	r2,r2,r4
 100d058:	1004d7fa 	srli	r2,r2,31
 100d05c:	f800283a 	ret

0100d060 <__sclose>:
 100d060:	2940038f 	ldh	r5,14(r5)
 100d064:	100d3a81 	jmpi	100d3a8 <_close_r>

0100d068 <__sseek>:
 100d068:	defffe04 	addi	sp,sp,-8
 100d06c:	dc000015 	stw	r16,0(sp)
 100d070:	2821883a 	mov	r16,r5
 100d074:	2940038f 	ldh	r5,14(r5)
 100d078:	dfc00115 	stw	ra,4(sp)
 100d07c:	100d6200 	call	100d620 <_lseek_r>
 100d080:	1007883a 	mov	r3,r2
 100d084:	00bfffc4 	movi	r2,-1
 100d088:	18800926 	beq	r3,r2,100d0b0 <__sseek+0x48>
 100d08c:	8080030b 	ldhu	r2,12(r16)
 100d090:	80c01415 	stw	r3,80(r16)
 100d094:	10840014 	ori	r2,r2,4096
 100d098:	8080030d 	sth	r2,12(r16)
 100d09c:	1805883a 	mov	r2,r3
 100d0a0:	dfc00117 	ldw	ra,4(sp)
 100d0a4:	dc000017 	ldw	r16,0(sp)
 100d0a8:	dec00204 	addi	sp,sp,8
 100d0ac:	f800283a 	ret
 100d0b0:	8080030b 	ldhu	r2,12(r16)
 100d0b4:	10bbffcc 	andi	r2,r2,61439
 100d0b8:	8080030d 	sth	r2,12(r16)
 100d0bc:	1805883a 	mov	r2,r3
 100d0c0:	dfc00117 	ldw	ra,4(sp)
 100d0c4:	dc000017 	ldw	r16,0(sp)
 100d0c8:	dec00204 	addi	sp,sp,8
 100d0cc:	f800283a 	ret

0100d0d0 <__swrite>:
 100d0d0:	2880030b 	ldhu	r2,12(r5)
 100d0d4:	defffb04 	addi	sp,sp,-20
 100d0d8:	dcc00315 	stw	r19,12(sp)
 100d0dc:	1080400c 	andi	r2,r2,256
 100d0e0:	dc800215 	stw	r18,8(sp)
 100d0e4:	dc400115 	stw	r17,4(sp)
 100d0e8:	dc000015 	stw	r16,0(sp)
 100d0ec:	3027883a 	mov	r19,r6
 100d0f0:	3825883a 	mov	r18,r7
 100d0f4:	dfc00415 	stw	ra,16(sp)
 100d0f8:	2821883a 	mov	r16,r5
 100d0fc:	000d883a 	mov	r6,zero
 100d100:	01c00084 	movi	r7,2
 100d104:	2023883a 	mov	r17,r4
 100d108:	10000226 	beq	r2,zero,100d114 <__swrite+0x44>
 100d10c:	2940038f 	ldh	r5,14(r5)
 100d110:	100d6200 	call	100d620 <_lseek_r>
 100d114:	8080030b 	ldhu	r2,12(r16)
 100d118:	8140038f 	ldh	r5,14(r16)
 100d11c:	8809883a 	mov	r4,r17
 100d120:	10bbffcc 	andi	r2,r2,61439
 100d124:	980d883a 	mov	r6,r19
 100d128:	900f883a 	mov	r7,r18
 100d12c:	8080030d 	sth	r2,12(r16)
 100d130:	dfc00417 	ldw	ra,16(sp)
 100d134:	dcc00317 	ldw	r19,12(sp)
 100d138:	dc800217 	ldw	r18,8(sp)
 100d13c:	dc400117 	ldw	r17,4(sp)
 100d140:	dc000017 	ldw	r16,0(sp)
 100d144:	dec00504 	addi	sp,sp,20
 100d148:	100d2681 	jmpi	100d268 <_write_r>

0100d14c <__sread>:
 100d14c:	defffe04 	addi	sp,sp,-8
 100d150:	dc000015 	stw	r16,0(sp)
 100d154:	2821883a 	mov	r16,r5
 100d158:	2940038f 	ldh	r5,14(r5)
 100d15c:	dfc00115 	stw	ra,4(sp)
 100d160:	100d6980 	call	100d698 <_read_r>
 100d164:	1007883a 	mov	r3,r2
 100d168:	10000816 	blt	r2,zero,100d18c <__sread+0x40>
 100d16c:	80801417 	ldw	r2,80(r16)
 100d170:	10c5883a 	add	r2,r2,r3
 100d174:	80801415 	stw	r2,80(r16)
 100d178:	1805883a 	mov	r2,r3
 100d17c:	dfc00117 	ldw	ra,4(sp)
 100d180:	dc000017 	ldw	r16,0(sp)
 100d184:	dec00204 	addi	sp,sp,8
 100d188:	f800283a 	ret
 100d18c:	8080030b 	ldhu	r2,12(r16)
 100d190:	10bbffcc 	andi	r2,r2,61439
 100d194:	8080030d 	sth	r2,12(r16)
 100d198:	1805883a 	mov	r2,r3
 100d19c:	dfc00117 	ldw	ra,4(sp)
 100d1a0:	dc000017 	ldw	r16,0(sp)
 100d1a4:	dec00204 	addi	sp,sp,8
 100d1a8:	f800283a 	ret

0100d1ac <strcmp>:
 100d1ac:	2144b03a 	or	r2,r4,r5
 100d1b0:	108000cc 	andi	r2,r2,3
 100d1b4:	10001d1e 	bne	r2,zero,100d22c <strcmp+0x80>
 100d1b8:	200f883a 	mov	r7,r4
 100d1bc:	28800017 	ldw	r2,0(r5)
 100d1c0:	21000017 	ldw	r4,0(r4)
 100d1c4:	280d883a 	mov	r6,r5
 100d1c8:	2080161e 	bne	r4,r2,100d224 <strcmp+0x78>
 100d1cc:	023fbff4 	movhi	r8,65279
 100d1d0:	423fbfc4 	addi	r8,r8,-257
 100d1d4:	2207883a 	add	r3,r4,r8
 100d1d8:	01602074 	movhi	r5,32897
 100d1dc:	29602004 	addi	r5,r5,-32640
 100d1e0:	1946703a 	and	r3,r3,r5
 100d1e4:	0104303a 	nor	r2,zero,r4
 100d1e8:	10c4703a 	and	r2,r2,r3
 100d1ec:	10001c1e 	bne	r2,zero,100d260 <strcmp+0xb4>
 100d1f0:	4013883a 	mov	r9,r8
 100d1f4:	2811883a 	mov	r8,r5
 100d1f8:	00000106 	br	100d200 <strcmp+0x54>
 100d1fc:	1800181e 	bne	r3,zero,100d260 <strcmp+0xb4>
 100d200:	39c00104 	addi	r7,r7,4
 100d204:	39000017 	ldw	r4,0(r7)
 100d208:	31800104 	addi	r6,r6,4
 100d20c:	31400017 	ldw	r5,0(r6)
 100d210:	2245883a 	add	r2,r4,r9
 100d214:	1204703a 	and	r2,r2,r8
 100d218:	0106303a 	nor	r3,zero,r4
 100d21c:	1886703a 	and	r3,r3,r2
 100d220:	217ff626 	beq	r4,r5,100d1fc <strcmp+0x50>
 100d224:	3809883a 	mov	r4,r7
 100d228:	300b883a 	mov	r5,r6
 100d22c:	20c00007 	ldb	r3,0(r4)
 100d230:	1800051e 	bne	r3,zero,100d248 <strcmp+0x9c>
 100d234:	00000606 	br	100d250 <strcmp+0xa4>
 100d238:	21000044 	addi	r4,r4,1
 100d23c:	20c00007 	ldb	r3,0(r4)
 100d240:	29400044 	addi	r5,r5,1
 100d244:	18000226 	beq	r3,zero,100d250 <strcmp+0xa4>
 100d248:	28800007 	ldb	r2,0(r5)
 100d24c:	18bffa26 	beq	r3,r2,100d238 <strcmp+0x8c>
 100d250:	20c00003 	ldbu	r3,0(r4)
 100d254:	28800003 	ldbu	r2,0(r5)
 100d258:	1885c83a 	sub	r2,r3,r2
 100d25c:	f800283a 	ret
 100d260:	0005883a 	mov	r2,zero
 100d264:	f800283a 	ret

0100d268 <_write_r>:
 100d268:	defffd04 	addi	sp,sp,-12
 100d26c:	dc000015 	stw	r16,0(sp)
 100d270:	04004174 	movhi	r16,261
 100d274:	84282a04 	addi	r16,r16,-24408
 100d278:	dc400115 	stw	r17,4(sp)
 100d27c:	80000015 	stw	zero,0(r16)
 100d280:	2023883a 	mov	r17,r4
 100d284:	2809883a 	mov	r4,r5
 100d288:	300b883a 	mov	r5,r6
 100d28c:	380d883a 	mov	r6,r7
 100d290:	dfc00215 	stw	ra,8(sp)
 100d294:	100f3440 	call	100f344 <write>
 100d298:	1007883a 	mov	r3,r2
 100d29c:	00bfffc4 	movi	r2,-1
 100d2a0:	18800626 	beq	r3,r2,100d2bc <_write_r+0x54>
 100d2a4:	1805883a 	mov	r2,r3
 100d2a8:	dfc00217 	ldw	ra,8(sp)
 100d2ac:	dc400117 	ldw	r17,4(sp)
 100d2b0:	dc000017 	ldw	r16,0(sp)
 100d2b4:	dec00304 	addi	sp,sp,12
 100d2b8:	f800283a 	ret
 100d2bc:	80800017 	ldw	r2,0(r16)
 100d2c0:	103ff826 	beq	r2,zero,100d2a4 <_write_r+0x3c>
 100d2c4:	88800015 	stw	r2,0(r17)
 100d2c8:	1805883a 	mov	r2,r3
 100d2cc:	dfc00217 	ldw	ra,8(sp)
 100d2d0:	dc400117 	ldw	r17,4(sp)
 100d2d4:	dc000017 	ldw	r16,0(sp)
 100d2d8:	dec00304 	addi	sp,sp,12
 100d2dc:	f800283a 	ret

0100d2e0 <_calloc_r>:
 100d2e0:	defffe04 	addi	sp,sp,-8
 100d2e4:	dc400015 	stw	r17,0(sp)
 100d2e8:	2023883a 	mov	r17,r4
 100d2ec:	2809883a 	mov	r4,r5
 100d2f0:	300b883a 	mov	r5,r6
 100d2f4:	dfc00115 	stw	ra,4(sp)
 100d2f8:	1005a5c0 	call	1005a5c <__mulsi3>
 100d2fc:	100b883a 	mov	r5,r2
 100d300:	8809883a 	mov	r4,r17
 100d304:	10061740 	call	1006174 <_malloc_r>
 100d308:	1023883a 	mov	r17,r2
 100d30c:	01c00904 	movi	r7,36
 100d310:	10000d26 	beq	r2,zero,100d348 <_calloc_r+0x68>
 100d314:	10ffff17 	ldw	r3,-4(r2)
 100d318:	1009883a 	mov	r4,r2
 100d31c:	00bfff04 	movi	r2,-4
 100d320:	1886703a 	and	r3,r3,r2
 100d324:	1887883a 	add	r3,r3,r2
 100d328:	180d883a 	mov	r6,r3
 100d32c:	000b883a 	mov	r5,zero
 100d330:	38c01736 	bltu	r7,r3,100d390 <_calloc_r+0xb0>
 100d334:	008004c4 	movi	r2,19
 100d338:	10c00836 	bltu	r2,r3,100d35c <_calloc_r+0x7c>
 100d33c:	20000215 	stw	zero,8(r4)
 100d340:	20000015 	stw	zero,0(r4)
 100d344:	20000115 	stw	zero,4(r4)
 100d348:	8805883a 	mov	r2,r17
 100d34c:	dfc00117 	ldw	ra,4(sp)
 100d350:	dc400017 	ldw	r17,0(sp)
 100d354:	dec00204 	addi	sp,sp,8
 100d358:	f800283a 	ret
 100d35c:	008006c4 	movi	r2,27
 100d360:	88000015 	stw	zero,0(r17)
 100d364:	88000115 	stw	zero,4(r17)
 100d368:	89000204 	addi	r4,r17,8
 100d36c:	10fff32e 	bgeu	r2,r3,100d33c <_calloc_r+0x5c>
 100d370:	88000215 	stw	zero,8(r17)
 100d374:	88000315 	stw	zero,12(r17)
 100d378:	89000404 	addi	r4,r17,16
 100d37c:	19ffef1e 	bne	r3,r7,100d33c <_calloc_r+0x5c>
 100d380:	89000604 	addi	r4,r17,24
 100d384:	88000415 	stw	zero,16(r17)
 100d388:	88000515 	stw	zero,20(r17)
 100d38c:	003feb06 	br	100d33c <_calloc_r+0x5c>
 100d390:	100b8d80 	call	100b8d8 <memset>
 100d394:	8805883a 	mov	r2,r17
 100d398:	dfc00117 	ldw	ra,4(sp)
 100d39c:	dc400017 	ldw	r17,0(sp)
 100d3a0:	dec00204 	addi	sp,sp,8
 100d3a4:	f800283a 	ret

0100d3a8 <_close_r>:
 100d3a8:	defffd04 	addi	sp,sp,-12
 100d3ac:	dc000015 	stw	r16,0(sp)
 100d3b0:	04004174 	movhi	r16,261
 100d3b4:	84282a04 	addi	r16,r16,-24408
 100d3b8:	dc400115 	stw	r17,4(sp)
 100d3bc:	80000015 	stw	zero,0(r16)
 100d3c0:	2023883a 	mov	r17,r4
 100d3c4:	2809883a 	mov	r4,r5
 100d3c8:	dfc00215 	stw	ra,8(sp)
 100d3cc:	100e5f80 	call	100e5f8 <close>
 100d3d0:	1007883a 	mov	r3,r2
 100d3d4:	00bfffc4 	movi	r2,-1
 100d3d8:	18800626 	beq	r3,r2,100d3f4 <_close_r+0x4c>
 100d3dc:	1805883a 	mov	r2,r3
 100d3e0:	dfc00217 	ldw	ra,8(sp)
 100d3e4:	dc400117 	ldw	r17,4(sp)
 100d3e8:	dc000017 	ldw	r16,0(sp)
 100d3ec:	dec00304 	addi	sp,sp,12
 100d3f0:	f800283a 	ret
 100d3f4:	80800017 	ldw	r2,0(r16)
 100d3f8:	103ff826 	beq	r2,zero,100d3dc <_close_r+0x34>
 100d3fc:	88800015 	stw	r2,0(r17)
 100d400:	1805883a 	mov	r2,r3
 100d404:	dfc00217 	ldw	ra,8(sp)
 100d408:	dc400117 	ldw	r17,4(sp)
 100d40c:	dc000017 	ldw	r16,0(sp)
 100d410:	dec00304 	addi	sp,sp,12
 100d414:	f800283a 	ret

0100d418 <_fclose_r>:
 100d418:	defffc04 	addi	sp,sp,-16
 100d41c:	dc400115 	stw	r17,4(sp)
 100d420:	dc000015 	stw	r16,0(sp)
 100d424:	dfc00315 	stw	ra,12(sp)
 100d428:	dc800215 	stw	r18,8(sp)
 100d42c:	2821883a 	mov	r16,r5
 100d430:	2023883a 	mov	r17,r4
 100d434:	28002926 	beq	r5,zero,100d4dc <_fclose_r+0xc4>
 100d438:	100a6b00 	call	100a6b0 <__sfp_lock_acquire>
 100d43c:	88000226 	beq	r17,zero,100d448 <_fclose_r+0x30>
 100d440:	88800e17 	ldw	r2,56(r17)
 100d444:	10002d26 	beq	r2,zero,100d4fc <_fclose_r+0xe4>
 100d448:	8080030f 	ldh	r2,12(r16)
 100d44c:	10002226 	beq	r2,zero,100d4d8 <_fclose_r+0xc0>
 100d450:	8809883a 	mov	r4,r17
 100d454:	800b883a 	mov	r5,r16
 100d458:	100a4280 	call	100a428 <_fflush_r>
 100d45c:	1025883a 	mov	r18,r2
 100d460:	80800b17 	ldw	r2,44(r16)
 100d464:	10000426 	beq	r2,zero,100d478 <_fclose_r+0x60>
 100d468:	81400717 	ldw	r5,28(r16)
 100d46c:	8809883a 	mov	r4,r17
 100d470:	103ee83a 	callr	r2
 100d474:	10002a16 	blt	r2,zero,100d520 <_fclose_r+0x108>
 100d478:	8080030b 	ldhu	r2,12(r16)
 100d47c:	1080200c 	andi	r2,r2,128
 100d480:	1000231e 	bne	r2,zero,100d510 <_fclose_r+0xf8>
 100d484:	81400c17 	ldw	r5,48(r16)
 100d488:	28000526 	beq	r5,zero,100d4a0 <_fclose_r+0x88>
 100d48c:	80801004 	addi	r2,r16,64
 100d490:	28800226 	beq	r5,r2,100d49c <_fclose_r+0x84>
 100d494:	8809883a 	mov	r4,r17
 100d498:	100aa780 	call	100aa78 <_free_r>
 100d49c:	80000c15 	stw	zero,48(r16)
 100d4a0:	81401117 	ldw	r5,68(r16)
 100d4a4:	28000326 	beq	r5,zero,100d4b4 <_fclose_r+0x9c>
 100d4a8:	8809883a 	mov	r4,r17
 100d4ac:	100aa780 	call	100aa78 <_free_r>
 100d4b0:	80001115 	stw	zero,68(r16)
 100d4b4:	8000030d 	sth	zero,12(r16)
 100d4b8:	100a6b40 	call	100a6b4 <__sfp_lock_release>
 100d4bc:	9005883a 	mov	r2,r18
 100d4c0:	dfc00317 	ldw	ra,12(sp)
 100d4c4:	dc800217 	ldw	r18,8(sp)
 100d4c8:	dc400117 	ldw	r17,4(sp)
 100d4cc:	dc000017 	ldw	r16,0(sp)
 100d4d0:	dec00404 	addi	sp,sp,16
 100d4d4:	f800283a 	ret
 100d4d8:	100a6b40 	call	100a6b4 <__sfp_lock_release>
 100d4dc:	0025883a 	mov	r18,zero
 100d4e0:	9005883a 	mov	r2,r18
 100d4e4:	dfc00317 	ldw	ra,12(sp)
 100d4e8:	dc800217 	ldw	r18,8(sp)
 100d4ec:	dc400117 	ldw	r17,4(sp)
 100d4f0:	dc000017 	ldw	r16,0(sp)
 100d4f4:	dec00404 	addi	sp,sp,16
 100d4f8:	f800283a 	ret
 100d4fc:	8809883a 	mov	r4,r17
 100d500:	100a6c00 	call	100a6c0 <__sinit>
 100d504:	8080030f 	ldh	r2,12(r16)
 100d508:	103fd11e 	bne	r2,zero,100d450 <_fclose_r+0x38>
 100d50c:	003ff206 	br	100d4d8 <_fclose_r+0xc0>
 100d510:	81400417 	ldw	r5,16(r16)
 100d514:	8809883a 	mov	r4,r17
 100d518:	100aa780 	call	100aa78 <_free_r>
 100d51c:	003fd906 	br	100d484 <_fclose_r+0x6c>
 100d520:	04bfffc4 	movi	r18,-1
 100d524:	003fd406 	br	100d478 <_fclose_r+0x60>

0100d528 <fclose>:
 100d528:	00804174 	movhi	r2,261
 100d52c:	10a15a04 	addi	r2,r2,-31384
 100d530:	200b883a 	mov	r5,r4
 100d534:	11000017 	ldw	r4,0(r2)
 100d538:	100d4181 	jmpi	100d418 <_fclose_r>

0100d53c <_fstat_r>:
 100d53c:	defffd04 	addi	sp,sp,-12
 100d540:	dc000015 	stw	r16,0(sp)
 100d544:	04004174 	movhi	r16,261
 100d548:	84282a04 	addi	r16,r16,-24408
 100d54c:	dc400115 	stw	r17,4(sp)
 100d550:	80000015 	stw	zero,0(r16)
 100d554:	2023883a 	mov	r17,r4
 100d558:	2809883a 	mov	r4,r5
 100d55c:	300b883a 	mov	r5,r6
 100d560:	dfc00215 	stw	ra,8(sp)
 100d564:	100e7840 	call	100e784 <fstat>
 100d568:	1007883a 	mov	r3,r2
 100d56c:	00bfffc4 	movi	r2,-1
 100d570:	18800626 	beq	r3,r2,100d58c <_fstat_r+0x50>
 100d574:	1805883a 	mov	r2,r3
 100d578:	dfc00217 	ldw	ra,8(sp)
 100d57c:	dc400117 	ldw	r17,4(sp)
 100d580:	dc000017 	ldw	r16,0(sp)
 100d584:	dec00304 	addi	sp,sp,12
 100d588:	f800283a 	ret
 100d58c:	80800017 	ldw	r2,0(r16)
 100d590:	103ff826 	beq	r2,zero,100d574 <_fstat_r+0x38>
 100d594:	88800015 	stw	r2,0(r17)
 100d598:	1805883a 	mov	r2,r3
 100d59c:	dfc00217 	ldw	ra,8(sp)
 100d5a0:	dc400117 	ldw	r17,4(sp)
 100d5a4:	dc000017 	ldw	r16,0(sp)
 100d5a8:	dec00304 	addi	sp,sp,12
 100d5ac:	f800283a 	ret

0100d5b0 <_isatty_r>:
 100d5b0:	defffd04 	addi	sp,sp,-12
 100d5b4:	dc000015 	stw	r16,0(sp)
 100d5b8:	04004174 	movhi	r16,261
 100d5bc:	84282a04 	addi	r16,r16,-24408
 100d5c0:	dc400115 	stw	r17,4(sp)
 100d5c4:	80000015 	stw	zero,0(r16)
 100d5c8:	2023883a 	mov	r17,r4
 100d5cc:	2809883a 	mov	r4,r5
 100d5d0:	dfc00215 	stw	ra,8(sp)
 100d5d4:	100ead80 	call	100ead8 <isatty>
 100d5d8:	1007883a 	mov	r3,r2
 100d5dc:	00bfffc4 	movi	r2,-1
 100d5e0:	18800626 	beq	r3,r2,100d5fc <_isatty_r+0x4c>
 100d5e4:	1805883a 	mov	r2,r3
 100d5e8:	dfc00217 	ldw	ra,8(sp)
 100d5ec:	dc400117 	ldw	r17,4(sp)
 100d5f0:	dc000017 	ldw	r16,0(sp)
 100d5f4:	dec00304 	addi	sp,sp,12
 100d5f8:	f800283a 	ret
 100d5fc:	80800017 	ldw	r2,0(r16)
 100d600:	103ff826 	beq	r2,zero,100d5e4 <_isatty_r+0x34>
 100d604:	88800015 	stw	r2,0(r17)
 100d608:	1805883a 	mov	r2,r3
 100d60c:	dfc00217 	ldw	ra,8(sp)
 100d610:	dc400117 	ldw	r17,4(sp)
 100d614:	dc000017 	ldw	r16,0(sp)
 100d618:	dec00304 	addi	sp,sp,12
 100d61c:	f800283a 	ret

0100d620 <_lseek_r>:
 100d620:	defffd04 	addi	sp,sp,-12
 100d624:	dc000015 	stw	r16,0(sp)
 100d628:	04004174 	movhi	r16,261
 100d62c:	84282a04 	addi	r16,r16,-24408
 100d630:	dc400115 	stw	r17,4(sp)
 100d634:	80000015 	stw	zero,0(r16)
 100d638:	2023883a 	mov	r17,r4
 100d63c:	2809883a 	mov	r4,r5
 100d640:	300b883a 	mov	r5,r6
 100d644:	380d883a 	mov	r6,r7
 100d648:	dfc00215 	stw	ra,8(sp)
 100d64c:	100ece80 	call	100ece8 <lseek>
 100d650:	1007883a 	mov	r3,r2
 100d654:	00bfffc4 	movi	r2,-1
 100d658:	18800626 	beq	r3,r2,100d674 <_lseek_r+0x54>
 100d65c:	1805883a 	mov	r2,r3
 100d660:	dfc00217 	ldw	ra,8(sp)
 100d664:	dc400117 	ldw	r17,4(sp)
 100d668:	dc000017 	ldw	r16,0(sp)
 100d66c:	dec00304 	addi	sp,sp,12
 100d670:	f800283a 	ret
 100d674:	80800017 	ldw	r2,0(r16)
 100d678:	103ff826 	beq	r2,zero,100d65c <_lseek_r+0x3c>
 100d67c:	88800015 	stw	r2,0(r17)
 100d680:	1805883a 	mov	r2,r3
 100d684:	dfc00217 	ldw	ra,8(sp)
 100d688:	dc400117 	ldw	r17,4(sp)
 100d68c:	dc000017 	ldw	r16,0(sp)
 100d690:	dec00304 	addi	sp,sp,12
 100d694:	f800283a 	ret

0100d698 <_read_r>:
 100d698:	defffd04 	addi	sp,sp,-12
 100d69c:	dc000015 	stw	r16,0(sp)
 100d6a0:	04004174 	movhi	r16,261
 100d6a4:	84282a04 	addi	r16,r16,-24408
 100d6a8:	dc400115 	stw	r17,4(sp)
 100d6ac:	80000015 	stw	zero,0(r16)
 100d6b0:	2023883a 	mov	r17,r4
 100d6b4:	2809883a 	mov	r4,r5
 100d6b8:	300b883a 	mov	r5,r6
 100d6bc:	380d883a 	mov	r6,r7
 100d6c0:	dfc00215 	stw	ra,8(sp)
 100d6c4:	100eee80 	call	100eee8 <read>
 100d6c8:	1007883a 	mov	r3,r2
 100d6cc:	00bfffc4 	movi	r2,-1
 100d6d0:	18800626 	beq	r3,r2,100d6ec <_read_r+0x54>
 100d6d4:	1805883a 	mov	r2,r3
 100d6d8:	dfc00217 	ldw	ra,8(sp)
 100d6dc:	dc400117 	ldw	r17,4(sp)
 100d6e0:	dc000017 	ldw	r16,0(sp)
 100d6e4:	dec00304 	addi	sp,sp,12
 100d6e8:	f800283a 	ret
 100d6ec:	80800017 	ldw	r2,0(r16)
 100d6f0:	103ff826 	beq	r2,zero,100d6d4 <_read_r+0x3c>
 100d6f4:	88800015 	stw	r2,0(r17)
 100d6f8:	1805883a 	mov	r2,r3
 100d6fc:	dfc00217 	ldw	ra,8(sp)
 100d700:	dc400117 	ldw	r17,4(sp)
 100d704:	dc000017 	ldw	r16,0(sp)
 100d708:	dec00304 	addi	sp,sp,12
 100d70c:	f800283a 	ret

0100d710 <__udivdi3>:
 100d710:	defff104 	addi	sp,sp,-60
 100d714:	0015883a 	mov	r10,zero
 100d718:	2005883a 	mov	r2,r4
 100d71c:	3011883a 	mov	r8,r6
 100d720:	df000d15 	stw	fp,52(sp)
 100d724:	dd400a15 	stw	r21,40(sp)
 100d728:	dcc00815 	stw	r19,32(sp)
 100d72c:	dfc00e15 	stw	ra,56(sp)
 100d730:	ddc00c15 	stw	r23,48(sp)
 100d734:	dd800b15 	stw	r22,44(sp)
 100d738:	dd000915 	stw	r20,36(sp)
 100d73c:	dc800715 	stw	r18,28(sp)
 100d740:	dc400615 	stw	r17,24(sp)
 100d744:	dc000515 	stw	r16,20(sp)
 100d748:	da800315 	stw	r10,12(sp)
 100d74c:	4027883a 	mov	r19,r8
 100d750:	1039883a 	mov	fp,r2
 100d754:	282b883a 	mov	r21,r5
 100d758:	da800415 	stw	r10,16(sp)
 100d75c:	3800401e 	bne	r7,zero,100d860 <__udivdi3+0x150>
 100d760:	2a006536 	bltu	r5,r8,100d8f8 <__udivdi3+0x1e8>
 100d764:	4000b526 	beq	r8,zero,100da3c <__udivdi3+0x32c>
 100d768:	00bfffd4 	movui	r2,65535
 100d76c:	14c0ad36 	bltu	r2,r19,100da24 <__udivdi3+0x314>
 100d770:	00803fc4 	movi	r2,255
 100d774:	14c15e36 	bltu	r2,r19,100dcf0 <__udivdi3+0x5e0>
 100d778:	000b883a 	mov	r5,zero
 100d77c:	0005883a 	mov	r2,zero
 100d780:	9884d83a 	srl	r2,r19,r2
 100d784:	01004134 	movhi	r4,260
 100d788:	2119bf04 	addi	r4,r4,26364
 100d78c:	01800804 	movi	r6,32
 100d790:	1105883a 	add	r2,r2,r4
 100d794:	10c00003 	ldbu	r3,0(r2)
 100d798:	28c7883a 	add	r3,r5,r3
 100d79c:	30e9c83a 	sub	r20,r6,r3
 100d7a0:	a0010a1e 	bne	r20,zero,100dbcc <__udivdi3+0x4bc>
 100d7a4:	982ed43a 	srli	r23,r19,16
 100d7a8:	acebc83a 	sub	r21,r21,r19
 100d7ac:	9dbfffcc 	andi	r22,r19,65535
 100d7b0:	05000044 	movi	r20,1
 100d7b4:	a809883a 	mov	r4,r21
 100d7b8:	b80b883a 	mov	r5,r23
 100d7bc:	1005a4c0 	call	1005a4c <__udivsi3>
 100d7c0:	100b883a 	mov	r5,r2
 100d7c4:	b009883a 	mov	r4,r22
 100d7c8:	1021883a 	mov	r16,r2
 100d7cc:	1005a5c0 	call	1005a5c <__mulsi3>
 100d7d0:	a809883a 	mov	r4,r21
 100d7d4:	b80b883a 	mov	r5,r23
 100d7d8:	1023883a 	mov	r17,r2
 100d7dc:	1005a540 	call	1005a54 <__umodsi3>
 100d7e0:	1004943a 	slli	r2,r2,16
 100d7e4:	e006d43a 	srli	r3,fp,16
 100d7e8:	10c4b03a 	or	r2,r2,r3
 100d7ec:	1440042e 	bgeu	r2,r17,100d800 <__udivdi3+0xf0>
 100d7f0:	14c5883a 	add	r2,r2,r19
 100d7f4:	843fffc4 	addi	r16,r16,-1
 100d7f8:	14c00136 	bltu	r2,r19,100d800 <__udivdi3+0xf0>
 100d7fc:	14415c36 	bltu	r2,r17,100dd70 <__udivdi3+0x660>
 100d800:	1463c83a 	sub	r17,r2,r17
 100d804:	8809883a 	mov	r4,r17
 100d808:	b80b883a 	mov	r5,r23
 100d80c:	1005a4c0 	call	1005a4c <__udivsi3>
 100d810:	100b883a 	mov	r5,r2
 100d814:	b009883a 	mov	r4,r22
 100d818:	102b883a 	mov	r21,r2
 100d81c:	1005a5c0 	call	1005a5c <__mulsi3>
 100d820:	8809883a 	mov	r4,r17
 100d824:	b80b883a 	mov	r5,r23
 100d828:	1025883a 	mov	r18,r2
 100d82c:	1005a540 	call	1005a54 <__umodsi3>
 100d830:	1004943a 	slli	r2,r2,16
 100d834:	e0ffffcc 	andi	r3,fp,65535
 100d838:	10c4b03a 	or	r2,r2,r3
 100d83c:	1480042e 	bgeu	r2,r18,100d850 <__udivdi3+0x140>
 100d840:	9885883a 	add	r2,r19,r2
 100d844:	ad7fffc4 	addi	r21,r21,-1
 100d848:	14c00136 	bltu	r2,r19,100d850 <__udivdi3+0x140>
 100d84c:	14813c36 	bltu	r2,r18,100dd40 <__udivdi3+0x630>
 100d850:	8004943a 	slli	r2,r16,16
 100d854:	a009883a 	mov	r4,r20
 100d858:	a884b03a 	or	r2,r21,r2
 100d85c:	00001506 	br	100d8b4 <__udivdi3+0x1a4>
 100d860:	380d883a 	mov	r6,r7
 100d864:	29c06c36 	bltu	r5,r7,100da18 <__udivdi3+0x308>
 100d868:	00bfffd4 	movui	r2,65535
 100d86c:	11c06436 	bltu	r2,r7,100da00 <__udivdi3+0x2f0>
 100d870:	00803fc4 	movi	r2,255
 100d874:	11c11836 	bltu	r2,r7,100dcd8 <__udivdi3+0x5c8>
 100d878:	000b883a 	mov	r5,zero
 100d87c:	0005883a 	mov	r2,zero
 100d880:	3084d83a 	srl	r2,r6,r2
 100d884:	01004134 	movhi	r4,260
 100d888:	2119bf04 	addi	r4,r4,26364
 100d88c:	01c00804 	movi	r7,32
 100d890:	1105883a 	add	r2,r2,r4
 100d894:	10c00003 	ldbu	r3,0(r2)
 100d898:	28c7883a 	add	r3,r5,r3
 100d89c:	38edc83a 	sub	r22,r7,r3
 100d8a0:	b000731e 	bne	r22,zero,100da70 <__udivdi3+0x360>
 100d8a4:	35400136 	bltu	r6,r21,100d8ac <__udivdi3+0x19c>
 100d8a8:	e4c05b36 	bltu	fp,r19,100da18 <__udivdi3+0x308>
 100d8ac:	00800044 	movi	r2,1
 100d8b0:	0009883a 	mov	r4,zero
 100d8b4:	d8800315 	stw	r2,12(sp)
 100d8b8:	d9400317 	ldw	r5,12(sp)
 100d8bc:	2007883a 	mov	r3,r4
 100d8c0:	d9000415 	stw	r4,16(sp)
 100d8c4:	2805883a 	mov	r2,r5
 100d8c8:	dfc00e17 	ldw	ra,56(sp)
 100d8cc:	df000d17 	ldw	fp,52(sp)
 100d8d0:	ddc00c17 	ldw	r23,48(sp)
 100d8d4:	dd800b17 	ldw	r22,44(sp)
 100d8d8:	dd400a17 	ldw	r21,40(sp)
 100d8dc:	dd000917 	ldw	r20,36(sp)
 100d8e0:	dcc00817 	ldw	r19,32(sp)
 100d8e4:	dc800717 	ldw	r18,28(sp)
 100d8e8:	dc400617 	ldw	r17,24(sp)
 100d8ec:	dc000517 	ldw	r16,20(sp)
 100d8f0:	dec00f04 	addi	sp,sp,60
 100d8f4:	f800283a 	ret
 100d8f8:	00bfffd4 	movui	r2,65535
 100d8fc:	12005636 	bltu	r2,r8,100da58 <__udivdi3+0x348>
 100d900:	00803fc4 	movi	r2,255
 100d904:	12010036 	bltu	r2,r8,100dd08 <__udivdi3+0x5f8>
 100d908:	000b883a 	mov	r5,zero
 100d90c:	0005883a 	mov	r2,zero
 100d910:	9884d83a 	srl	r2,r19,r2
 100d914:	01004134 	movhi	r4,260
 100d918:	2119bf04 	addi	r4,r4,26364
 100d91c:	01800804 	movi	r6,32
 100d920:	1105883a 	add	r2,r2,r4
 100d924:	10c00003 	ldbu	r3,0(r2)
 100d928:	28c7883a 	add	r3,r5,r3
 100d92c:	30cbc83a 	sub	r5,r6,r3
 100d930:	28000626 	beq	r5,zero,100d94c <__udivdi3+0x23c>
 100d934:	3145c83a 	sub	r2,r6,r5
 100d938:	e084d83a 	srl	r2,fp,r2
 100d93c:	a946983a 	sll	r3,r21,r5
 100d940:	e178983a 	sll	fp,fp,r5
 100d944:	9966983a 	sll	r19,r19,r5
 100d948:	18aab03a 	or	r21,r3,r2
 100d94c:	982ed43a 	srli	r23,r19,16
 100d950:	a809883a 	mov	r4,r21
 100d954:	9cbfffcc 	andi	r18,r19,65535
 100d958:	b80b883a 	mov	r5,r23
 100d95c:	1005a4c0 	call	1005a4c <__udivsi3>
 100d960:	100b883a 	mov	r5,r2
 100d964:	9009883a 	mov	r4,r18
 100d968:	1021883a 	mov	r16,r2
 100d96c:	1005a5c0 	call	1005a5c <__mulsi3>
 100d970:	a809883a 	mov	r4,r21
 100d974:	b80b883a 	mov	r5,r23
 100d978:	1023883a 	mov	r17,r2
 100d97c:	1005a540 	call	1005a54 <__umodsi3>
 100d980:	1004943a 	slli	r2,r2,16
 100d984:	e006d43a 	srli	r3,fp,16
 100d988:	10c4b03a 	or	r2,r2,r3
 100d98c:	1440042e 	bgeu	r2,r17,100d9a0 <__udivdi3+0x290>
 100d990:	14c5883a 	add	r2,r2,r19
 100d994:	843fffc4 	addi	r16,r16,-1
 100d998:	14c00136 	bltu	r2,r19,100d9a0 <__udivdi3+0x290>
 100d99c:	1440ea36 	bltu	r2,r17,100dd48 <__udivdi3+0x638>
 100d9a0:	1463c83a 	sub	r17,r2,r17
 100d9a4:	8809883a 	mov	r4,r17
 100d9a8:	b80b883a 	mov	r5,r23
 100d9ac:	1005a4c0 	call	1005a4c <__udivsi3>
 100d9b0:	100b883a 	mov	r5,r2
 100d9b4:	9009883a 	mov	r4,r18
 100d9b8:	102b883a 	mov	r21,r2
 100d9bc:	1005a5c0 	call	1005a5c <__mulsi3>
 100d9c0:	8809883a 	mov	r4,r17
 100d9c4:	b80b883a 	mov	r5,r23
 100d9c8:	1025883a 	mov	r18,r2
 100d9cc:	1005a540 	call	1005a54 <__umodsi3>
 100d9d0:	1004943a 	slli	r2,r2,16
 100d9d4:	e0ffffcc 	andi	r3,fp,65535
 100d9d8:	10c4b03a 	or	r2,r2,r3
 100d9dc:	1480042e 	bgeu	r2,r18,100d9f0 <__udivdi3+0x2e0>
 100d9e0:	9885883a 	add	r2,r19,r2
 100d9e4:	ad7fffc4 	addi	r21,r21,-1
 100d9e8:	14c00136 	bltu	r2,r19,100d9f0 <__udivdi3+0x2e0>
 100d9ec:	1480d936 	bltu	r2,r18,100dd54 <__udivdi3+0x644>
 100d9f0:	8004943a 	slli	r2,r16,16
 100d9f4:	0009883a 	mov	r4,zero
 100d9f8:	a884b03a 	or	r2,r21,r2
 100d9fc:	003fad06 	br	100d8b4 <__udivdi3+0x1a4>
 100da00:	00804034 	movhi	r2,256
 100da04:	10bfffc4 	addi	r2,r2,-1
 100da08:	11c0b636 	bltu	r2,r7,100dce4 <__udivdi3+0x5d4>
 100da0c:	01400404 	movi	r5,16
 100da10:	2805883a 	mov	r2,r5
 100da14:	003f9a06 	br	100d880 <__udivdi3+0x170>
 100da18:	0005883a 	mov	r2,zero
 100da1c:	0009883a 	mov	r4,zero
 100da20:	003fa406 	br	100d8b4 <__udivdi3+0x1a4>
 100da24:	00804034 	movhi	r2,256
 100da28:	10bfffc4 	addi	r2,r2,-1
 100da2c:	14c0b336 	bltu	r2,r19,100dcfc <__udivdi3+0x5ec>
 100da30:	01400404 	movi	r5,16
 100da34:	2805883a 	mov	r2,r5
 100da38:	003f5106 	br	100d780 <__udivdi3+0x70>
 100da3c:	01000044 	movi	r4,1
 100da40:	000b883a 	mov	r5,zero
 100da44:	1005a4c0 	call	1005a4c <__udivsi3>
 100da48:	1027883a 	mov	r19,r2
 100da4c:	00bfffd4 	movui	r2,65535
 100da50:	14fff436 	bltu	r2,r19,100da24 <__udivdi3+0x314>
 100da54:	003f4606 	br	100d770 <__udivdi3+0x60>
 100da58:	00804034 	movhi	r2,256
 100da5c:	10bfffc4 	addi	r2,r2,-1
 100da60:	1200ac36 	bltu	r2,r8,100dd14 <__udivdi3+0x604>
 100da64:	01400404 	movi	r5,16
 100da68:	2805883a 	mov	r2,r5
 100da6c:	003fa806 	br	100d910 <__udivdi3+0x200>
 100da70:	3d85c83a 	sub	r2,r7,r22
 100da74:	3588983a 	sll	r4,r6,r22
 100da78:	9886d83a 	srl	r3,r19,r2
 100da7c:	a8a2d83a 	srl	r17,r21,r2
 100da80:	e084d83a 	srl	r2,fp,r2
 100da84:	20eeb03a 	or	r23,r4,r3
 100da88:	b824d43a 	srli	r18,r23,16
 100da8c:	ad86983a 	sll	r3,r21,r22
 100da90:	8809883a 	mov	r4,r17
 100da94:	900b883a 	mov	r5,r18
 100da98:	1886b03a 	or	r3,r3,r2
 100da9c:	d8c00115 	stw	r3,4(sp)
 100daa0:	bc3fffcc 	andi	r16,r23,65535
 100daa4:	1005a4c0 	call	1005a4c <__udivsi3>
 100daa8:	100b883a 	mov	r5,r2
 100daac:	8009883a 	mov	r4,r16
 100dab0:	1029883a 	mov	r20,r2
 100dab4:	1005a5c0 	call	1005a5c <__mulsi3>
 100dab8:	900b883a 	mov	r5,r18
 100dabc:	8809883a 	mov	r4,r17
 100dac0:	102b883a 	mov	r21,r2
 100dac4:	1005a540 	call	1005a54 <__umodsi3>
 100dac8:	d9400117 	ldw	r5,4(sp)
 100dacc:	1004943a 	slli	r2,r2,16
 100dad0:	9da6983a 	sll	r19,r19,r22
 100dad4:	2806d43a 	srli	r3,r5,16
 100dad8:	10c4b03a 	or	r2,r2,r3
 100dadc:	1540032e 	bgeu	r2,r21,100daec <__udivdi3+0x3dc>
 100dae0:	15c5883a 	add	r2,r2,r23
 100dae4:	a53fffc4 	addi	r20,r20,-1
 100dae8:	15c0912e 	bgeu	r2,r23,100dd30 <__udivdi3+0x620>
 100daec:	1563c83a 	sub	r17,r2,r21
 100daf0:	8809883a 	mov	r4,r17
 100daf4:	900b883a 	mov	r5,r18
 100daf8:	1005a4c0 	call	1005a4c <__udivsi3>
 100dafc:	100b883a 	mov	r5,r2
 100db00:	8009883a 	mov	r4,r16
 100db04:	102b883a 	mov	r21,r2
 100db08:	1005a5c0 	call	1005a5c <__mulsi3>
 100db0c:	8809883a 	mov	r4,r17
 100db10:	900b883a 	mov	r5,r18
 100db14:	1021883a 	mov	r16,r2
 100db18:	1005a540 	call	1005a54 <__umodsi3>
 100db1c:	da800117 	ldw	r10,4(sp)
 100db20:	1004943a 	slli	r2,r2,16
 100db24:	50ffffcc 	andi	r3,r10,65535
 100db28:	10c6b03a 	or	r3,r2,r3
 100db2c:	1c00032e 	bgeu	r3,r16,100db3c <__udivdi3+0x42c>
 100db30:	1dc7883a 	add	r3,r3,r23
 100db34:	ad7fffc4 	addi	r21,r21,-1
 100db38:	1dc0792e 	bgeu	r3,r23,100dd20 <__udivdi3+0x610>
 100db3c:	a004943a 	slli	r2,r20,16
 100db40:	982ed43a 	srli	r23,r19,16
 100db44:	9cffffcc 	andi	r19,r19,65535
 100db48:	a8a4b03a 	or	r18,r21,r2
 100db4c:	947fffcc 	andi	r17,r18,65535
 100db50:	902ad43a 	srli	r21,r18,16
 100db54:	8809883a 	mov	r4,r17
 100db58:	980b883a 	mov	r5,r19
 100db5c:	1c21c83a 	sub	r16,r3,r16
 100db60:	1005a5c0 	call	1005a5c <__mulsi3>
 100db64:	8809883a 	mov	r4,r17
 100db68:	b80b883a 	mov	r5,r23
 100db6c:	1029883a 	mov	r20,r2
 100db70:	1005a5c0 	call	1005a5c <__mulsi3>
 100db74:	980b883a 	mov	r5,r19
 100db78:	a809883a 	mov	r4,r21
 100db7c:	1023883a 	mov	r17,r2
 100db80:	1005a5c0 	call	1005a5c <__mulsi3>
 100db84:	a809883a 	mov	r4,r21
 100db88:	b80b883a 	mov	r5,r23
 100db8c:	1027883a 	mov	r19,r2
 100db90:	1005a5c0 	call	1005a5c <__mulsi3>
 100db94:	1009883a 	mov	r4,r2
 100db98:	a004d43a 	srli	r2,r20,16
 100db9c:	8ce3883a 	add	r17,r17,r19
 100dba0:	1447883a 	add	r3,r2,r17
 100dba4:	1cc0022e 	bgeu	r3,r19,100dbb0 <__udivdi3+0x4a0>
 100dba8:	00800074 	movhi	r2,1
 100dbac:	2089883a 	add	r4,r4,r2
 100dbb0:	1804d43a 	srli	r2,r3,16
 100dbb4:	2085883a 	add	r2,r4,r2
 100dbb8:	80804436 	bltu	r16,r2,100dccc <__udivdi3+0x5bc>
 100dbbc:	80803e26 	beq	r16,r2,100dcb8 <__udivdi3+0x5a8>
 100dbc0:	9005883a 	mov	r2,r18
 100dbc4:	0009883a 	mov	r4,zero
 100dbc8:	003f3a06 	br	100d8b4 <__udivdi3+0x1a4>
 100dbcc:	9d26983a 	sll	r19,r19,r20
 100dbd0:	3505c83a 	sub	r2,r6,r20
 100dbd4:	a8a2d83a 	srl	r17,r21,r2
 100dbd8:	982ed43a 	srli	r23,r19,16
 100dbdc:	e084d83a 	srl	r2,fp,r2
 100dbe0:	ad06983a 	sll	r3,r21,r20
 100dbe4:	8809883a 	mov	r4,r17
 100dbe8:	b80b883a 	mov	r5,r23
 100dbec:	1886b03a 	or	r3,r3,r2
 100dbf0:	d8c00015 	stw	r3,0(sp)
 100dbf4:	9dbfffcc 	andi	r22,r19,65535
 100dbf8:	1005a4c0 	call	1005a4c <__udivsi3>
 100dbfc:	100b883a 	mov	r5,r2
 100dc00:	b009883a 	mov	r4,r22
 100dc04:	d8800215 	stw	r2,8(sp)
 100dc08:	1005a5c0 	call	1005a5c <__mulsi3>
 100dc0c:	8809883a 	mov	r4,r17
 100dc10:	b80b883a 	mov	r5,r23
 100dc14:	102b883a 	mov	r21,r2
 100dc18:	1005a540 	call	1005a54 <__umodsi3>
 100dc1c:	d9000017 	ldw	r4,0(sp)
 100dc20:	1004943a 	slli	r2,r2,16
 100dc24:	2006d43a 	srli	r3,r4,16
 100dc28:	10c4b03a 	or	r2,r2,r3
 100dc2c:	1540052e 	bgeu	r2,r21,100dc44 <__udivdi3+0x534>
 100dc30:	d9400217 	ldw	r5,8(sp)
 100dc34:	14c5883a 	add	r2,r2,r19
 100dc38:	297fffc4 	addi	r5,r5,-1
 100dc3c:	d9400215 	stw	r5,8(sp)
 100dc40:	14c0462e 	bgeu	r2,r19,100dd5c <__udivdi3+0x64c>
 100dc44:	1563c83a 	sub	r17,r2,r21
 100dc48:	8809883a 	mov	r4,r17
 100dc4c:	b80b883a 	mov	r5,r23
 100dc50:	1005a4c0 	call	1005a4c <__udivsi3>
 100dc54:	100b883a 	mov	r5,r2
 100dc58:	b009883a 	mov	r4,r22
 100dc5c:	1025883a 	mov	r18,r2
 100dc60:	1005a5c0 	call	1005a5c <__mulsi3>
 100dc64:	8809883a 	mov	r4,r17
 100dc68:	b80b883a 	mov	r5,r23
 100dc6c:	1021883a 	mov	r16,r2
 100dc70:	1005a540 	call	1005a54 <__umodsi3>
 100dc74:	da800017 	ldw	r10,0(sp)
 100dc78:	1004943a 	slli	r2,r2,16
 100dc7c:	50ffffcc 	andi	r3,r10,65535
 100dc80:	10c6b03a 	or	r3,r2,r3
 100dc84:	1c00062e 	bgeu	r3,r16,100dca0 <__udivdi3+0x590>
 100dc88:	1cc7883a 	add	r3,r3,r19
 100dc8c:	94bfffc4 	addi	r18,r18,-1
 100dc90:	1cc00336 	bltu	r3,r19,100dca0 <__udivdi3+0x590>
 100dc94:	1c00022e 	bgeu	r3,r16,100dca0 <__udivdi3+0x590>
 100dc98:	94bfffc4 	addi	r18,r18,-1
 100dc9c:	1cc7883a 	add	r3,r3,r19
 100dca0:	d9000217 	ldw	r4,8(sp)
 100dca4:	e538983a 	sll	fp,fp,r20
 100dca8:	1c2bc83a 	sub	r21,r3,r16
 100dcac:	2004943a 	slli	r2,r4,16
 100dcb0:	90a8b03a 	or	r20,r18,r2
 100dcb4:	003ebf06 	br	100d7b4 <__udivdi3+0xa4>
 100dcb8:	1804943a 	slli	r2,r3,16
 100dcbc:	e588983a 	sll	r4,fp,r22
 100dcc0:	a0ffffcc 	andi	r3,r20,65535
 100dcc4:	10c5883a 	add	r2,r2,r3
 100dcc8:	20bfbd2e 	bgeu	r4,r2,100dbc0 <__udivdi3+0x4b0>
 100dccc:	90bfffc4 	addi	r2,r18,-1
 100dcd0:	0009883a 	mov	r4,zero
 100dcd4:	003ef706 	br	100d8b4 <__udivdi3+0x1a4>
 100dcd8:	01400204 	movi	r5,8
 100dcdc:	2805883a 	mov	r2,r5
 100dce0:	003ee706 	br	100d880 <__udivdi3+0x170>
 100dce4:	01400604 	movi	r5,24
 100dce8:	2805883a 	mov	r2,r5
 100dcec:	003ee406 	br	100d880 <__udivdi3+0x170>
 100dcf0:	01400204 	movi	r5,8
 100dcf4:	2805883a 	mov	r2,r5
 100dcf8:	003ea106 	br	100d780 <__udivdi3+0x70>
 100dcfc:	01400604 	movi	r5,24
 100dd00:	2805883a 	mov	r2,r5
 100dd04:	003e9e06 	br	100d780 <__udivdi3+0x70>
 100dd08:	01400204 	movi	r5,8
 100dd0c:	2805883a 	mov	r2,r5
 100dd10:	003eff06 	br	100d910 <__udivdi3+0x200>
 100dd14:	01400604 	movi	r5,24
 100dd18:	2805883a 	mov	r2,r5
 100dd1c:	003efc06 	br	100d910 <__udivdi3+0x200>
 100dd20:	1c3f862e 	bgeu	r3,r16,100db3c <__udivdi3+0x42c>
 100dd24:	1dc7883a 	add	r3,r3,r23
 100dd28:	ad7fffc4 	addi	r21,r21,-1
 100dd2c:	003f8306 	br	100db3c <__udivdi3+0x42c>
 100dd30:	157f6e2e 	bgeu	r2,r21,100daec <__udivdi3+0x3dc>
 100dd34:	a53fffc4 	addi	r20,r20,-1
 100dd38:	15c5883a 	add	r2,r2,r23
 100dd3c:	003f6b06 	br	100daec <__udivdi3+0x3dc>
 100dd40:	ad7fffc4 	addi	r21,r21,-1
 100dd44:	003ec206 	br	100d850 <__udivdi3+0x140>
 100dd48:	843fffc4 	addi	r16,r16,-1
 100dd4c:	14c5883a 	add	r2,r2,r19
 100dd50:	003f1306 	br	100d9a0 <__udivdi3+0x290>
 100dd54:	ad7fffc4 	addi	r21,r21,-1
 100dd58:	003f2506 	br	100d9f0 <__udivdi3+0x2e0>
 100dd5c:	157fb92e 	bgeu	r2,r21,100dc44 <__udivdi3+0x534>
 100dd60:	297fffc4 	addi	r5,r5,-1
 100dd64:	14c5883a 	add	r2,r2,r19
 100dd68:	d9400215 	stw	r5,8(sp)
 100dd6c:	003fb506 	br	100dc44 <__udivdi3+0x534>
 100dd70:	843fffc4 	addi	r16,r16,-1
 100dd74:	14c5883a 	add	r2,r2,r19
 100dd78:	003ea106 	br	100d800 <__udivdi3+0xf0>

0100dd7c <__umoddi3>:
 100dd7c:	defff004 	addi	sp,sp,-64
 100dd80:	3011883a 	mov	r8,r6
 100dd84:	000d883a 	mov	r6,zero
 100dd88:	dd400b15 	stw	r21,44(sp)
 100dd8c:	dcc00915 	stw	r19,36(sp)
 100dd90:	dc000615 	stw	r16,24(sp)
 100dd94:	dfc00f15 	stw	ra,60(sp)
 100dd98:	df000e15 	stw	fp,56(sp)
 100dd9c:	ddc00d15 	stw	r23,52(sp)
 100dda0:	dd800c15 	stw	r22,48(sp)
 100dda4:	dd000a15 	stw	r20,40(sp)
 100dda8:	dc800815 	stw	r18,32(sp)
 100ddac:	dc400715 	stw	r17,28(sp)
 100ddb0:	2817883a 	mov	r11,r5
 100ddb4:	d9800415 	stw	r6,16(sp)
 100ddb8:	4027883a 	mov	r19,r8
 100ddbc:	d9800515 	stw	r6,20(sp)
 100ddc0:	2021883a 	mov	r16,r4
 100ddc4:	282b883a 	mov	r21,r5
 100ddc8:	38002c1e 	bne	r7,zero,100de7c <__umoddi3+0x100>
 100ddcc:	2a005636 	bltu	r5,r8,100df28 <__umoddi3+0x1ac>
 100ddd0:	40009a26 	beq	r8,zero,100e03c <__umoddi3+0x2c0>
 100ddd4:	00bfffd4 	movui	r2,65535
 100ddd8:	14c09236 	bltu	r2,r19,100e024 <__umoddi3+0x2a8>
 100dddc:	00803fc4 	movi	r2,255
 100dde0:	14c15c36 	bltu	r2,r19,100e354 <__umoddi3+0x5d8>
 100dde4:	000b883a 	mov	r5,zero
 100dde8:	0005883a 	mov	r2,zero
 100ddec:	9884d83a 	srl	r2,r19,r2
 100ddf0:	01004134 	movhi	r4,260
 100ddf4:	2119bf04 	addi	r4,r4,26364
 100ddf8:	01800804 	movi	r6,32
 100ddfc:	1105883a 	add	r2,r2,r4
 100de00:	10c00003 	ldbu	r3,0(r2)
 100de04:	28c7883a 	add	r3,r5,r3
 100de08:	30e5c83a 	sub	r18,r6,r3
 100de0c:	9000a41e 	bne	r18,zero,100e0a0 <__umoddi3+0x324>
 100de10:	982ed43a 	srli	r23,r19,16
 100de14:	acebc83a 	sub	r21,r21,r19
 100de18:	9d3fffcc 	andi	r20,r19,65535
 100de1c:	002d883a 	mov	r22,zero
 100de20:	a809883a 	mov	r4,r21
 100de24:	b80b883a 	mov	r5,r23
 100de28:	1005a4c0 	call	1005a4c <__udivsi3>
 100de2c:	100b883a 	mov	r5,r2
 100de30:	a009883a 	mov	r4,r20
 100de34:	1005a5c0 	call	1005a5c <__mulsi3>
 100de38:	a809883a 	mov	r4,r21
 100de3c:	b80b883a 	mov	r5,r23
 100de40:	1023883a 	mov	r17,r2
 100de44:	1005a540 	call	1005a54 <__umodsi3>
 100de48:	1004943a 	slli	r2,r2,16
 100de4c:	8006d43a 	srli	r3,r16,16
 100de50:	10c4b03a 	or	r2,r2,r3
 100de54:	1440032e 	bgeu	r2,r17,100de64 <__umoddi3+0xe8>
 100de58:	14c5883a 	add	r2,r2,r19
 100de5c:	14c00136 	bltu	r2,r19,100de64 <__umoddi3+0xe8>
 100de60:	14415836 	bltu	r2,r17,100e3c4 <__umoddi3+0x648>
 100de64:	1463c83a 	sub	r17,r2,r17
 100de68:	8809883a 	mov	r4,r17
 100de6c:	b80b883a 	mov	r5,r23
 100de70:	1005a4c0 	call	1005a4c <__udivsi3>
 100de74:	a009883a 	mov	r4,r20
 100de78:	00005306 	br	100dfc8 <__umoddi3+0x24c>
 100de7c:	380d883a 	mov	r6,r7
 100de80:	29c0132e 	bgeu	r5,r7,100ded0 <__umoddi3+0x154>
 100de84:	d9000415 	stw	r4,16(sp)
 100de88:	d9400515 	stw	r5,20(sp)
 100de8c:	d9400417 	ldw	r5,16(sp)
 100de90:	5813883a 	mov	r9,r11
 100de94:	2811883a 	mov	r8,r5
 100de98:	4005883a 	mov	r2,r8
 100de9c:	4807883a 	mov	r3,r9
 100dea0:	dfc00f17 	ldw	ra,60(sp)
 100dea4:	df000e17 	ldw	fp,56(sp)
 100dea8:	ddc00d17 	ldw	r23,52(sp)
 100deac:	dd800c17 	ldw	r22,48(sp)
 100deb0:	dd400b17 	ldw	r21,44(sp)
 100deb4:	dd000a17 	ldw	r20,40(sp)
 100deb8:	dcc00917 	ldw	r19,36(sp)
 100debc:	dc800817 	ldw	r18,32(sp)
 100dec0:	dc400717 	ldw	r17,28(sp)
 100dec4:	dc000617 	ldw	r16,24(sp)
 100dec8:	dec01004 	addi	sp,sp,64
 100decc:	f800283a 	ret
 100ded0:	00bfffd4 	movui	r2,65535
 100ded4:	11c06636 	bltu	r2,r7,100e070 <__umoddi3+0x2f4>
 100ded8:	00803fc4 	movi	r2,255
 100dedc:	11c12036 	bltu	r2,r7,100e360 <__umoddi3+0x5e4>
 100dee0:	000b883a 	mov	r5,zero
 100dee4:	0005883a 	mov	r2,zero
 100dee8:	3084d83a 	srl	r2,r6,r2
 100deec:	01004134 	movhi	r4,260
 100def0:	2119bf04 	addi	r4,r4,26364
 100def4:	01c00804 	movi	r7,32
 100def8:	1105883a 	add	r2,r2,r4
 100defc:	10c00003 	ldbu	r3,0(r2)
 100df00:	28c7883a 	add	r3,r5,r3
 100df04:	38e5c83a 	sub	r18,r7,r3
 100df08:	9000941e 	bne	r18,zero,100e15c <__umoddi3+0x3e0>
 100df0c:	35405e36 	bltu	r6,r21,100e088 <__umoddi3+0x30c>
 100df10:	84c05d2e 	bgeu	r16,r19,100e088 <__umoddi3+0x30c>
 100df14:	8011883a 	mov	r8,r16
 100df18:	a813883a 	mov	r9,r21
 100df1c:	dc000415 	stw	r16,16(sp)
 100df20:	dd400515 	stw	r21,20(sp)
 100df24:	003fdc06 	br	100de98 <__umoddi3+0x11c>
 100df28:	00bfffd4 	movui	r2,65535
 100df2c:	12004a36 	bltu	r2,r8,100e058 <__umoddi3+0x2dc>
 100df30:	00803fc4 	movi	r2,255
 100df34:	12010d36 	bltu	r2,r8,100e36c <__umoddi3+0x5f0>
 100df38:	000b883a 	mov	r5,zero
 100df3c:	0005883a 	mov	r2,zero
 100df40:	9884d83a 	srl	r2,r19,r2
 100df44:	01004134 	movhi	r4,260
 100df48:	2119bf04 	addi	r4,r4,26364
 100df4c:	01800804 	movi	r6,32
 100df50:	1105883a 	add	r2,r2,r4
 100df54:	10c00003 	ldbu	r3,0(r2)
 100df58:	28c7883a 	add	r3,r5,r3
 100df5c:	30c7c83a 	sub	r3,r6,r3
 100df60:	1800dc1e 	bne	r3,zero,100e2d4 <__umoddi3+0x558>
 100df64:	002d883a 	mov	r22,zero
 100df68:	982ed43a 	srli	r23,r19,16
 100df6c:	a809883a 	mov	r4,r21
 100df70:	9cbfffcc 	andi	r18,r19,65535
 100df74:	b80b883a 	mov	r5,r23
 100df78:	1005a4c0 	call	1005a4c <__udivsi3>
 100df7c:	100b883a 	mov	r5,r2
 100df80:	9009883a 	mov	r4,r18
 100df84:	1005a5c0 	call	1005a5c <__mulsi3>
 100df88:	a809883a 	mov	r4,r21
 100df8c:	b80b883a 	mov	r5,r23
 100df90:	1023883a 	mov	r17,r2
 100df94:	1005a540 	call	1005a54 <__umodsi3>
 100df98:	1004943a 	slli	r2,r2,16
 100df9c:	8006d43a 	srli	r3,r16,16
 100dfa0:	10c4b03a 	or	r2,r2,r3
 100dfa4:	1440032e 	bgeu	r2,r17,100dfb4 <__umoddi3+0x238>
 100dfa8:	14c5883a 	add	r2,r2,r19
 100dfac:	14c00136 	bltu	r2,r19,100dfb4 <__umoddi3+0x238>
 100dfb0:	14410236 	bltu	r2,r17,100e3bc <__umoddi3+0x640>
 100dfb4:	1463c83a 	sub	r17,r2,r17
 100dfb8:	8809883a 	mov	r4,r17
 100dfbc:	b80b883a 	mov	r5,r23
 100dfc0:	1005a4c0 	call	1005a4c <__udivsi3>
 100dfc4:	9009883a 	mov	r4,r18
 100dfc8:	100b883a 	mov	r5,r2
 100dfcc:	1005a5c0 	call	1005a5c <__mulsi3>
 100dfd0:	8809883a 	mov	r4,r17
 100dfd4:	b80b883a 	mov	r5,r23
 100dfd8:	102b883a 	mov	r21,r2
 100dfdc:	1005a540 	call	1005a54 <__umodsi3>
 100dfe0:	1004943a 	slli	r2,r2,16
 100dfe4:	80ffffcc 	andi	r3,r16,65535
 100dfe8:	10c4b03a 	or	r2,r2,r3
 100dfec:	1540042e 	bgeu	r2,r21,100e000 <__umoddi3+0x284>
 100dff0:	14c5883a 	add	r2,r2,r19
 100dff4:	14c00236 	bltu	r2,r19,100e000 <__umoddi3+0x284>
 100dff8:	1540012e 	bgeu	r2,r21,100e000 <__umoddi3+0x284>
 100dffc:	14c5883a 	add	r2,r2,r19
 100e000:	1545c83a 	sub	r2,r2,r21
 100e004:	1584d83a 	srl	r2,r2,r22
 100e008:	0013883a 	mov	r9,zero
 100e00c:	d8800415 	stw	r2,16(sp)
 100e010:	d8c00417 	ldw	r3,16(sp)
 100e014:	0005883a 	mov	r2,zero
 100e018:	d8800515 	stw	r2,20(sp)
 100e01c:	1811883a 	mov	r8,r3
 100e020:	003f9d06 	br	100de98 <__umoddi3+0x11c>
 100e024:	00804034 	movhi	r2,256
 100e028:	10bfffc4 	addi	r2,r2,-1
 100e02c:	14c0c636 	bltu	r2,r19,100e348 <__umoddi3+0x5cc>
 100e030:	01400404 	movi	r5,16
 100e034:	2805883a 	mov	r2,r5
 100e038:	003f6c06 	br	100ddec <__umoddi3+0x70>
 100e03c:	01000044 	movi	r4,1
 100e040:	000b883a 	mov	r5,zero
 100e044:	1005a4c0 	call	1005a4c <__udivsi3>
 100e048:	1027883a 	mov	r19,r2
 100e04c:	00bfffd4 	movui	r2,65535
 100e050:	14fff436 	bltu	r2,r19,100e024 <__umoddi3+0x2a8>
 100e054:	003f6106 	br	100dddc <__umoddi3+0x60>
 100e058:	00804034 	movhi	r2,256
 100e05c:	10bfffc4 	addi	r2,r2,-1
 100e060:	1200c536 	bltu	r2,r8,100e378 <__umoddi3+0x5fc>
 100e064:	01400404 	movi	r5,16
 100e068:	2805883a 	mov	r2,r5
 100e06c:	003fb406 	br	100df40 <__umoddi3+0x1c4>
 100e070:	00804034 	movhi	r2,256
 100e074:	10bfffc4 	addi	r2,r2,-1
 100e078:	11c0c236 	bltu	r2,r7,100e384 <__umoddi3+0x608>
 100e07c:	01400404 	movi	r5,16
 100e080:	2805883a 	mov	r2,r5
 100e084:	003f9806 	br	100dee8 <__umoddi3+0x16c>
 100e088:	84c9c83a 	sub	r4,r16,r19
 100e08c:	8105803a 	cmpltu	r2,r16,r4
 100e090:	a987c83a 	sub	r3,r21,r6
 100e094:	18abc83a 	sub	r21,r3,r2
 100e098:	2021883a 	mov	r16,r4
 100e09c:	003f9d06 	br	100df14 <__umoddi3+0x198>
 100e0a0:	9ca6983a 	sll	r19,r19,r18
 100e0a4:	3485c83a 	sub	r2,r6,r18
 100e0a8:	a8a2d83a 	srl	r17,r21,r2
 100e0ac:	982ed43a 	srli	r23,r19,16
 100e0b0:	ac86983a 	sll	r3,r21,r18
 100e0b4:	8084d83a 	srl	r2,r16,r2
 100e0b8:	8809883a 	mov	r4,r17
 100e0bc:	b80b883a 	mov	r5,r23
 100e0c0:	18b8b03a 	or	fp,r3,r2
 100e0c4:	9d3fffcc 	andi	r20,r19,65535
 100e0c8:	1005a4c0 	call	1005a4c <__udivsi3>
 100e0cc:	100b883a 	mov	r5,r2
 100e0d0:	a009883a 	mov	r4,r20
 100e0d4:	1005a5c0 	call	1005a5c <__mulsi3>
 100e0d8:	8809883a 	mov	r4,r17
 100e0dc:	b80b883a 	mov	r5,r23
 100e0e0:	102b883a 	mov	r21,r2
 100e0e4:	1005a540 	call	1005a54 <__umodsi3>
 100e0e8:	1004943a 	slli	r2,r2,16
 100e0ec:	e006d43a 	srli	r3,fp,16
 100e0f0:	902d883a 	mov	r22,r18
 100e0f4:	10c4b03a 	or	r2,r2,r3
 100e0f8:	1540022e 	bgeu	r2,r21,100e104 <__umoddi3+0x388>
 100e0fc:	14c5883a 	add	r2,r2,r19
 100e100:	14c0ab2e 	bgeu	r2,r19,100e3b0 <__umoddi3+0x634>
 100e104:	1563c83a 	sub	r17,r2,r21
 100e108:	8809883a 	mov	r4,r17
 100e10c:	b80b883a 	mov	r5,r23
 100e110:	1005a4c0 	call	1005a4c <__udivsi3>
 100e114:	100b883a 	mov	r5,r2
 100e118:	a009883a 	mov	r4,r20
 100e11c:	1005a5c0 	call	1005a5c <__mulsi3>
 100e120:	8809883a 	mov	r4,r17
 100e124:	b80b883a 	mov	r5,r23
 100e128:	102b883a 	mov	r21,r2
 100e12c:	1005a540 	call	1005a54 <__umodsi3>
 100e130:	1004943a 	slli	r2,r2,16
 100e134:	e0ffffcc 	andi	r3,fp,65535
 100e138:	10c4b03a 	or	r2,r2,r3
 100e13c:	1540042e 	bgeu	r2,r21,100e150 <__umoddi3+0x3d4>
 100e140:	14c5883a 	add	r2,r2,r19
 100e144:	14c00236 	bltu	r2,r19,100e150 <__umoddi3+0x3d4>
 100e148:	1540012e 	bgeu	r2,r21,100e150 <__umoddi3+0x3d4>
 100e14c:	14c5883a 	add	r2,r2,r19
 100e150:	84a0983a 	sll	r16,r16,r18
 100e154:	156bc83a 	sub	r21,r2,r21
 100e158:	003f3106 	br	100de20 <__umoddi3+0xa4>
 100e15c:	3c8fc83a 	sub	r7,r7,r18
 100e160:	3486983a 	sll	r3,r6,r18
 100e164:	99c4d83a 	srl	r2,r19,r7
 100e168:	a9e2d83a 	srl	r17,r21,r7
 100e16c:	ac8c983a 	sll	r6,r21,r18
 100e170:	18acb03a 	or	r22,r3,r2
 100e174:	b02ed43a 	srli	r23,r22,16
 100e178:	81c4d83a 	srl	r2,r16,r7
 100e17c:	8809883a 	mov	r4,r17
 100e180:	b80b883a 	mov	r5,r23
 100e184:	308cb03a 	or	r6,r6,r2
 100e188:	d9c00315 	stw	r7,12(sp)
 100e18c:	d9800215 	stw	r6,8(sp)
 100e190:	b53fffcc 	andi	r20,r22,65535
 100e194:	1005a4c0 	call	1005a4c <__udivsi3>
 100e198:	100b883a 	mov	r5,r2
 100e19c:	a009883a 	mov	r4,r20
 100e1a0:	1039883a 	mov	fp,r2
 100e1a4:	1005a5c0 	call	1005a5c <__mulsi3>
 100e1a8:	8809883a 	mov	r4,r17
 100e1ac:	b80b883a 	mov	r5,r23
 100e1b0:	102b883a 	mov	r21,r2
 100e1b4:	1005a540 	call	1005a54 <__umodsi3>
 100e1b8:	d9000217 	ldw	r4,8(sp)
 100e1bc:	1004943a 	slli	r2,r2,16
 100e1c0:	9ca6983a 	sll	r19,r19,r18
 100e1c4:	2006d43a 	srli	r3,r4,16
 100e1c8:	84a0983a 	sll	r16,r16,r18
 100e1cc:	dcc00015 	stw	r19,0(sp)
 100e1d0:	10c4b03a 	or	r2,r2,r3
 100e1d4:	dc000115 	stw	r16,4(sp)
 100e1d8:	1540032e 	bgeu	r2,r21,100e1e8 <__umoddi3+0x46c>
 100e1dc:	1585883a 	add	r2,r2,r22
 100e1e0:	e73fffc4 	addi	fp,fp,-1
 100e1e4:	15806e2e 	bgeu	r2,r22,100e3a0 <__umoddi3+0x624>
 100e1e8:	1563c83a 	sub	r17,r2,r21
 100e1ec:	8809883a 	mov	r4,r17
 100e1f0:	b80b883a 	mov	r5,r23
 100e1f4:	1005a4c0 	call	1005a4c <__udivsi3>
 100e1f8:	100b883a 	mov	r5,r2
 100e1fc:	a009883a 	mov	r4,r20
 100e200:	1021883a 	mov	r16,r2
 100e204:	1005a5c0 	call	1005a5c <__mulsi3>
 100e208:	b80b883a 	mov	r5,r23
 100e20c:	8809883a 	mov	r4,r17
 100e210:	1029883a 	mov	r20,r2
 100e214:	1005a540 	call	1005a54 <__umodsi3>
 100e218:	d9400217 	ldw	r5,8(sp)
 100e21c:	1004943a 	slli	r2,r2,16
 100e220:	28ffffcc 	andi	r3,r5,65535
 100e224:	10c4b03a 	or	r2,r2,r3
 100e228:	1500032e 	bgeu	r2,r20,100e238 <__umoddi3+0x4bc>
 100e22c:	1585883a 	add	r2,r2,r22
 100e230:	843fffc4 	addi	r16,r16,-1
 100e234:	1580562e 	bgeu	r2,r22,100e390 <__umoddi3+0x614>
 100e238:	d9800017 	ldw	r6,0(sp)
 100e23c:	e022943a 	slli	r17,fp,16
 100e240:	302ed43a 	srli	r23,r6,16
 100e244:	8462b03a 	or	r17,r16,r17
 100e248:	34ffffcc 	andi	r19,r6,65535
 100e24c:	882ad43a 	srli	r21,r17,16
 100e250:	8c7fffcc 	andi	r17,r17,65535
 100e254:	8809883a 	mov	r4,r17
 100e258:	980b883a 	mov	r5,r19
 100e25c:	1521c83a 	sub	r16,r2,r20
 100e260:	1005a5c0 	call	1005a5c <__mulsi3>
 100e264:	8809883a 	mov	r4,r17
 100e268:	b80b883a 	mov	r5,r23
 100e26c:	1029883a 	mov	r20,r2
 100e270:	1005a5c0 	call	1005a5c <__mulsi3>
 100e274:	980b883a 	mov	r5,r19
 100e278:	a809883a 	mov	r4,r21
 100e27c:	1023883a 	mov	r17,r2
 100e280:	1005a5c0 	call	1005a5c <__mulsi3>
 100e284:	a809883a 	mov	r4,r21
 100e288:	b80b883a 	mov	r5,r23
 100e28c:	1027883a 	mov	r19,r2
 100e290:	1005a5c0 	call	1005a5c <__mulsi3>
 100e294:	100b883a 	mov	r5,r2
 100e298:	a004d43a 	srli	r2,r20,16
 100e29c:	8ce3883a 	add	r17,r17,r19
 100e2a0:	1449883a 	add	r4,r2,r17
 100e2a4:	24c0022e 	bgeu	r4,r19,100e2b0 <__umoddi3+0x534>
 100e2a8:	00800074 	movhi	r2,1
 100e2ac:	288b883a 	add	r5,r5,r2
 100e2b0:	2004d43a 	srli	r2,r4,16
 100e2b4:	2008943a 	slli	r4,r4,16
 100e2b8:	a0ffffcc 	andi	r3,r20,65535
 100e2bc:	288d883a 	add	r6,r5,r2
 100e2c0:	20c9883a 	add	r4,r4,r3
 100e2c4:	81800b36 	bltu	r16,r6,100e2f4 <__umoddi3+0x578>
 100e2c8:	81804026 	beq	r16,r6,100e3cc <__umoddi3+0x650>
 100e2cc:	818dc83a 	sub	r6,r16,r6
 100e2d0:	00000f06 	br	100e310 <__umoddi3+0x594>
 100e2d4:	30c5c83a 	sub	r2,r6,r3
 100e2d8:	182d883a 	mov	r22,r3
 100e2dc:	8084d83a 	srl	r2,r16,r2
 100e2e0:	a8c6983a 	sll	r3,r21,r3
 100e2e4:	9da6983a 	sll	r19,r19,r22
 100e2e8:	85a0983a 	sll	r16,r16,r22
 100e2ec:	18aab03a 	or	r21,r3,r2
 100e2f0:	003f1d06 	br	100df68 <__umoddi3+0x1ec>
 100e2f4:	d8c00017 	ldw	r3,0(sp)
 100e2f8:	20c5c83a 	sub	r2,r4,r3
 100e2fc:	2089803a 	cmpltu	r4,r4,r2
 100e300:	3587c83a 	sub	r3,r6,r22
 100e304:	1907c83a 	sub	r3,r3,r4
 100e308:	80cdc83a 	sub	r6,r16,r3
 100e30c:	1009883a 	mov	r4,r2
 100e310:	d9400117 	ldw	r5,4(sp)
 100e314:	2905c83a 	sub	r2,r5,r4
 100e318:	2887803a 	cmpltu	r3,r5,r2
 100e31c:	30c7c83a 	sub	r3,r6,r3
 100e320:	d9800317 	ldw	r6,12(sp)
 100e324:	1484d83a 	srl	r2,r2,r18
 100e328:	1988983a 	sll	r4,r3,r6
 100e32c:	1c86d83a 	srl	r3,r3,r18
 100e330:	2088b03a 	or	r4,r4,r2
 100e334:	2011883a 	mov	r8,r4
 100e338:	1813883a 	mov	r9,r3
 100e33c:	d9000415 	stw	r4,16(sp)
 100e340:	d8c00515 	stw	r3,20(sp)
 100e344:	003ed406 	br	100de98 <__umoddi3+0x11c>
 100e348:	01400604 	movi	r5,24
 100e34c:	2805883a 	mov	r2,r5
 100e350:	003ea606 	br	100ddec <__umoddi3+0x70>
 100e354:	01400204 	movi	r5,8
 100e358:	2805883a 	mov	r2,r5
 100e35c:	003ea306 	br	100ddec <__umoddi3+0x70>
 100e360:	01400204 	movi	r5,8
 100e364:	2805883a 	mov	r2,r5
 100e368:	003edf06 	br	100dee8 <__umoddi3+0x16c>
 100e36c:	01400204 	movi	r5,8
 100e370:	2805883a 	mov	r2,r5
 100e374:	003ef206 	br	100df40 <__umoddi3+0x1c4>
 100e378:	01400604 	movi	r5,24
 100e37c:	2805883a 	mov	r2,r5
 100e380:	003eef06 	br	100df40 <__umoddi3+0x1c4>
 100e384:	01400604 	movi	r5,24
 100e388:	2805883a 	mov	r2,r5
 100e38c:	003ed606 	br	100dee8 <__umoddi3+0x16c>
 100e390:	153fa92e 	bgeu	r2,r20,100e238 <__umoddi3+0x4bc>
 100e394:	843fffc4 	addi	r16,r16,-1
 100e398:	1585883a 	add	r2,r2,r22
 100e39c:	003fa606 	br	100e238 <__umoddi3+0x4bc>
 100e3a0:	157f912e 	bgeu	r2,r21,100e1e8 <__umoddi3+0x46c>
 100e3a4:	e73fffc4 	addi	fp,fp,-1
 100e3a8:	1585883a 	add	r2,r2,r22
 100e3ac:	003f8e06 	br	100e1e8 <__umoddi3+0x46c>
 100e3b0:	157f542e 	bgeu	r2,r21,100e104 <__umoddi3+0x388>
 100e3b4:	14c5883a 	add	r2,r2,r19
 100e3b8:	003f5206 	br	100e104 <__umoddi3+0x388>
 100e3bc:	14c5883a 	add	r2,r2,r19
 100e3c0:	003efc06 	br	100dfb4 <__umoddi3+0x238>
 100e3c4:	14c5883a 	add	r2,r2,r19
 100e3c8:	003ea606 	br	100de64 <__umoddi3+0xe8>
 100e3cc:	d8800117 	ldw	r2,4(sp)
 100e3d0:	113fc836 	bltu	r2,r4,100e2f4 <__umoddi3+0x578>
 100e3d4:	000d883a 	mov	r6,zero
 100e3d8:	003fcd06 	br	100e310 <__umoddi3+0x594>

0100e3dc <__nedf2>:
 100e3dc:	deffef04 	addi	sp,sp,-68
 100e3e0:	dc400f15 	stw	r17,60(sp)
 100e3e4:	dc400404 	addi	r17,sp,16
 100e3e8:	2005883a 	mov	r2,r4
 100e3ec:	2807883a 	mov	r3,r5
 100e3f0:	dc000e15 	stw	r16,56(sp)
 100e3f4:	d809883a 	mov	r4,sp
 100e3f8:	880b883a 	mov	r5,r17
 100e3fc:	dc000904 	addi	r16,sp,36
 100e400:	d8c00115 	stw	r3,4(sp)
 100e404:	d8800015 	stw	r2,0(sp)
 100e408:	d9800215 	stw	r6,8(sp)
 100e40c:	dfc01015 	stw	ra,64(sp)
 100e410:	d9c00315 	stw	r7,12(sp)
 100e414:	1005f4c0 	call	1005f4c <__unpack_d>
 100e418:	d9000204 	addi	r4,sp,8
 100e41c:	800b883a 	mov	r5,r16
 100e420:	1005f4c0 	call	1005f4c <__unpack_d>
 100e424:	d8800417 	ldw	r2,16(sp)
 100e428:	00c00044 	movi	r3,1
 100e42c:	180d883a 	mov	r6,r3
 100e430:	1880062e 	bgeu	r3,r2,100e44c <__nedf2+0x70>
 100e434:	d8800917 	ldw	r2,36(sp)
 100e438:	8809883a 	mov	r4,r17
 100e43c:	800b883a 	mov	r5,r16
 100e440:	1880022e 	bgeu	r3,r2,100e44c <__nedf2+0x70>
 100e444:	10060840 	call	1006084 <__fpcmp_parts_d>
 100e448:	100d883a 	mov	r6,r2
 100e44c:	3005883a 	mov	r2,r6
 100e450:	dfc01017 	ldw	ra,64(sp)
 100e454:	dc400f17 	ldw	r17,60(sp)
 100e458:	dc000e17 	ldw	r16,56(sp)
 100e45c:	dec01104 	addi	sp,sp,68
 100e460:	f800283a 	ret

0100e464 <__floatunsidf>:
 100e464:	defff204 	addi	sp,sp,-56
 100e468:	dfc00d15 	stw	ra,52(sp)
 100e46c:	ddc00c15 	stw	r23,48(sp)
 100e470:	dd800b15 	stw	r22,44(sp)
 100e474:	dd400a15 	stw	r21,40(sp)
 100e478:	dd000915 	stw	r20,36(sp)
 100e47c:	dcc00815 	stw	r19,32(sp)
 100e480:	dc800715 	stw	r18,28(sp)
 100e484:	dc400615 	stw	r17,24(sp)
 100e488:	dc000515 	stw	r16,20(sp)
 100e48c:	d8000115 	stw	zero,4(sp)
 100e490:	20000f1e 	bne	r4,zero,100e4d0 <__floatunsidf+0x6c>
 100e494:	00800084 	movi	r2,2
 100e498:	d8800015 	stw	r2,0(sp)
 100e49c:	d809883a 	mov	r4,sp
 100e4a0:	1005c380 	call	1005c38 <__pack_d>
 100e4a4:	dfc00d17 	ldw	ra,52(sp)
 100e4a8:	ddc00c17 	ldw	r23,48(sp)
 100e4ac:	dd800b17 	ldw	r22,44(sp)
 100e4b0:	dd400a17 	ldw	r21,40(sp)
 100e4b4:	dd000917 	ldw	r20,36(sp)
 100e4b8:	dcc00817 	ldw	r19,32(sp)
 100e4bc:	dc800717 	ldw	r18,28(sp)
 100e4c0:	dc400617 	ldw	r17,24(sp)
 100e4c4:	dc000517 	ldw	r16,20(sp)
 100e4c8:	dec00e04 	addi	sp,sp,56
 100e4cc:	f800283a 	ret
 100e4d0:	008000c4 	movi	r2,3
 100e4d4:	00c00f04 	movi	r3,60
 100e4d8:	002f883a 	mov	r23,zero
 100e4dc:	202d883a 	mov	r22,r4
 100e4e0:	d8800015 	stw	r2,0(sp)
 100e4e4:	d8c00215 	stw	r3,8(sp)
 100e4e8:	d9000315 	stw	r4,12(sp)
 100e4ec:	ddc00415 	stw	r23,16(sp)
 100e4f0:	1005bb80 	call	1005bb8 <__clzsi2>
 100e4f4:	12400744 	addi	r9,r2,29
 100e4f8:	48000b16 	blt	r9,zero,100e528 <__floatunsidf+0xc4>
 100e4fc:	483fe726 	beq	r9,zero,100e49c <__floatunsidf+0x38>
 100e500:	10bfff44 	addi	r2,r2,-3
 100e504:	10002e16 	blt	r2,zero,100e5c0 <__floatunsidf+0x15c>
 100e508:	b0a2983a 	sll	r17,r22,r2
 100e50c:	0021883a 	mov	r16,zero
 100e510:	d8800217 	ldw	r2,8(sp)
 100e514:	dc400415 	stw	r17,16(sp)
 100e518:	dc000315 	stw	r16,12(sp)
 100e51c:	1245c83a 	sub	r2,r2,r9
 100e520:	d8800215 	stw	r2,8(sp)
 100e524:	003fdd06 	br	100e49c <__floatunsidf+0x38>
 100e528:	0255c83a 	sub	r10,zero,r9
 100e52c:	51bff804 	addi	r6,r10,-32
 100e530:	30001b16 	blt	r6,zero,100e5a0 <__floatunsidf+0x13c>
 100e534:	b9a8d83a 	srl	r20,r23,r6
 100e538:	002b883a 	mov	r21,zero
 100e53c:	000f883a 	mov	r7,zero
 100e540:	01000044 	movi	r4,1
 100e544:	0011883a 	mov	r8,zero
 100e548:	30002516 	blt	r6,zero,100e5e0 <__floatunsidf+0x17c>
 100e54c:	21a6983a 	sll	r19,r4,r6
 100e550:	0025883a 	mov	r18,zero
 100e554:	00bfffc4 	movi	r2,-1
 100e558:	9089883a 	add	r4,r18,r2
 100e55c:	988b883a 	add	r5,r19,r2
 100e560:	248d803a 	cmpltu	r6,r4,r18
 100e564:	314b883a 	add	r5,r6,r5
 100e568:	b104703a 	and	r2,r22,r4
 100e56c:	b946703a 	and	r3,r23,r5
 100e570:	10c4b03a 	or	r2,r2,r3
 100e574:	10000226 	beq	r2,zero,100e580 <__floatunsidf+0x11c>
 100e578:	01c00044 	movi	r7,1
 100e57c:	0011883a 	mov	r8,zero
 100e580:	d9000217 	ldw	r4,8(sp)
 100e584:	a1c4b03a 	or	r2,r20,r7
 100e588:	aa06b03a 	or	r3,r21,r8
 100e58c:	2249c83a 	sub	r4,r4,r9
 100e590:	d8c00415 	stw	r3,16(sp)
 100e594:	d9000215 	stw	r4,8(sp)
 100e598:	d8800315 	stw	r2,12(sp)
 100e59c:	003fbf06 	br	100e49c <__floatunsidf+0x38>
 100e5a0:	bdc7883a 	add	r3,r23,r23
 100e5a4:	008007c4 	movi	r2,31
 100e5a8:	1285c83a 	sub	r2,r2,r10
 100e5ac:	1886983a 	sll	r3,r3,r2
 100e5b0:	b2a8d83a 	srl	r20,r22,r10
 100e5b4:	baaad83a 	srl	r21,r23,r10
 100e5b8:	1d28b03a 	or	r20,r3,r20
 100e5bc:	003fdf06 	br	100e53c <__floatunsidf+0xd8>
 100e5c0:	b006d07a 	srli	r3,r22,1
 100e5c4:	008007c4 	movi	r2,31
 100e5c8:	1245c83a 	sub	r2,r2,r9
 100e5cc:	1886d83a 	srl	r3,r3,r2
 100e5d0:	ba62983a 	sll	r17,r23,r9
 100e5d4:	b260983a 	sll	r16,r22,r9
 100e5d8:	1c62b03a 	or	r17,r3,r17
 100e5dc:	003fcc06 	br	100e510 <__floatunsidf+0xac>
 100e5e0:	2006d07a 	srli	r3,r4,1
 100e5e4:	008007c4 	movi	r2,31
 100e5e8:	1285c83a 	sub	r2,r2,r10
 100e5ec:	18a6d83a 	srl	r19,r3,r2
 100e5f0:	22a4983a 	sll	r18,r4,r10
 100e5f4:	003fd706 	br	100e554 <__floatunsidf+0xf0>

0100e5f8 <close>:
 *
 * ALT_CLOSE is mapped onto the close() system call in alt_syscall.h
 */
 
int ALT_CLOSE (int fildes)
{
 100e5f8:	defff804 	addi	sp,sp,-32
 100e5fc:	dfc00715 	stw	ra,28(sp)
 100e600:	df000615 	stw	fp,24(sp)
 100e604:	df000604 	addi	fp,sp,24
 100e608:	e13ffc15 	stw	r4,-16(fp)
   * A common error case is that when the file descriptor was created, the call
   * to open() failed resulting in a negative file descriptor. This is trapped
   * below so that we don't try and process an invalid file descriptor.
   */

  fd = (fildes < 0) ? NULL : &alt_fd_list[fildes];
 100e60c:	e0bffc17 	ldw	r2,-16(fp)
 100e610:	1004803a 	cmplt	r2,r2,zero
 100e614:	1000091e 	bne	r2,zero,100e63c <close+0x44>
 100e618:	e13ffc17 	ldw	r4,-16(fp)
 100e61c:	01400304 	movi	r5,12
 100e620:	1005a5c0 	call	1005a5c <__mulsi3>
 100e624:	1007883a 	mov	r3,r2
 100e628:	00804134 	movhi	r2,260
 100e62c:	109cb904 	addi	r2,r2,29412
 100e630:	1887883a 	add	r3,r3,r2
 100e634:	e0ffff15 	stw	r3,-4(fp)
 100e638:	00000106 	br	100e640 <close+0x48>
 100e63c:	e03fff15 	stw	zero,-4(fp)
 100e640:	e0bfff17 	ldw	r2,-4(fp)
 100e644:	e0bffb15 	stw	r2,-20(fp)

  if (fd)
 100e648:	e0bffb17 	ldw	r2,-20(fp)
 100e64c:	1005003a 	cmpeq	r2,r2,zero
 100e650:	10001d1e 	bne	r2,zero,100e6c8 <close+0xd0>
    /*
     * If the associated file system/device has a close function, call it so 
     * that any necessary cleanup code can run.
     */

    rval = (fd->dev->close) ? fd->dev->close(fd) : 0;
 100e654:	e0bffb17 	ldw	r2,-20(fp)
 100e658:	10800017 	ldw	r2,0(r2)
 100e65c:	10800417 	ldw	r2,16(r2)
 100e660:	1005003a 	cmpeq	r2,r2,zero
 100e664:	1000071e 	bne	r2,zero,100e684 <close+0x8c>
 100e668:	e0bffb17 	ldw	r2,-20(fp)
 100e66c:	10800017 	ldw	r2,0(r2)
 100e670:	10800417 	ldw	r2,16(r2)
 100e674:	e13ffb17 	ldw	r4,-20(fp)
 100e678:	103ee83a 	callr	r2
 100e67c:	e0bffe15 	stw	r2,-8(fp)
 100e680:	00000106 	br	100e688 <close+0x90>
 100e684:	e03ffe15 	stw	zero,-8(fp)
 100e688:	e0bffe17 	ldw	r2,-8(fp)
 100e68c:	e0bffa15 	stw	r2,-24(fp)

    /* Free the file descriptor structure and return. */

    alt_release_fd (fildes);
 100e690:	e13ffc17 	ldw	r4,-16(fp)
 100e694:	100f06c0 	call	100f06c <alt_release_fd>
    if (rval < 0)
 100e698:	e0bffa17 	ldw	r2,-24(fp)
 100e69c:	1004403a 	cmpge	r2,r2,zero
 100e6a0:	1000071e 	bne	r2,zero,100e6c0 <close+0xc8>
    {
      ALT_ERRNO = -rval;
 100e6a4:	100e6f80 	call	100e6f8 <alt_get_errno>
 100e6a8:	e0fffa17 	ldw	r3,-24(fp)
 100e6ac:	00c7c83a 	sub	r3,zero,r3
 100e6b0:	10c00015 	stw	r3,0(r2)
      return -1;
 100e6b4:	00bfffc4 	movi	r2,-1
 100e6b8:	e0bffd15 	stw	r2,-12(fp)
 100e6bc:	00000806 	br	100e6e0 <close+0xe8>
    }
    return 0;
 100e6c0:	e03ffd15 	stw	zero,-12(fp)
 100e6c4:	00000606 	br	100e6e0 <close+0xe8>
  }
  else
  {
    ALT_ERRNO = EBADFD;
 100e6c8:	100e6f80 	call	100e6f8 <alt_get_errno>
 100e6cc:	1007883a 	mov	r3,r2
 100e6d0:	00801444 	movi	r2,81
 100e6d4:	18800015 	stw	r2,0(r3)
    return -1;
 100e6d8:	00bfffc4 	movi	r2,-1
 100e6dc:	e0bffd15 	stw	r2,-12(fp)
 100e6e0:	e0bffd17 	ldw	r2,-12(fp)
  }
}
 100e6e4:	e037883a 	mov	sp,fp
 100e6e8:	dfc00117 	ldw	ra,4(sp)
 100e6ec:	df000017 	ldw	fp,0(sp)
 100e6f0:	dec00204 	addi	sp,sp,8
 100e6f4:	f800283a 	ret

0100e6f8 <alt_get_errno>:
#undef errno

extern int errno;

static ALT_INLINE int* alt_get_errno(void)
{
 100e6f8:	defffd04 	addi	sp,sp,-12
 100e6fc:	dfc00215 	stw	ra,8(sp)
 100e700:	df000115 	stw	fp,4(sp)
 100e704:	df000104 	addi	fp,sp,4
  return ((alt_errno) ? alt_errno() : &errno);
 100e708:	00804174 	movhi	r2,261
 100e70c:	10a16304 	addi	r2,r2,-31348
 100e710:	10800017 	ldw	r2,0(r2)
 100e714:	1005003a 	cmpeq	r2,r2,zero
 100e718:	1000061e 	bne	r2,zero,100e734 <alt_get_errno+0x3c>
 100e71c:	00804174 	movhi	r2,261
 100e720:	10a16304 	addi	r2,r2,-31348
 100e724:	10800017 	ldw	r2,0(r2)
 100e728:	103ee83a 	callr	r2
 100e72c:	e0bfff15 	stw	r2,-4(fp)
 100e730:	00000306 	br	100e740 <alt_get_errno+0x48>
 100e734:	00804174 	movhi	r2,261
 100e738:	10a82a04 	addi	r2,r2,-24408
 100e73c:	e0bfff15 	stw	r2,-4(fp)
 100e740:	e0bfff17 	ldw	r2,-4(fp)
}
 100e744:	e037883a 	mov	sp,fp
 100e748:	dfc00117 	ldw	ra,4(sp)
 100e74c:	df000017 	ldw	fp,0(sp)
 100e750:	dec00204 	addi	sp,sp,8
 100e754:	f800283a 	ret

0100e758 <alt_dev_null_write>:
 * by the alt_dev_null device. It simple discards all data passed to it, and
 * indicates that the data has been successfully transmitted.
 */

static int alt_dev_null_write (alt_fd* fd, const char* ptr, int len)
{
 100e758:	defffc04 	addi	sp,sp,-16
 100e75c:	df000315 	stw	fp,12(sp)
 100e760:	df000304 	addi	fp,sp,12
 100e764:	e13ffd15 	stw	r4,-12(fp)
 100e768:	e17ffe15 	stw	r5,-8(fp)
 100e76c:	e1bfff15 	stw	r6,-4(fp)
  return len;
 100e770:	e0bfff17 	ldw	r2,-4(fp)
}
 100e774:	e037883a 	mov	sp,fp
 100e778:	df000017 	ldw	fp,0(sp)
 100e77c:	dec00104 	addi	sp,sp,4
 100e780:	f800283a 	ret

0100e784 <fstat>:
}

#else /* !ALT_USE_DIRECT_DRIVERS */

int ALT_FSTAT (int file, struct stat *st)
{
 100e784:	defff904 	addi	sp,sp,-28
 100e788:	dfc00615 	stw	ra,24(sp)
 100e78c:	df000515 	stw	fp,20(sp)
 100e790:	df000504 	addi	fp,sp,20
 100e794:	e13ffc15 	stw	r4,-16(fp)
 100e798:	e17ffd15 	stw	r5,-12(fp)
   * A common error case is that when the file descriptor was created, the call
   * to open() failed resulting in a negative file descriptor. This is trapped
   * below so that we don't try and process an invalid file descriptor.
   */

  fd = (file < 0) ? NULL : &alt_fd_list[file];
 100e79c:	e0bffc17 	ldw	r2,-16(fp)
 100e7a0:	1004803a 	cmplt	r2,r2,zero
 100e7a4:	1000091e 	bne	r2,zero,100e7cc <fstat+0x48>
 100e7a8:	e13ffc17 	ldw	r4,-16(fp)
 100e7ac:	01400304 	movi	r5,12
 100e7b0:	1005a5c0 	call	1005a5c <__mulsi3>
 100e7b4:	1007883a 	mov	r3,r2
 100e7b8:	00804134 	movhi	r2,260
 100e7bc:	109cb904 	addi	r2,r2,29412
 100e7c0:	1887883a 	add	r3,r3,r2
 100e7c4:	e0ffff15 	stw	r3,-4(fp)
 100e7c8:	00000106 	br	100e7d0 <fstat+0x4c>
 100e7cc:	e03fff15 	stw	zero,-4(fp)
 100e7d0:	e0bfff17 	ldw	r2,-4(fp)
 100e7d4:	e0bffb15 	stw	r2,-20(fp)
  
  if (fd)
 100e7d8:	e0bffb17 	ldw	r2,-20(fp)
 100e7dc:	1005003a 	cmpeq	r2,r2,zero
 100e7e0:	1000121e 	bne	r2,zero,100e82c <fstat+0xa8>
  {
    /* Call the drivers fstat() function to fill out the "st" structure. */

    if (fd->dev->fstat)
 100e7e4:	e0bffb17 	ldw	r2,-20(fp)
 100e7e8:	10800017 	ldw	r2,0(r2)
 100e7ec:	10800817 	ldw	r2,32(r2)
 100e7f0:	1005003a 	cmpeq	r2,r2,zero
 100e7f4:	1000081e 	bne	r2,zero,100e818 <fstat+0x94>
    {
      return fd->dev->fstat(fd, st);
 100e7f8:	e0bffb17 	ldw	r2,-20(fp)
 100e7fc:	10800017 	ldw	r2,0(r2)
 100e800:	10800817 	ldw	r2,32(r2)
 100e804:	e13ffb17 	ldw	r4,-20(fp)
 100e808:	e17ffd17 	ldw	r5,-12(fp)
 100e80c:	103ee83a 	callr	r2
 100e810:	e0bffe15 	stw	r2,-8(fp)
 100e814:	00000b06 	br	100e844 <fstat+0xc0>
     * device.
     */
 
    else
    {
      st->st_mode = _IFCHR;
 100e818:	e0fffd17 	ldw	r3,-12(fp)
 100e81c:	00880004 	movi	r2,8192
 100e820:	18800115 	stw	r2,4(r3)
      return 0;
 100e824:	e03ffe15 	stw	zero,-8(fp)
 100e828:	00000606 	br	100e844 <fstat+0xc0>
    }
  }
  else
  {
    ALT_ERRNO = EBADFD;
 100e82c:	100e85c0 	call	100e85c <alt_get_errno>
 100e830:	1007883a 	mov	r3,r2
 100e834:	00801444 	movi	r2,81
 100e838:	18800015 	stw	r2,0(r3)
    return -1;
 100e83c:	00bfffc4 	movi	r2,-1
 100e840:	e0bffe15 	stw	r2,-8(fp)
 100e844:	e0bffe17 	ldw	r2,-8(fp)
  }
}
 100e848:	e037883a 	mov	sp,fp
 100e84c:	dfc00117 	ldw	ra,4(sp)
 100e850:	df000017 	ldw	fp,0(sp)
 100e854:	dec00204 	addi	sp,sp,8
 100e858:	f800283a 	ret

0100e85c <alt_get_errno>:
#undef errno

extern int errno;

static ALT_INLINE int* alt_get_errno(void)
{
 100e85c:	defffd04 	addi	sp,sp,-12
 100e860:	dfc00215 	stw	ra,8(sp)
 100e864:	df000115 	stw	fp,4(sp)
 100e868:	df000104 	addi	fp,sp,4
  return ((alt_errno) ? alt_errno() : &errno);
 100e86c:	00804174 	movhi	r2,261
 100e870:	10a16304 	addi	r2,r2,-31348
 100e874:	10800017 	ldw	r2,0(r2)
 100e878:	1005003a 	cmpeq	r2,r2,zero
 100e87c:	1000061e 	bne	r2,zero,100e898 <alt_get_errno+0x3c>
 100e880:	00804174 	movhi	r2,261
 100e884:	10a16304 	addi	r2,r2,-31348
 100e888:	10800017 	ldw	r2,0(r2)
 100e88c:	103ee83a 	callr	r2
 100e890:	e0bfff15 	stw	r2,-4(fp)
 100e894:	00000306 	br	100e8a4 <alt_get_errno+0x48>
 100e898:	00804174 	movhi	r2,261
 100e89c:	10a82a04 	addi	r2,r2,-24408
 100e8a0:	e0bfff15 	stw	r2,-4(fp)
 100e8a4:	e0bfff17 	ldw	r2,-4(fp)
}
 100e8a8:	e037883a 	mov	sp,fp
 100e8ac:	dfc00117 	ldw	ra,4(sp)
 100e8b0:	df000017 	ldw	fp,0(sp)
 100e8b4:	dec00204 	addi	sp,sp,8
 100e8b8:	f800283a 	ret

0100e8bc <gettimeofday>:
 */
 

#if defined (__GNUC__) && (__GNUC__ >= 4)
int ALT_GETTIMEOFDAY (struct timeval  *ptimeval, void *ptimezone_vptr)
{
 100e8bc:	defff504 	addi	sp,sp,-44
 100e8c0:	dfc00a15 	stw	ra,40(sp)
 100e8c4:	df000915 	stw	fp,36(sp)
 100e8c8:	dc800815 	stw	r18,32(sp)
 100e8cc:	dc400715 	stw	r17,28(sp)
 100e8d0:	dc000615 	stw	r16,24(sp)
 100e8d4:	df000604 	addi	fp,sp,24
 100e8d8:	e13ffd15 	stw	r4,-12(fp)
 100e8dc:	e17ffe15 	stw	r5,-8(fp)
  struct timezone *ptimezone = (struct timezone*)ptimezone_vptr;
 100e8e0:	e0bffe17 	ldw	r2,-8(fp)
 100e8e4:	e0bffc15 	stw	r2,-16(fp)
 * alt_nticks() returns the elapsed number of system clock ticks since reset.
 */

static ALT_INLINE alt_u32 ALT_ALWAYS_INLINE alt_nticks (void)
{
  return _alt_nticks;
 100e8e8:	00804174 	movhi	r2,261
 100e8ec:	10a83604 	addi	r2,r2,-24360
 100e8f0:	10800017 	ldw	r2,0(r2)
#else
int ALT_GETTIMEOFDAY (struct timeval  *ptimeval, struct timezone *ptimezone)
{
#endif
  
  alt_u32 nticks = alt_nticks (); 
 100e8f4:	e0bffb15 	stw	r2,-20(fp)
 * Obtain the system clock rate in ticks/s. 
 */

static ALT_INLINE alt_u32 ALT_ALWAYS_INLINE alt_ticks_per_second (void)
{
  return _alt_tick_rate;
 100e8f8:	00804174 	movhi	r2,261
 100e8fc:	10a83504 	addi	r2,r2,-24364
 100e900:	10800017 	ldw	r2,0(r2)
  alt_u32 tick_rate = alt_ticks_per_second ();
 100e904:	e0bffa15 	stw	r2,-24(fp)
   * non-zero system clock rate. If the system clock is not running, an error
   * is generated and the contents of "ptimeval" and "ptimezone" are not
   * updated.
   */

  if (tick_rate)
 100e908:	e0bffa17 	ldw	r2,-24(fp)
 100e90c:	1005003a 	cmpeq	r2,r2,zero
 100e910:	1000661e 	bne	r2,zero,100eaac <gettimeofday+0x1f0>
  {
    ptimeval->tv_sec  = alt_resettime.tv_sec  + nticks/tick_rate;
 100e914:	d0a6d817 	ldw	r2,-25760(gp)
 100e918:	1021883a 	mov	r16,r2
 100e91c:	e13ffb17 	ldw	r4,-20(fp)
 100e920:	e17ffa17 	ldw	r5,-24(fp)
 100e924:	1005a4c0 	call	1005a4c <__udivsi3>
 100e928:	8085883a 	add	r2,r16,r2
 100e92c:	1007883a 	mov	r3,r2
 100e930:	e0bffd17 	ldw	r2,-12(fp)
 100e934:	10c00015 	stw	r3,0(r2)
    ptimeval->tv_usec = alt_resettime.tv_usec +
 100e938:	00804174 	movhi	r2,261
 100e93c:	10a83104 	addi	r2,r2,-24380
 100e940:	10800017 	ldw	r2,0(r2)
 100e944:	1025883a 	mov	r18,r2
 100e948:	e43ffb17 	ldw	r16,-20(fp)
 100e94c:	0023883a 	mov	r17,zero
 100e950:	010003f4 	movhi	r4,15
 100e954:	21109004 	addi	r4,r4,16960
 100e958:	e17ffa17 	ldw	r5,-24(fp)
 100e95c:	1005a4c0 	call	1005a4c <__udivsi3>
 100e960:	1009883a 	mov	r4,r2
 100e964:	2005883a 	mov	r2,r4
 100e968:	0007883a 	mov	r3,zero
 100e96c:	8009883a 	mov	r4,r16
 100e970:	880b883a 	mov	r5,r17
 100e974:	100d883a 	mov	r6,r2
 100e978:	180f883a 	mov	r7,r3
 100e97c:	1005a940 	call	1005a94 <__muldi3>
 100e980:	1009883a 	mov	r4,r2
 100e984:	180b883a 	mov	r5,r3
 100e988:	2005883a 	mov	r2,r4
 100e98c:	2807883a 	mov	r3,r5
 100e990:	1009883a 	mov	r4,r2
 100e994:	180b883a 	mov	r5,r3
 100e998:	018003f4 	movhi	r6,15
 100e99c:	31909004 	addi	r6,r6,16960
 100e9a0:	000f883a 	mov	r7,zero
 100e9a4:	100dd7c0 	call	100dd7c <__umoddi3>
 100e9a8:	1009883a 	mov	r4,r2
 100e9ac:	180b883a 	mov	r5,r3
 100e9b0:	2005883a 	mov	r2,r4
 100e9b4:	2807883a 	mov	r3,r5
 100e9b8:	9085883a 	add	r2,r18,r2
 100e9bc:	1007883a 	mov	r3,r2
 100e9c0:	e0bffd17 	ldw	r2,-12(fp)
 100e9c4:	10c00115 	stw	r3,4(r2)
     (alt_u32)(((alt_u64)nticks*(ALT_US/tick_rate))%ALT_US);
      
    while(ptimeval->tv_usec < 0) {
 100e9c8:	00001506 	br	100ea20 <gettimeofday+0x164>
      if (ptimeval->tv_sec <= 0)
 100e9cc:	e0bffd17 	ldw	r2,-12(fp)
 100e9d0:	10800017 	ldw	r2,0(r2)
 100e9d4:	10800048 	cmpgei	r2,r2,1
 100e9d8:	1000051e 	bne	r2,zero,100e9f0 <gettimeofday+0x134>
      {
          ptimeval->tv_sec = 0;
 100e9dc:	e0bffd17 	ldw	r2,-12(fp)
 100e9e0:	10000015 	stw	zero,0(r2)
          ptimeval->tv_usec = 0;
 100e9e4:	e0bffd17 	ldw	r2,-12(fp)
 100e9e8:	10000115 	stw	zero,4(r2)
          break;
 100e9ec:	00001d06 	br	100ea64 <gettimeofday+0x1a8>
      }
      else
      {
          ptimeval->tv_sec--;
 100e9f0:	e0bffd17 	ldw	r2,-12(fp)
 100e9f4:	10800017 	ldw	r2,0(r2)
 100e9f8:	10ffffc4 	addi	r3,r2,-1
 100e9fc:	e0bffd17 	ldw	r2,-12(fp)
 100ea00:	10c00015 	stw	r3,0(r2)
          ptimeval->tv_usec += ALT_US;
 100ea04:	e0bffd17 	ldw	r2,-12(fp)
 100ea08:	10c00117 	ldw	r3,4(r2)
 100ea0c:	008003f4 	movhi	r2,15
 100ea10:	10909004 	addi	r2,r2,16960
 100ea14:	1887883a 	add	r3,r3,r2
 100ea18:	e0bffd17 	ldw	r2,-12(fp)
 100ea1c:	10c00115 	stw	r3,4(r2)
  {
    ptimeval->tv_sec  = alt_resettime.tv_sec  + nticks/tick_rate;
    ptimeval->tv_usec = alt_resettime.tv_usec +
     (alt_u32)(((alt_u64)nticks*(ALT_US/tick_rate))%ALT_US);
      
    while(ptimeval->tv_usec < 0) {
 100ea20:	e0bffd17 	ldw	r2,-12(fp)
 100ea24:	10800117 	ldw	r2,4(r2)
 100ea28:	1004803a 	cmplt	r2,r2,zero
 100ea2c:	103fe71e 	bne	r2,zero,100e9cc <gettimeofday+0x110>
          ptimeval->tv_sec--;
          ptimeval->tv_usec += ALT_US;
      }
    }
    
    while(ptimeval->tv_usec >= ALT_US) {
 100ea30:	00000c06 	br	100ea64 <gettimeofday+0x1a8>
      ptimeval->tv_sec++;
 100ea34:	e0bffd17 	ldw	r2,-12(fp)
 100ea38:	10800017 	ldw	r2,0(r2)
 100ea3c:	10c00044 	addi	r3,r2,1
 100ea40:	e0bffd17 	ldw	r2,-12(fp)
 100ea44:	10c00015 	stw	r3,0(r2)
      ptimeval->tv_usec -= ALT_US;
 100ea48:	e0bffd17 	ldw	r2,-12(fp)
 100ea4c:	10c00117 	ldw	r3,4(r2)
 100ea50:	00bffc74 	movhi	r2,65521
 100ea54:	10af7004 	addi	r2,r2,-16960
 100ea58:	1887883a 	add	r3,r3,r2
 100ea5c:	e0bffd17 	ldw	r2,-12(fp)
 100ea60:	10c00115 	stw	r3,4(r2)
          ptimeval->tv_sec--;
          ptimeval->tv_usec += ALT_US;
      }
    }
    
    while(ptimeval->tv_usec >= ALT_US) {
 100ea64:	e0bffd17 	ldw	r2,-12(fp)
 100ea68:	10c00117 	ldw	r3,4(r2)
 100ea6c:	008003f4 	movhi	r2,15
 100ea70:	10908fc4 	addi	r2,r2,16959
 100ea74:	10ffef16 	blt	r2,r3,100ea34 <gettimeofday+0x178>
      ptimeval->tv_sec++;
      ptimeval->tv_usec -= ALT_US;
    }
      
    if (ptimezone)
 100ea78:	e0bffc17 	ldw	r2,-16(fp)
 100ea7c:	1005003a 	cmpeq	r2,r2,zero
 100ea80:	1000081e 	bne	r2,zero,100eaa4 <gettimeofday+0x1e8>
    { 
      ptimezone->tz_minuteswest = alt_timezone.tz_minuteswest;
 100ea84:	d0e6d617 	ldw	r3,-25768(gp)
 100ea88:	e0bffc17 	ldw	r2,-16(fp)
 100ea8c:	10c00015 	stw	r3,0(r2)
      ptimezone->tz_dsttime     = alt_timezone.tz_dsttime;
 100ea90:	00804174 	movhi	r2,261
 100ea94:	10a82f04 	addi	r2,r2,-24388
 100ea98:	10c00017 	ldw	r3,0(r2)
 100ea9c:	e0bffc17 	ldw	r2,-16(fp)
 100eaa0:	10c00115 	stw	r3,4(r2)
    }

    return 0;
 100eaa4:	e03fff15 	stw	zero,-4(fp)
 100eaa8:	00000206 	br	100eab4 <gettimeofday+0x1f8>
  }

  return -ENOTSUP;
 100eaac:	00bfde84 	movi	r2,-134
 100eab0:	e0bfff15 	stw	r2,-4(fp)
 100eab4:	e0bfff17 	ldw	r2,-4(fp)
}
 100eab8:	e037883a 	mov	sp,fp
 100eabc:	dfc00417 	ldw	ra,16(sp)
 100eac0:	df000317 	ldw	fp,12(sp)
 100eac4:	dc800217 	ldw	r18,8(sp)
 100eac8:	dc400117 	ldw	r17,4(sp)
 100eacc:	dc000017 	ldw	r16,0(sp)
 100ead0:	dec00504 	addi	sp,sp,20
 100ead4:	f800283a 	ret

0100ead8 <isatty>:
 *
 * ALT_ISATTY is mapped onto the isatty() system call in alt_syscall.h
 */
 
int ALT_ISATTY (int file)
{
 100ead8:	deffeb04 	addi	sp,sp,-84
 100eadc:	dfc01415 	stw	ra,80(sp)
 100eae0:	df001315 	stw	fp,76(sp)
 100eae4:	df001304 	addi	fp,sp,76
 100eae8:	e13ffd15 	stw	r4,-12(fp)
   * A common error case is that when the file descriptor was created, the call
   * to open() failed resulting in a negative file descriptor. This is trapped
   * below so that we don't try and process an invalid file descriptor.
   */

  fd = (file < 0) ? NULL : &alt_fd_list[file];
 100eaec:	e0bffd17 	ldw	r2,-12(fp)
 100eaf0:	1004803a 	cmplt	r2,r2,zero
 100eaf4:	1000091e 	bne	r2,zero,100eb1c <isatty+0x44>
 100eaf8:	e13ffd17 	ldw	r4,-12(fp)
 100eafc:	01400304 	movi	r5,12
 100eb00:	1005a5c0 	call	1005a5c <__mulsi3>
 100eb04:	1007883a 	mov	r3,r2
 100eb08:	00804134 	movhi	r2,260
 100eb0c:	109cb904 	addi	r2,r2,29412
 100eb10:	1887883a 	add	r3,r3,r2
 100eb14:	e0ffff15 	stw	r3,-4(fp)
 100eb18:	00000106 	br	100eb20 <isatty+0x48>
 100eb1c:	e03fff15 	stw	zero,-4(fp)
 100eb20:	e0bfff17 	ldw	r2,-4(fp)
 100eb24:	e0bfed15 	stw	r2,-76(fp)
  
  if (fd)
 100eb28:	e0bfed17 	ldw	r2,-76(fp)
 100eb2c:	1005003a 	cmpeq	r2,r2,zero
 100eb30:	10000f1e 	bne	r2,zero,100eb70 <isatty+0x98>
    /*
     * If a device driver does not provide an fstat() function, then it is 
     * treated as a terminal device by default.
     */

    if (!fd->dev->fstat)
 100eb34:	e0bfed17 	ldw	r2,-76(fp)
 100eb38:	10800017 	ldw	r2,0(r2)
 100eb3c:	10800817 	ldw	r2,32(r2)
 100eb40:	1004c03a 	cmpne	r2,r2,zero
 100eb44:	1000031e 	bne	r2,zero,100eb54 <isatty+0x7c>
    {
      return 1;
 100eb48:	00800044 	movi	r2,1
 100eb4c:	e0bffe15 	stw	r2,-8(fp)
 100eb50:	00000c06 	br	100eb84 <isatty+0xac>
     * this is called so that the device can identify itself.
     */ 

    else
    {
      fstat (file, &stat);
 100eb54:	e17fee04 	addi	r5,fp,-72
 100eb58:	e13ffd17 	ldw	r4,-12(fp)
 100eb5c:	100e7840 	call	100e784 <fstat>
      return (stat.st_mode == _IFCHR) ? 1 : 0;
 100eb60:	e0bfef17 	ldw	r2,-68(fp)
 100eb64:	10880020 	cmpeqi	r2,r2,8192
 100eb68:	e0bffe15 	stw	r2,-8(fp)
 100eb6c:	00000506 	br	100eb84 <isatty+0xac>
    }
  }
  else
  {
    ALT_ERRNO = EBADFD;
 100eb70:	100eb9c0 	call	100eb9c <alt_get_errno>
 100eb74:	1007883a 	mov	r3,r2
 100eb78:	00801444 	movi	r2,81
 100eb7c:	18800015 	stw	r2,0(r3)
    return 0;
 100eb80:	e03ffe15 	stw	zero,-8(fp)
 100eb84:	e0bffe17 	ldw	r2,-8(fp)
  }
}
 100eb88:	e037883a 	mov	sp,fp
 100eb8c:	dfc00117 	ldw	ra,4(sp)
 100eb90:	df000017 	ldw	fp,0(sp)
 100eb94:	dec00204 	addi	sp,sp,8
 100eb98:	f800283a 	ret

0100eb9c <alt_get_errno>:
#undef errno

extern int errno;

static ALT_INLINE int* alt_get_errno(void)
{
 100eb9c:	defffd04 	addi	sp,sp,-12
 100eba0:	dfc00215 	stw	ra,8(sp)
 100eba4:	df000115 	stw	fp,4(sp)
 100eba8:	df000104 	addi	fp,sp,4
  return ((alt_errno) ? alt_errno() : &errno);
 100ebac:	00804174 	movhi	r2,261
 100ebb0:	10a16304 	addi	r2,r2,-31348
 100ebb4:	10800017 	ldw	r2,0(r2)
 100ebb8:	1005003a 	cmpeq	r2,r2,zero
 100ebbc:	1000061e 	bne	r2,zero,100ebd8 <alt_get_errno+0x3c>
 100ebc0:	00804174 	movhi	r2,261
 100ebc4:	10a16304 	addi	r2,r2,-31348
 100ebc8:	10800017 	ldw	r2,0(r2)
 100ebcc:	103ee83a 	callr	r2
 100ebd0:	e0bfff15 	stw	r2,-4(fp)
 100ebd4:	00000306 	br	100ebe4 <alt_get_errno+0x48>
 100ebd8:	00804174 	movhi	r2,261
 100ebdc:	10a82a04 	addi	r2,r2,-24408
 100ebe0:	e0bfff15 	stw	r2,-4(fp)
 100ebe4:	e0bfff17 	ldw	r2,-4(fp)
}
 100ebe8:	e037883a 	mov	sp,fp
 100ebec:	dfc00117 	ldw	ra,4(sp)
 100ebf0:	df000017 	ldw	fp,0(sp)
 100ebf4:	dec00204 	addi	sp,sp,8
 100ebf8:	f800283a 	ret

0100ebfc <alt_load>:
 * there is no bootloader, so this application is responsible for loading to
 * RAM any sections that are required.
 */  

void alt_load (void)
{
 100ebfc:	defffe04 	addi	sp,sp,-8
 100ec00:	dfc00115 	stw	ra,4(sp)
 100ec04:	df000015 	stw	fp,0(sp)
 100ec08:	d839883a 	mov	fp,sp
  /* 
   * Copy the .rwdata section. 
   */

  alt_load_section (&__flash_rwdata_start, 
 100ec0c:	01004174 	movhi	r4,261
 100ec10:	21216804 	addi	r4,r4,-31328
 100ec14:	01404134 	movhi	r5,260
 100ec18:	295aaa04 	addi	r5,r5,27304
 100ec1c:	01804174 	movhi	r6,261
 100ec20:	31a16804 	addi	r6,r6,-31328
 100ec24:	100ec7c0 	call	100ec7c <alt_load_section>

  /*
   * Copy the exception handler.
   */

  alt_load_section (&__flash_exceptions_start, 
 100ec28:	01004034 	movhi	r4,256
 100ec2c:	21000804 	addi	r4,r4,32
 100ec30:	01404034 	movhi	r5,256
 100ec34:	29400804 	addi	r5,r5,32
 100ec38:	01804034 	movhi	r6,256
 100ec3c:	31806d04 	addi	r6,r6,436
 100ec40:	100ec7c0 	call	100ec7c <alt_load_section>

  /*
   * Copy the .rodata section.
   */

  alt_load_section (&__flash_rodata_start, 
 100ec44:	01004074 	movhi	r4,257
 100ec48:	210b2504 	addi	r4,r4,11412
 100ec4c:	01404074 	movhi	r5,257
 100ec50:	294b2504 	addi	r5,r5,11412
 100ec54:	01804134 	movhi	r6,260
 100ec58:	319aaa04 	addi	r6,r6,27304
 100ec5c:	100ec7c0 	call	100ec7c <alt_load_section>
  
  /*
   * Now ensure that the caches are in synch.
   */
  
  alt_dcache_flush_all();
 100ec60:	1011cd00 	call	1011cd0 <alt_dcache_flush_all>
  alt_icache_flush_all();
 100ec64:	1011f5c0 	call	1011f5c <alt_icache_flush_all>
}
 100ec68:	e037883a 	mov	sp,fp
 100ec6c:	dfc00117 	ldw	ra,4(sp)
 100ec70:	df000017 	ldw	fp,0(sp)
 100ec74:	dec00204 	addi	sp,sp,8
 100ec78:	f800283a 	ret

0100ec7c <alt_load_section>:
 */

static void ALT_INLINE alt_load_section (alt_u32* from, 
                                         alt_u32* to, 
                                         alt_u32* end)
{
 100ec7c:	defffc04 	addi	sp,sp,-16
 100ec80:	df000315 	stw	fp,12(sp)
 100ec84:	df000304 	addi	fp,sp,12
 100ec88:	e13ffd15 	stw	r4,-12(fp)
 100ec8c:	e17ffe15 	stw	r5,-8(fp)
 100ec90:	e1bfff15 	stw	r6,-4(fp)
  if (to != from)
 100ec94:	e0fffe17 	ldw	r3,-8(fp)
 100ec98:	e0bffd17 	ldw	r2,-12(fp)
 100ec9c:	18800e26 	beq	r3,r2,100ecd8 <alt_load_section+0x5c>
  {
    while( to != end )
 100eca0:	00000a06 	br	100eccc <alt_load_section+0x50>
    {
      *to++ = *from++;
 100eca4:	e0bffd17 	ldw	r2,-12(fp)
 100eca8:	10c00017 	ldw	r3,0(r2)
 100ecac:	e0bffe17 	ldw	r2,-8(fp)
 100ecb0:	10c00015 	stw	r3,0(r2)
 100ecb4:	e0bffe17 	ldw	r2,-8(fp)
 100ecb8:	10800104 	addi	r2,r2,4
 100ecbc:	e0bffe15 	stw	r2,-8(fp)
 100ecc0:	e0bffd17 	ldw	r2,-12(fp)
 100ecc4:	10800104 	addi	r2,r2,4
 100ecc8:	e0bffd15 	stw	r2,-12(fp)
                                         alt_u32* to, 
                                         alt_u32* end)
{
  if (to != from)
  {
    while( to != end )
 100eccc:	e0fffe17 	ldw	r3,-8(fp)
 100ecd0:	e0bfff17 	ldw	r2,-4(fp)
 100ecd4:	18bff31e 	bne	r3,r2,100eca4 <alt_load_section+0x28>
    {
      *to++ = *from++;
    }
  }
}
 100ecd8:	e037883a 	mov	sp,fp
 100ecdc:	df000017 	ldw	fp,0(sp)
 100ece0:	dec00104 	addi	sp,sp,4
 100ece4:	f800283a 	ret

0100ece8 <lseek>:
 * ALT_LSEEK is mapped onto the lseek() system call in alt_syscall.h
 *
 */

off_t ALT_LSEEK (int file, off_t ptr, int dir)
{
 100ece8:	defff804 	addi	sp,sp,-32
 100ecec:	dfc00715 	stw	ra,28(sp)
 100ecf0:	df000615 	stw	fp,24(sp)
 100ecf4:	df000604 	addi	fp,sp,24
 100ecf8:	e13ffc15 	stw	r4,-16(fp)
 100ecfc:	e17ffd15 	stw	r5,-12(fp)
 100ed00:	e1bffe15 	stw	r6,-8(fp)
  alt_fd* fd;
  off_t   rc = 0; 
 100ed04:	e03ffa15 	stw	zero,-24(fp)
   * A common error case is that when the file descriptor was created, the call
   * to open() failed resulting in a negative file descriptor. This is trapped
   * below so that we don't try and process an invalid file descriptor.
   */

  fd = (file < 0) ? NULL : &alt_fd_list[file];
 100ed08:	e0bffc17 	ldw	r2,-16(fp)
 100ed0c:	1004803a 	cmplt	r2,r2,zero
 100ed10:	1000091e 	bne	r2,zero,100ed38 <lseek+0x50>
 100ed14:	e13ffc17 	ldw	r4,-16(fp)
 100ed18:	01400304 	movi	r5,12
 100ed1c:	1005a5c0 	call	1005a5c <__mulsi3>
 100ed20:	1007883a 	mov	r3,r2
 100ed24:	00804134 	movhi	r2,260
 100ed28:	109cb904 	addi	r2,r2,29412
 100ed2c:	1887883a 	add	r3,r3,r2
 100ed30:	e0ffff15 	stw	r3,-4(fp)
 100ed34:	00000106 	br	100ed3c <lseek+0x54>
 100ed38:	e03fff15 	stw	zero,-4(fp)
 100ed3c:	e0bfff17 	ldw	r2,-4(fp)
 100ed40:	e0bffb15 	stw	r2,-20(fp)
  
  if (fd) 
 100ed44:	e0bffb17 	ldw	r2,-20(fp)
 100ed48:	1005003a 	cmpeq	r2,r2,zero
 100ed4c:	1000111e 	bne	r2,zero,100ed94 <lseek+0xac>
    /*
     * If the device driver provides an implementation of the lseek() function,
     * then call that to process the request.
     */
 
    if (fd->dev->lseek)
 100ed50:	e0bffb17 	ldw	r2,-20(fp)
 100ed54:	10800017 	ldw	r2,0(r2)
 100ed58:	10800717 	ldw	r2,28(r2)
 100ed5c:	1005003a 	cmpeq	r2,r2,zero
 100ed60:	1000091e 	bne	r2,zero,100ed88 <lseek+0xa0>
    {
      rc = fd->dev->lseek(fd, ptr, dir);
 100ed64:	e0bffb17 	ldw	r2,-20(fp)
 100ed68:	10800017 	ldw	r2,0(r2)
 100ed6c:	10800717 	ldw	r2,28(r2)
 100ed70:	e13ffb17 	ldw	r4,-20(fp)
 100ed74:	e17ffd17 	ldw	r5,-12(fp)
 100ed78:	e1bffe17 	ldw	r6,-8(fp)
 100ed7c:	103ee83a 	callr	r2
 100ed80:	e0bffa15 	stw	r2,-24(fp)
 100ed84:	00000506 	br	100ed9c <lseek+0xb4>
     * Otherwise return an error.
     */

    else
    {
      rc = -ENOTSUP;
 100ed88:	00bfde84 	movi	r2,-134
 100ed8c:	e0bffa15 	stw	r2,-24(fp)
 100ed90:	00000206 	br	100ed9c <lseek+0xb4>
    }
  }
  else  
  {
    rc = -EBADFD;
 100ed94:	00bfebc4 	movi	r2,-81
 100ed98:	e0bffa15 	stw	r2,-24(fp)
  }

  if (rc < 0)
 100ed9c:	e0bffa17 	ldw	r2,-24(fp)
 100eda0:	1004403a 	cmpge	r2,r2,zero
 100eda4:	1000071e 	bne	r2,zero,100edc4 <lseek+0xdc>
  {
    ALT_ERRNO = -rc;
 100eda8:	100eddc0 	call	100eddc <alt_get_errno>
 100edac:	1007883a 	mov	r3,r2
 100edb0:	e0bffa17 	ldw	r2,-24(fp)
 100edb4:	0085c83a 	sub	r2,zero,r2
 100edb8:	18800015 	stw	r2,0(r3)
    rc = -1;
 100edbc:	00bfffc4 	movi	r2,-1
 100edc0:	e0bffa15 	stw	r2,-24(fp)
  }

  return rc;
 100edc4:	e0bffa17 	ldw	r2,-24(fp)
}
 100edc8:	e037883a 	mov	sp,fp
 100edcc:	dfc00117 	ldw	ra,4(sp)
 100edd0:	df000017 	ldw	fp,0(sp)
 100edd4:	dec00204 	addi	sp,sp,8
 100edd8:	f800283a 	ret

0100eddc <alt_get_errno>:
#undef errno

extern int errno;

static ALT_INLINE int* alt_get_errno(void)
{
 100eddc:	defffd04 	addi	sp,sp,-12
 100ede0:	dfc00215 	stw	ra,8(sp)
 100ede4:	df000115 	stw	fp,4(sp)
 100ede8:	df000104 	addi	fp,sp,4
  return ((alt_errno) ? alt_errno() : &errno);
 100edec:	00804174 	movhi	r2,261
 100edf0:	10a16304 	addi	r2,r2,-31348
 100edf4:	10800017 	ldw	r2,0(r2)
 100edf8:	1005003a 	cmpeq	r2,r2,zero
 100edfc:	1000061e 	bne	r2,zero,100ee18 <alt_get_errno+0x3c>
 100ee00:	00804174 	movhi	r2,261
 100ee04:	10a16304 	addi	r2,r2,-31348
 100ee08:	10800017 	ldw	r2,0(r2)
 100ee0c:	103ee83a 	callr	r2
 100ee10:	e0bfff15 	stw	r2,-4(fp)
 100ee14:	00000306 	br	100ee24 <alt_get_errno+0x48>
 100ee18:	00804174 	movhi	r2,261
 100ee1c:	10a82a04 	addi	r2,r2,-24408
 100ee20:	e0bfff15 	stw	r2,-4(fp)
 100ee24:	e0bfff17 	ldw	r2,-4(fp)
}
 100ee28:	e037883a 	mov	sp,fp
 100ee2c:	dfc00117 	ldw	ra,4(sp)
 100ee30:	df000017 	ldw	fp,0(sp)
 100ee34:	dec00204 	addi	sp,sp,8
 100ee38:	f800283a 	ret

0100ee3c <alt_main>:
 * devices/filesystems/components in the system; and call the entry point for
 * the users application, i.e. main().
 */

void alt_main (void)
{
 100ee3c:	defffd04 	addi	sp,sp,-12
 100ee40:	dfc00215 	stw	ra,8(sp)
 100ee44:	df000115 	stw	fp,4(sp)
 100ee48:	df000104 	addi	fp,sp,4
#endif

  /* ALT LOG - please see HAL/sys/alt_log_printf.h for details */
  ALT_LOG_PRINT_BOOT("[alt_main.c] Entering alt_main, calling alt_irq_init.\r\n");
  /* Initialize the interrupt controller. */
  alt_irq_init (NULL);
 100ee4c:	0009883a 	mov	r4,zero
 100ee50:	100f4c80 	call	100f4c8 <alt_irq_init>
  ALT_LOG_PRINT_BOOT("[alt_main.c] Done OS Init, calling alt_sem_create.\r\n");
  ALT_SEM_CREATE (&alt_fd_list_lock, 1);

  /* Initialize the device drivers/software components. */
  ALT_LOG_PRINT_BOOT("[alt_main.c] Calling alt_sys_init.\r\n");
  alt_sys_init();
 100ee54:	100f4fc0 	call	100f4fc <alt_sys_init>
   * devices be present (not equal to /dev/null) and if direct drivers
   * aren't being used.
   */

    ALT_LOG_PRINT_BOOT("[alt_main.c] Redirecting IO.\r\n");
    alt_io_redirect(ALT_STDOUT, ALT_STDIN, ALT_STDERR);
 100ee58:	01004134 	movhi	r4,260
 100ee5c:	211a8104 	addi	r4,r4,27140
 100ee60:	01404134 	movhi	r5,260
 100ee64:	295a8104 	addi	r5,r5,27140
 100ee68:	01804134 	movhi	r6,260
 100ee6c:	319a8104 	addi	r6,r6,27140
 100ee70:	101231c0 	call	101231c <alt_io_redirect>
  /* 
   * Call the C++ constructors 
   */

  ALT_LOG_PRINT_BOOT("[alt_main.c] Calling C++ constructors.\r\n");
  _do_ctors ();
 100ee74:	1011e000 	call	1011e00 <_do_ctors>
   * redefined as _exit()). This is in the interest of reducing code footprint,
   * in that the atexit() overhead is removed when it's not needed.
   */

  ALT_LOG_PRINT_BOOT("[alt_main.c] Calling atexit.\r\n");
  atexit (_do_dtors);
 100ee78:	01004074 	movhi	r4,257
 100ee7c:	21079904 	addi	r4,r4,7780
 100ee80:	10128880 	call	1012888 <atexit>
  ALT_LOG_PRINT_BOOT("[alt_main.c] Calling main.\r\n");

#ifdef ALT_NO_EXIT
  main (alt_argc, alt_argv, alt_envp);
#else
  result = main (alt_argc, alt_argv, alt_envp);
 100ee84:	d126da17 	ldw	r4,-25752(gp)
 100ee88:	d166db17 	ldw	r5,-25748(gp)
 100ee8c:	d1a6dc17 	ldw	r6,-25744(gp)
 100ee90:	10001f00 	call	10001f0 <main>
 100ee94:	e0bfff15 	stw	r2,-4(fp)
  close(STDOUT_FILENO);
 100ee98:	01000044 	movi	r4,1
 100ee9c:	100e5f80 	call	100e5f8 <close>
  exit (result);
 100eea0:	e13fff17 	ldw	r4,-4(fp)
 100eea4:	101289c0 	call	101289c <exit>

0100eea8 <__malloc_lock>:
 * configuration is single threaded, so there is nothing to do here. Note that 
 * this requires that malloc is never called by an interrupt service routine.
 */

void __malloc_lock ( struct _reent *_r )
{
 100eea8:	defffe04 	addi	sp,sp,-8
 100eeac:	df000115 	stw	fp,4(sp)
 100eeb0:	df000104 	addi	fp,sp,4
 100eeb4:	e13fff15 	stw	r4,-4(fp)
}
 100eeb8:	e037883a 	mov	sp,fp
 100eebc:	df000017 	ldw	fp,0(sp)
 100eec0:	dec00104 	addi	sp,sp,4
 100eec4:	f800283a 	ret

0100eec8 <__malloc_unlock>:
/*
 *
 */

void __malloc_unlock ( struct _reent *_r )
{
 100eec8:	defffe04 	addi	sp,sp,-8
 100eecc:	df000115 	stw	fp,4(sp)
 100eed0:	df000104 	addi	fp,sp,4
 100eed4:	e13fff15 	stw	r4,-4(fp)
}
 100eed8:	e037883a 	mov	sp,fp
 100eedc:	df000017 	ldw	fp,0(sp)
 100eee0:	dec00104 	addi	sp,sp,4
 100eee4:	f800283a 	ret

0100eee8 <read>:
}

#else /* !ALT_USE_DIRECT_DRIVERS */

int ALT_READ (int file, void *ptr, size_t len)
{
 100eee8:	defff704 	addi	sp,sp,-36
 100eeec:	dfc00815 	stw	ra,32(sp)
 100eef0:	df000715 	stw	fp,28(sp)
 100eef4:	df000704 	addi	fp,sp,28
 100eef8:	e13ffb15 	stw	r4,-20(fp)
 100eefc:	e17ffc15 	stw	r5,-16(fp)
 100ef00:	e1bffd15 	stw	r6,-12(fp)
   * A common error case is that when the file descriptor was created, the call
   * to open() failed resulting in a negative file descriptor. This is trapped
   * below so that we don't try and process an invalid file descriptor.
   */

  fd = (file < 0) ? NULL : &alt_fd_list[file];
 100ef04:	e0bffb17 	ldw	r2,-20(fp)
 100ef08:	1004803a 	cmplt	r2,r2,zero
 100ef0c:	1000091e 	bne	r2,zero,100ef34 <read+0x4c>
 100ef10:	e13ffb17 	ldw	r4,-20(fp)
 100ef14:	01400304 	movi	r5,12
 100ef18:	1005a5c0 	call	1005a5c <__mulsi3>
 100ef1c:	1007883a 	mov	r3,r2
 100ef20:	00804134 	movhi	r2,260
 100ef24:	109cb904 	addi	r2,r2,29412
 100ef28:	1887883a 	add	r3,r3,r2
 100ef2c:	e0ffff15 	stw	r3,-4(fp)
 100ef30:	00000106 	br	100ef38 <read+0x50>
 100ef34:	e03fff15 	stw	zero,-4(fp)
 100ef38:	e0bfff17 	ldw	r2,-4(fp)
 100ef3c:	e0bffa15 	stw	r2,-24(fp)
  
  if (fd)
 100ef40:	e0bffa17 	ldw	r2,-24(fp)
 100ef44:	1005003a 	cmpeq	r2,r2,zero
 100ef48:	1000241e 	bne	r2,zero,100efdc <read+0xf4>
     * If the file has not been opened with read access, or if the driver does
     * not provide an implementation of read(), generate an error. Otherwise
     * call the drivers read() function to process the request.
     */

    if (((fd->fd_flags & O_ACCMODE) != O_WRONLY) && 
 100ef4c:	e0bffa17 	ldw	r2,-24(fp)
 100ef50:	10800217 	ldw	r2,8(r2)
 100ef54:	108000cc 	andi	r2,r2,3
 100ef58:	10800060 	cmpeqi	r2,r2,1
 100ef5c:	10001a1e 	bne	r2,zero,100efc8 <read+0xe0>
 100ef60:	e0bffa17 	ldw	r2,-24(fp)
 100ef64:	10800017 	ldw	r2,0(r2)
 100ef68:	10800517 	ldw	r2,20(r2)
 100ef6c:	1005003a 	cmpeq	r2,r2,zero
 100ef70:	1000151e 	bne	r2,zero,100efc8 <read+0xe0>
        (fd->dev->read))
      {
        if ((rval = fd->dev->read(fd, ptr, len)) < 0)
 100ef74:	e0bffa17 	ldw	r2,-24(fp)
 100ef78:	10800017 	ldw	r2,0(r2)
 100ef7c:	10800517 	ldw	r2,20(r2)
 100ef80:	e17ffc17 	ldw	r5,-16(fp)
 100ef84:	e1bffd17 	ldw	r6,-12(fp)
 100ef88:	e13ffa17 	ldw	r4,-24(fp)
 100ef8c:	103ee83a 	callr	r2
 100ef90:	e0bff915 	stw	r2,-28(fp)
 100ef94:	e0bff917 	ldw	r2,-28(fp)
 100ef98:	1004403a 	cmpge	r2,r2,zero
 100ef9c:	1000071e 	bne	r2,zero,100efbc <read+0xd4>
        {
          ALT_ERRNO = -rval;
 100efa0:	100f00c0 	call	100f00c <alt_get_errno>
 100efa4:	e0fff917 	ldw	r3,-28(fp)
 100efa8:	00c7c83a 	sub	r3,zero,r3
 100efac:	10c00015 	stw	r3,0(r2)
          return -1;
 100efb0:	00bfffc4 	movi	r2,-1
 100efb4:	e0bffe15 	stw	r2,-8(fp)
 100efb8:	00000e06 	br	100eff4 <read+0x10c>
        }
        return rval;
 100efbc:	e0bff917 	ldw	r2,-28(fp)
 100efc0:	e0bffe15 	stw	r2,-8(fp)
 100efc4:	00000b06 	br	100eff4 <read+0x10c>
      }
      else
      {
        ALT_ERRNO = EACCES;
 100efc8:	100f00c0 	call	100f00c <alt_get_errno>
 100efcc:	1007883a 	mov	r3,r2
 100efd0:	00800344 	movi	r2,13
 100efd4:	18800015 	stw	r2,0(r3)
 100efd8:	00000406 	br	100efec <read+0x104>
      }
    }
  else
  {
    ALT_ERRNO = EBADFD;
 100efdc:	100f00c0 	call	100f00c <alt_get_errno>
 100efe0:	1007883a 	mov	r3,r2
 100efe4:	00801444 	movi	r2,81
 100efe8:	18800015 	stw	r2,0(r3)
  }
  return -1;
 100efec:	00bfffc4 	movi	r2,-1
 100eff0:	e0bffe15 	stw	r2,-8(fp)
 100eff4:	e0bffe17 	ldw	r2,-8(fp)
}
 100eff8:	e037883a 	mov	sp,fp
 100effc:	dfc00117 	ldw	ra,4(sp)
 100f000:	df000017 	ldw	fp,0(sp)
 100f004:	dec00204 	addi	sp,sp,8
 100f008:	f800283a 	ret

0100f00c <alt_get_errno>:
#undef errno

extern int errno;

static ALT_INLINE int* alt_get_errno(void)
{
 100f00c:	defffd04 	addi	sp,sp,-12
 100f010:	dfc00215 	stw	ra,8(sp)
 100f014:	df000115 	stw	fp,4(sp)
 100f018:	df000104 	addi	fp,sp,4
  return ((alt_errno) ? alt_errno() : &errno);
 100f01c:	00804174 	movhi	r2,261
 100f020:	10a16304 	addi	r2,r2,-31348
 100f024:	10800017 	ldw	r2,0(r2)
 100f028:	1005003a 	cmpeq	r2,r2,zero
 100f02c:	1000061e 	bne	r2,zero,100f048 <alt_get_errno+0x3c>
 100f030:	00804174 	movhi	r2,261
 100f034:	10a16304 	addi	r2,r2,-31348
 100f038:	10800017 	ldw	r2,0(r2)
 100f03c:	103ee83a 	callr	r2
 100f040:	e0bfff15 	stw	r2,-4(fp)
 100f044:	00000306 	br	100f054 <alt_get_errno+0x48>
 100f048:	00804174 	movhi	r2,261
 100f04c:	10a82a04 	addi	r2,r2,-24408
 100f050:	e0bfff15 	stw	r2,-4(fp)
 100f054:	e0bfff17 	ldw	r2,-4(fp)
}
 100f058:	e037883a 	mov	sp,fp
 100f05c:	dfc00117 	ldw	ra,4(sp)
 100f060:	df000017 	ldw	fp,0(sp)
 100f064:	dec00204 	addi	sp,sp,8
 100f068:	f800283a 	ret

0100f06c <alt_release_fd>:
 * File descriptors correcponding to standard in, standard out and standard 
 * error cannont be released backed to the pool. They are always reserved.
 */

void alt_release_fd (int fd)
{
 100f06c:	defffc04 	addi	sp,sp,-16
 100f070:	dfc00315 	stw	ra,12(sp)
 100f074:	df000215 	stw	fp,8(sp)
 100f078:	dc000115 	stw	r16,4(sp)
 100f07c:	df000104 	addi	fp,sp,4
 100f080:	e13fff15 	stw	r4,-4(fp)
  if (fd > 2)
 100f084:	e0bfff17 	ldw	r2,-4(fp)
 100f088:	108000d0 	cmplti	r2,r2,3
 100f08c:	10000f1e 	bne	r2,zero,100f0cc <alt_release_fd+0x60>
  {
    alt_fd_list[fd].fd_flags = 0;
 100f090:	e13fff17 	ldw	r4,-4(fp)
 100f094:	04004134 	movhi	r16,260
 100f098:	841cb904 	addi	r16,r16,29412
 100f09c:	01400304 	movi	r5,12
 100f0a0:	1005a5c0 	call	1005a5c <__mulsi3>
 100f0a4:	1405883a 	add	r2,r2,r16
 100f0a8:	10800204 	addi	r2,r2,8
 100f0ac:	10000015 	stw	zero,0(r2)
    alt_fd_list[fd].dev      = 0;
 100f0b0:	e13fff17 	ldw	r4,-4(fp)
 100f0b4:	04004134 	movhi	r16,260
 100f0b8:	841cb904 	addi	r16,r16,29412
 100f0bc:	01400304 	movi	r5,12
 100f0c0:	1005a5c0 	call	1005a5c <__mulsi3>
 100f0c4:	1405883a 	add	r2,r2,r16
 100f0c8:	10000015 	stw	zero,0(r2)
  }
}
 100f0cc:	e037883a 	mov	sp,fp
 100f0d0:	dfc00217 	ldw	ra,8(sp)
 100f0d4:	df000117 	ldw	fp,4(sp)
 100f0d8:	dc000017 	ldw	r16,0(sp)
 100f0dc:	dec00304 	addi	sp,sp,12
 100f0e0:	f800283a 	ret

0100f0e4 <sbrk>:
#endif
 
caddr_t ALT_SBRK (int incr) __attribute__ ((no_instrument_function ));

caddr_t ALT_SBRK (int incr)
{ 
 100f0e4:	defff804 	addi	sp,sp,-32
 100f0e8:	df000715 	stw	fp,28(sp)
 100f0ec:	df000704 	addi	fp,sp,28
 100f0f0:	e13ffe15 	stw	r4,-8(fp)
static ALT_INLINE alt_irq_context ALT_ALWAYS_INLINE 
       alt_irq_disable_all (void)
{
  alt_irq_context context;

  NIOS2_READ_STATUS (context);
 100f0f4:	0005303a 	rdctl	r2,status
 100f0f8:	e0bffb15 	stw	r2,-20(fp)

  NIOS2_WRITE_STATUS (context & ~NIOS2_STATUS_PIE_MSK);
 100f0fc:	e0fffb17 	ldw	r3,-20(fp)
 100f100:	00bfff84 	movi	r2,-2
 100f104:	1884703a 	and	r2,r3,r2
 100f108:	1001703a 	wrctl	status,r2
  
  return context;
 100f10c:	e0bffb17 	ldw	r2,-20(fp)
  alt_irq_context context;
  char *prev_heap_end; 

  context = alt_irq_disable_all();
 100f110:	e0bffd15 	stw	r2,-12(fp)

  /* Always return data aligned on a word boundary */
  heap_end = (char *)(((unsigned int)heap_end + 3) & ~3);
 100f114:	d0a00c17 	ldw	r2,-32720(gp)
 100f118:	10c000c4 	addi	r3,r2,3
 100f11c:	00bfff04 	movi	r2,-4
 100f120:	1884703a 	and	r2,r3,r2
 100f124:	d0a00c15 	stw	r2,-32720(gp)
  if (((heap_end + incr) - __alt_heap_start) > ALT_MAX_HEAP_BYTES) {
    alt_irq_enable_all(context);
    return (caddr_t)-1;
  }
#else
  if ((heap_end + incr) > __alt_heap_limit) {
 100f128:	d0e00c17 	ldw	r3,-32720(gp)
 100f12c:	e0bffe17 	ldw	r2,-8(fp)
 100f130:	1887883a 	add	r3,r3,r2
 100f134:	00806034 	movhi	r2,384
 100f138:	10800004 	addi	r2,r2,0
 100f13c:	10c0072e 	bgeu	r2,r3,100f15c <sbrk+0x78>
 100f140:	e0bffd17 	ldw	r2,-12(fp)
 100f144:	e0bffa15 	stw	r2,-24(fp)
  status &= ~NIOS2_STATUS_PIE_MSK;
  status |= (context & NIOS2_STATUS_PIE_MSK);
  
  NIOS2_WRITE_STATUS (status);
#else
  NIOS2_WRITE_STATUS (context);
 100f148:	e0bffa17 	ldw	r2,-24(fp)
 100f14c:	1001703a 	wrctl	status,r2
    alt_irq_enable_all(context);
    return (caddr_t)-1;
 100f150:	00bfffc4 	movi	r2,-1
 100f154:	e0bfff15 	stw	r2,-4(fp)
 100f158:	00000c06 	br	100f18c <sbrk+0xa8>
  }
#endif

  prev_heap_end = heap_end; 
 100f15c:	d0a00c17 	ldw	r2,-32720(gp)
 100f160:	e0bffc15 	stw	r2,-16(fp)
  heap_end += incr; 
 100f164:	d0e00c17 	ldw	r3,-32720(gp)
 100f168:	e0bffe17 	ldw	r2,-8(fp)
 100f16c:	1885883a 	add	r2,r3,r2
 100f170:	d0a00c15 	stw	r2,-32720(gp)
 100f174:	e0bffd17 	ldw	r2,-12(fp)
 100f178:	e0bff915 	stw	r2,-28(fp)
 100f17c:	e0bff917 	ldw	r2,-28(fp)
 100f180:	1001703a 	wrctl	status,r2

#endif

  alt_irq_enable_all(context);

  return (caddr_t) prev_heap_end; 
 100f184:	e0bffc17 	ldw	r2,-16(fp)
 100f188:	e0bfff15 	stw	r2,-4(fp)
 100f18c:	e0bfff17 	ldw	r2,-4(fp)
} 
 100f190:	e037883a 	mov	sp,fp
 100f194:	df000017 	ldw	fp,0(sp)
 100f198:	dec00104 	addi	sp,sp,4
 100f19c:	f800283a 	ret

0100f1a0 <alt_alarm_stop>:
 * alarms. Alternatively an alarm can unregister itself by returning zero when 
 * the alarm executes.
 */

void alt_alarm_stop (alt_alarm* alarm)
{
 100f1a0:	defffa04 	addi	sp,sp,-24
 100f1a4:	df000515 	stw	fp,20(sp)
 100f1a8:	df000504 	addi	fp,sp,20
 100f1ac:	e13fff15 	stw	r4,-4(fp)
static ALT_INLINE alt_irq_context ALT_ALWAYS_INLINE 
       alt_irq_disable_all (void)
{
  alt_irq_context context;

  NIOS2_READ_STATUS (context);
 100f1b0:	0005303a 	rdctl	r2,status
 100f1b4:	e0bffd15 	stw	r2,-12(fp)

  NIOS2_WRITE_STATUS (context & ~NIOS2_STATUS_PIE_MSK);
 100f1b8:	e0fffd17 	ldw	r3,-12(fp)
 100f1bc:	00bfff84 	movi	r2,-2
 100f1c0:	1884703a 	and	r2,r3,r2
 100f1c4:	1001703a 	wrctl	status,r2
  
  return context;
 100f1c8:	e0bffd17 	ldw	r2,-12(fp)
  alt_irq_context irq_context;

  irq_context = alt_irq_disable_all();
 100f1cc:	e0bffe15 	stw	r2,-8(fp)
  alt_llist_remove (&alarm->llist);
 100f1d0:	e0bfff17 	ldw	r2,-4(fp)
 100f1d4:	e0bffc15 	stw	r2,-16(fp)
 * input argument is the element to remove.
 */
     
static ALT_INLINE void ALT_ALWAYS_INLINE alt_llist_remove(alt_llist* entry)
{
  entry->next->previous = entry->previous;
 100f1d8:	e0bffc17 	ldw	r2,-16(fp)
 100f1dc:	10c00017 	ldw	r3,0(r2)
 100f1e0:	e0bffc17 	ldw	r2,-16(fp)
 100f1e4:	10800117 	ldw	r2,4(r2)
 100f1e8:	18800115 	stw	r2,4(r3)
  entry->previous->next = entry->next;
 100f1ec:	e0bffc17 	ldw	r2,-16(fp)
 100f1f0:	10c00117 	ldw	r3,4(r2)
 100f1f4:	e0bffc17 	ldw	r2,-16(fp)
 100f1f8:	10800017 	ldw	r2,0(r2)
 100f1fc:	18800015 	stw	r2,0(r3)
  /* 
   * Set the entry to point to itself, so that any further calls to
   * alt_llist_remove() are harmless.
   */

  entry->previous = entry;
 100f200:	e0fffc17 	ldw	r3,-16(fp)
 100f204:	e0bffc17 	ldw	r2,-16(fp)
 100f208:	18800115 	stw	r2,4(r3)
  entry->next     = entry;
 100f20c:	e0fffc17 	ldw	r3,-16(fp)
 100f210:	e0bffc17 	ldw	r2,-16(fp)
 100f214:	18800015 	stw	r2,0(r3)
 100f218:	e0bffe17 	ldw	r2,-8(fp)
 100f21c:	e0bffb15 	stw	r2,-20(fp)
  status &= ~NIOS2_STATUS_PIE_MSK;
  status |= (context & NIOS2_STATUS_PIE_MSK);
  
  NIOS2_WRITE_STATUS (status);
#else
  NIOS2_WRITE_STATUS (context);
 100f220:	e0bffb17 	ldw	r2,-20(fp)
 100f224:	1001703a 	wrctl	status,r2
  alt_irq_enable_all (irq_context);
}
 100f228:	e037883a 	mov	sp,fp
 100f22c:	df000017 	ldw	fp,0(sp)
 100f230:	dec00104 	addi	sp,sp,4
 100f234:	f800283a 	ret

0100f238 <alt_tick>:
 * 
 * alt_tick() is expected to run at interrupt level.
 */

void alt_tick (void)
{
 100f238:	defffb04 	addi	sp,sp,-20
 100f23c:	dfc00415 	stw	ra,16(sp)
 100f240:	df000315 	stw	fp,12(sp)
 100f244:	df000304 	addi	fp,sp,12
  alt_alarm* next;
  alt_alarm* alarm = (alt_alarm*) alt_alarm_list.next;
 100f248:	d0a00d17 	ldw	r2,-32716(gp)
 100f24c:	e0bffe15 	stw	r2,-8(fp)

  alt_u32    next_callback;

  /* update the tick counter */

  _alt_nticks++;
 100f250:	d0a6de17 	ldw	r2,-25736(gp)
 100f254:	10800044 	addi	r2,r2,1
 100f258:	d0a6de15 	stw	r2,-25736(gp)

  /* process the registered callbacks */

  while (alarm != (alt_alarm*) &alt_alarm_list)
 100f25c:	00003106 	br	100f324 <alt_tick+0xec>
  {
    next = (alt_alarm*) alarm->llist.next;
 100f260:	e0bffe17 	ldw	r2,-8(fp)
 100f264:	10800017 	ldw	r2,0(r2)
 100f268:	e0bfff15 	stw	r2,-4(fp)
    /* 
     * Upon the tick-counter rolling over it is safe to clear the 
     * roll-over flag; once the flag is cleared this (or subsequnt)
     * tick events are enabled to generate an alarm event. 
     */
    if ((alarm->rollover) && (_alt_nticks == 0))
 100f26c:	e0bffe17 	ldw	r2,-8(fp)
 100f270:	10800403 	ldbu	r2,16(r2)
 100f274:	10803fcc 	andi	r2,r2,255
 100f278:	1005003a 	cmpeq	r2,r2,zero
 100f27c:	1000051e 	bne	r2,zero,100f294 <alt_tick+0x5c>
 100f280:	d0a6de17 	ldw	r2,-25736(gp)
 100f284:	1004c03a 	cmpne	r2,r2,zero
 100f288:	1000021e 	bne	r2,zero,100f294 <alt_tick+0x5c>
    {
      alarm->rollover = 0;
 100f28c:	e0bffe17 	ldw	r2,-8(fp)
 100f290:	10000405 	stb	zero,16(r2)
    }
    
    /* if the alarm period has expired, make the callback */    
    if ((alarm->time <= _alt_nticks) && (alarm->rollover == 0))
 100f294:	e0bffe17 	ldw	r2,-8(fp)
 100f298:	10c00217 	ldw	r3,8(r2)
 100f29c:	d0a6de17 	ldw	r2,-25736(gp)
 100f2a0:	10c01e36 	bltu	r2,r3,100f31c <alt_tick+0xe4>
 100f2a4:	e0bffe17 	ldw	r2,-8(fp)
 100f2a8:	10800403 	ldbu	r2,16(r2)
 100f2ac:	10803fcc 	andi	r2,r2,255
 100f2b0:	1004c03a 	cmpne	r2,r2,zero
 100f2b4:	1000191e 	bne	r2,zero,100f31c <alt_tick+0xe4>
    {
      next_callback = alarm->callback (alarm->context);
 100f2b8:	e0bffe17 	ldw	r2,-8(fp)
 100f2bc:	10c00317 	ldw	r3,12(r2)
 100f2c0:	e0bffe17 	ldw	r2,-8(fp)
 100f2c4:	11000517 	ldw	r4,20(r2)
 100f2c8:	183ee83a 	callr	r3
 100f2cc:	e0bffd15 	stw	r2,-12(fp)

      /* deactivate the alarm if the return value is zero */

      if (next_callback == 0)
 100f2d0:	e0bffd17 	ldw	r2,-12(fp)
 100f2d4:	1004c03a 	cmpne	r2,r2,zero
 100f2d8:	1000031e 	bne	r2,zero,100f2e8 <alt_tick+0xb0>
      {
        alt_alarm_stop (alarm);
 100f2dc:	e13ffe17 	ldw	r4,-8(fp)
 100f2e0:	100f1a00 	call	100f1a0 <alt_alarm_stop>
 100f2e4:	00000d06 	br	100f31c <alt_tick+0xe4>
      }
      else
      {
        alarm->time += next_callback;
 100f2e8:	e0bffe17 	ldw	r2,-8(fp)
 100f2ec:	10c00217 	ldw	r3,8(r2)
 100f2f0:	e0bffd17 	ldw	r2,-12(fp)
 100f2f4:	1887883a 	add	r3,r3,r2
 100f2f8:	e0bffe17 	ldw	r2,-8(fp)
 100f2fc:	10c00215 	stw	r3,8(r2)
        /* 
         * If the desired alarm time causes a roll-over, set the rollover
         * flag. This will prevent the subsequent tick event from causing
         * an alarm too early.
         */
        if(alarm->time < _alt_nticks)
 100f300:	e0bffe17 	ldw	r2,-8(fp)
 100f304:	10c00217 	ldw	r3,8(r2)
 100f308:	d0a6de17 	ldw	r2,-25736(gp)
 100f30c:	1880032e 	bgeu	r3,r2,100f31c <alt_tick+0xe4>
        {
          alarm->rollover = 1;
 100f310:	e0fffe17 	ldw	r3,-8(fp)
 100f314:	00800044 	movi	r2,1
 100f318:	18800405 	stb	r2,16(r3)
        }
      }
    }
    alarm = next;
 100f31c:	e0bfff17 	ldw	r2,-4(fp)
 100f320:	e0bffe15 	stw	r2,-8(fp)

  _alt_nticks++;

  /* process the registered callbacks */

  while (alarm != (alt_alarm*) &alt_alarm_list)
 100f324:	d0e00d04 	addi	r3,gp,-32716
 100f328:	e0bffe17 	ldw	r2,-8(fp)
 100f32c:	10ffcc1e 	bne	r2,r3,100f260 <alt_tick+0x28>
  /* 
   * Update the operating system specific timer facilities.
   */

  ALT_OS_TIME_TICK();
}
 100f330:	e037883a 	mov	sp,fp
 100f334:	dfc00117 	ldw	ra,4(sp)
 100f338:	df000017 	ldw	fp,0(sp)
 100f33c:	dec00204 	addi	sp,sp,8
 100f340:	f800283a 	ret

0100f344 <write>:
}

#else /* !ALT_USE_DIRECT_DRIVERS */

int ALT_WRITE (int file, const void *ptr, size_t len)
{
 100f344:	defff704 	addi	sp,sp,-36
 100f348:	dfc00815 	stw	ra,32(sp)
 100f34c:	df000715 	stw	fp,28(sp)
 100f350:	df000704 	addi	fp,sp,28
 100f354:	e13ffb15 	stw	r4,-20(fp)
 100f358:	e17ffc15 	stw	r5,-16(fp)
 100f35c:	e1bffd15 	stw	r6,-12(fp)
   * A common error case is that when the file descriptor was created, the call
   * to open() failed resulting in a negative file descriptor. This is trapped
   * below so that we don't try and process an invalid file descriptor.
   */

  fd = (file < 0) ? NULL : &alt_fd_list[file];
 100f360:	e0bffb17 	ldw	r2,-20(fp)
 100f364:	1004803a 	cmplt	r2,r2,zero
 100f368:	1000091e 	bne	r2,zero,100f390 <write+0x4c>
 100f36c:	e13ffb17 	ldw	r4,-20(fp)
 100f370:	01400304 	movi	r5,12
 100f374:	1005a5c0 	call	1005a5c <__mulsi3>
 100f378:	1007883a 	mov	r3,r2
 100f37c:	00804134 	movhi	r2,260
 100f380:	109cb904 	addi	r2,r2,29412
 100f384:	1887883a 	add	r3,r3,r2
 100f388:	e0ffff15 	stw	r3,-4(fp)
 100f38c:	00000106 	br	100f394 <write+0x50>
 100f390:	e03fff15 	stw	zero,-4(fp)
 100f394:	e0bfff17 	ldw	r2,-4(fp)
 100f398:	e0bffa15 	stw	r2,-24(fp)
  
  if (fd)
 100f39c:	e0bffa17 	ldw	r2,-24(fp)
 100f3a0:	1005003a 	cmpeq	r2,r2,zero
 100f3a4:	1000241e 	bne	r2,zero,100f438 <write+0xf4>
     * If the file has not been opened with write access, or if the driver does
     * not provide an implementation of write(), generate an error. Otherwise
     * call the drivers write() function to process the request.
     */

    if (((fd->fd_flags & O_ACCMODE) != O_RDONLY) && fd->dev->write)
 100f3a8:	e0bffa17 	ldw	r2,-24(fp)
 100f3ac:	10800217 	ldw	r2,8(r2)
 100f3b0:	108000cc 	andi	r2,r2,3
 100f3b4:	1005003a 	cmpeq	r2,r2,zero
 100f3b8:	10001a1e 	bne	r2,zero,100f424 <write+0xe0>
 100f3bc:	e0bffa17 	ldw	r2,-24(fp)
 100f3c0:	10800017 	ldw	r2,0(r2)
 100f3c4:	10800617 	ldw	r2,24(r2)
 100f3c8:	1005003a 	cmpeq	r2,r2,zero
 100f3cc:	1000151e 	bne	r2,zero,100f424 <write+0xe0>
    {
      
      /* ALT_LOG - see altera_hal/HAL/inc/sys/alt_log_printf.h */
      ALT_LOG_WRITE_FUNCTION(ptr,len);

      if ((rval = fd->dev->write(fd, ptr, len)) < 0)
 100f3d0:	e0bffa17 	ldw	r2,-24(fp)
 100f3d4:	10800017 	ldw	r2,0(r2)
 100f3d8:	10800617 	ldw	r2,24(r2)
 100f3dc:	e17ffc17 	ldw	r5,-16(fp)
 100f3e0:	e1bffd17 	ldw	r6,-12(fp)
 100f3e4:	e13ffa17 	ldw	r4,-24(fp)
 100f3e8:	103ee83a 	callr	r2
 100f3ec:	e0bff915 	stw	r2,-28(fp)
 100f3f0:	e0bff917 	ldw	r2,-28(fp)
 100f3f4:	1004403a 	cmpge	r2,r2,zero
 100f3f8:	1000071e 	bne	r2,zero,100f418 <write+0xd4>
      {
        ALT_ERRNO = -rval;
 100f3fc:	100f4680 	call	100f468 <alt_get_errno>
 100f400:	e0fff917 	ldw	r3,-28(fp)
 100f404:	00c7c83a 	sub	r3,zero,r3
 100f408:	10c00015 	stw	r3,0(r2)
        return -1;
 100f40c:	00bfffc4 	movi	r2,-1
 100f410:	e0bffe15 	stw	r2,-8(fp)
 100f414:	00000e06 	br	100f450 <write+0x10c>
      }
      return rval;
 100f418:	e0bff917 	ldw	r2,-28(fp)
 100f41c:	e0bffe15 	stw	r2,-8(fp)
 100f420:	00000b06 	br	100f450 <write+0x10c>
    }
    else
    {
      ALT_ERRNO = EACCES;
 100f424:	100f4680 	call	100f468 <alt_get_errno>
 100f428:	1007883a 	mov	r3,r2
 100f42c:	00800344 	movi	r2,13
 100f430:	18800015 	stw	r2,0(r3)
 100f434:	00000406 	br	100f448 <write+0x104>
    }
  }
  else  
  {
    ALT_ERRNO = EBADFD;
 100f438:	100f4680 	call	100f468 <alt_get_errno>
 100f43c:	1007883a 	mov	r3,r2
 100f440:	00801444 	movi	r2,81
 100f444:	18800015 	stw	r2,0(r3)
  }
  return -1;
 100f448:	00bfffc4 	movi	r2,-1
 100f44c:	e0bffe15 	stw	r2,-8(fp)
 100f450:	e0bffe17 	ldw	r2,-8(fp)
}
 100f454:	e037883a 	mov	sp,fp
 100f458:	dfc00117 	ldw	ra,4(sp)
 100f45c:	df000017 	ldw	fp,0(sp)
 100f460:	dec00204 	addi	sp,sp,8
 100f464:	f800283a 	ret

0100f468 <alt_get_errno>:
#undef errno

extern int errno;

static ALT_INLINE int* alt_get_errno(void)
{
 100f468:	defffd04 	addi	sp,sp,-12
 100f46c:	dfc00215 	stw	ra,8(sp)
 100f470:	df000115 	stw	fp,4(sp)
 100f474:	df000104 	addi	fp,sp,4
  return ((alt_errno) ? alt_errno() : &errno);
 100f478:	00804174 	movhi	r2,261
 100f47c:	10a16304 	addi	r2,r2,-31348
 100f480:	10800017 	ldw	r2,0(r2)
 100f484:	1005003a 	cmpeq	r2,r2,zero
 100f488:	1000061e 	bne	r2,zero,100f4a4 <alt_get_errno+0x3c>
 100f48c:	00804174 	movhi	r2,261
 100f490:	10a16304 	addi	r2,r2,-31348
 100f494:	10800017 	ldw	r2,0(r2)
 100f498:	103ee83a 	callr	r2
 100f49c:	e0bfff15 	stw	r2,-4(fp)
 100f4a0:	00000306 	br	100f4b0 <alt_get_errno+0x48>
 100f4a4:	00804174 	movhi	r2,261
 100f4a8:	10a82a04 	addi	r2,r2,-24408
 100f4ac:	e0bfff15 	stw	r2,-4(fp)
 100f4b0:	e0bfff17 	ldw	r2,-4(fp)
}
 100f4b4:	e037883a 	mov	sp,fp
 100f4b8:	dfc00117 	ldw	ra,4(sp)
 100f4bc:	df000017 	ldw	fp,0(sp)
 100f4c0:	dec00204 	addi	sp,sp,8
 100f4c4:	f800283a 	ret

0100f4c8 <alt_irq_init>:
 * The "base" parameter is ignored and only
 * present for backwards-compatibility.
 */

void alt_irq_init ( const void* base )
{
 100f4c8:	defffd04 	addi	sp,sp,-12
 100f4cc:	dfc00215 	stw	ra,8(sp)
 100f4d0:	df000115 	stw	fp,4(sp)
 100f4d4:	df000104 	addi	fp,sp,4
 100f4d8:	e13fff15 	stw	r4,-4(fp)
    ALTERA_NIOS2_QSYS_IRQ_INIT ( NIOS2_QSYS_0, nios2_qsys_0);
 100f4dc:	10126780 	call	1012678 <altera_nios2_qsys_irq_init>
 * alt_irq_cpu_enable_interrupts() enables the CPU to start taking interrupts.
 */
static ALT_INLINE void ALT_ALWAYS_INLINE 
       alt_irq_cpu_enable_interrupts ()
{
    NIOS2_WRITE_STATUS(NIOS2_STATUS_PIE_MSK
 100f4e0:	00800044 	movi	r2,1
 100f4e4:	1001703a 	wrctl	status,r2
    alt_irq_cpu_enable_interrupts();
}
 100f4e8:	e037883a 	mov	sp,fp
 100f4ec:	dfc00117 	ldw	ra,4(sp)
 100f4f0:	df000017 	ldw	fp,0(sp)
 100f4f4:	dec00204 	addi	sp,sp,8
 100f4f8:	f800283a 	ret

0100f4fc <alt_sys_init>:
 * Initialize the non-interrupt controller devices.
 * Called after alt_irq_init().
 */

void alt_sys_init( void )
{
 100f4fc:	defffd04 	addi	sp,sp,-12
 100f500:	dfc00215 	stw	ra,8(sp)
 100f504:	df000115 	stw	fp,4(sp)
 100f508:	df000104 	addi	fp,sp,4
    ALTERA_AVALON_JTAG_UART_INIT ( JTAG_UART_0, jtag_uart_0);
 100f50c:	01004134 	movhi	r4,260
 100f510:	211d2304 	addi	r4,r4,29836
 100f514:	000b883a 	mov	r5,zero
 100f518:	01800144 	movi	r6,5
 100f51c:	100f9740 	call	100f974 <altera_avalon_jtag_uart_init>
 100f520:	01004134 	movhi	r4,260
 100f524:	211d1904 	addi	r4,r4,29796
 100f528:	100f7f40 	call	100f7f4 <alt_dev_reg>
    ALTERA_UP_AVALON_VIDEO_CHARACTER_BUFFER_WITH_DMA_INIT ( VIDEO_CHARACTER_BUFFER_WITH_DMA_0, video_character_buffer_with_dma_0);
 100f52c:	00804174 	movhi	r2,261
 100f530:	10a13104 	addi	r2,r2,-31548
 100f534:	10800a17 	ldw	r2,40(r2)
 100f538:	10800104 	addi	r2,r2,4
 100f53c:	10800017 	ldw	r2,0(r2)
 100f540:	10ffffcc 	andi	r3,r2,65535
 100f544:	00804174 	movhi	r2,261
 100f548:	10a13104 	addi	r2,r2,-31548
 100f54c:	10c00c15 	stw	r3,48(r2)
 100f550:	00804174 	movhi	r2,261
 100f554:	10a13104 	addi	r2,r2,-31548
 100f558:	10800a17 	ldw	r2,40(r2)
 100f55c:	10800104 	addi	r2,r2,4
 100f560:	10800017 	ldw	r2,0(r2)
 100f564:	1005d43a 	srai	r2,r2,16
 100f568:	10ffffcc 	andi	r3,r2,65535
 100f56c:	00804174 	movhi	r2,261
 100f570:	10a13104 	addi	r2,r2,-31548
 100f574:	10c00d15 	stw	r3,52(r2)
 100f578:	00804174 	movhi	r2,261
 100f57c:	10a13104 	addi	r2,r2,-31548
 100f580:	10800c17 	ldw	r2,48(r2)
 100f584:	10801068 	cmpgeui	r2,r2,65
 100f588:	1000081e 	bne	r2,zero,100f5ac <alt_sys_init+0xb0>
 100f58c:	00c04174 	movhi	r3,261
 100f590:	18e13104 	addi	r3,r3,-31548
 100f594:	00800fc4 	movi	r2,63
 100f598:	18800f15 	stw	r2,60(r3)
 100f59c:	00c04174 	movhi	r3,261
 100f5a0:	18e13104 	addi	r3,r3,-31548
 100f5a4:	00800184 	movi	r2,6
 100f5a8:	18801015 	stw	r2,64(r3)
 100f5ac:	00804174 	movhi	r2,261
 100f5b0:	10a13104 	addi	r2,r2,-31548
 100f5b4:	10800d17 	ldw	r2,52(r2)
 100f5b8:	10800868 	cmpgeui	r2,r2,33
 100f5bc:	1000041e 	bne	r2,zero,100f5d0 <alt_sys_init+0xd4>
 100f5c0:	00c04174 	movhi	r3,261
 100f5c4:	18e13104 	addi	r3,r3,-31548
 100f5c8:	008007c4 	movi	r2,31
 100f5cc:	18801115 	stw	r2,68(r3)
 100f5d0:	01004174 	movhi	r4,261
 100f5d4:	21213104 	addi	r4,r4,-31548
 100f5d8:	10102d80 	call	10102d8 <alt_up_char_buffer_init>
 100f5dc:	01004174 	movhi	r4,261
 100f5e0:	21213104 	addi	r4,r4,-31548
 100f5e4:	100f7f40 	call	100f7f4 <alt_dev_reg>
    ALTERA_UP_AVALON_VIDEO_PIXEL_BUFFER_DMA_INIT ( VIDEO_PIXEL_BUFFER_DMA_0, video_pixel_buffer_dma_0);
 100f5e8:	00804174 	movhi	r2,261
 100f5ec:	10a14304 	addi	r2,r2,-31476
 100f5f0:	10800a17 	ldw	r2,40(r2)
 100f5f4:	10800017 	ldw	r2,0(r2)
 100f5f8:	1007883a 	mov	r3,r2
 100f5fc:	00804174 	movhi	r2,261
 100f600:	10a14304 	addi	r2,r2,-31476
 100f604:	10c00b15 	stw	r3,44(r2)
 100f608:	00804174 	movhi	r2,261
 100f60c:	10a14304 	addi	r2,r2,-31476
 100f610:	10800a17 	ldw	r2,40(r2)
 100f614:	10800104 	addi	r2,r2,4
 100f618:	10800017 	ldw	r2,0(r2)
 100f61c:	1007883a 	mov	r3,r2
 100f620:	00804174 	movhi	r2,261
 100f624:	10a14304 	addi	r2,r2,-31476
 100f628:	10c00c15 	stw	r3,48(r2)
 100f62c:	00804174 	movhi	r2,261
 100f630:	10a14304 	addi	r2,r2,-31476
 100f634:	10800a17 	ldw	r2,40(r2)
 100f638:	10800204 	addi	r2,r2,8
 100f63c:	10800017 	ldw	r2,0(r2)
 100f640:	10ffffcc 	andi	r3,r2,65535
 100f644:	00804174 	movhi	r2,261
 100f648:	10a14304 	addi	r2,r2,-31476
 100f64c:	10c00f15 	stw	r3,60(r2)
 100f650:	00804174 	movhi	r2,261
 100f654:	10a14304 	addi	r2,r2,-31476
 100f658:	10800a17 	ldw	r2,40(r2)
 100f65c:	10800204 	addi	r2,r2,8
 100f660:	10800017 	ldw	r2,0(r2)
 100f664:	1005d43a 	srai	r2,r2,16
 100f668:	10ffffcc 	andi	r3,r2,65535
 100f66c:	00804174 	movhi	r2,261
 100f670:	10a14304 	addi	r2,r2,-31476
 100f674:	10c01015 	stw	r3,64(r2)
 100f678:	00804174 	movhi	r2,261
 100f67c:	10a14304 	addi	r2,r2,-31476
 100f680:	10800a17 	ldw	r2,40(r2)
 100f684:	10800304 	addi	r2,r2,12
 100f688:	10800017 	ldw	r2,0(r2)
 100f68c:	1005d07a 	srai	r2,r2,1
 100f690:	10c0004c 	andi	r3,r2,1
 100f694:	00804174 	movhi	r2,261
 100f698:	10a14304 	addi	r2,r2,-31476
 100f69c:	10c00d15 	stw	r3,52(r2)
 100f6a0:	00804174 	movhi	r2,261
 100f6a4:	10a14304 	addi	r2,r2,-31476
 100f6a8:	10800a17 	ldw	r2,40(r2)
 100f6ac:	10800304 	addi	r2,r2,12
 100f6b0:	10800017 	ldw	r2,0(r2)
 100f6b4:	1005d13a 	srai	r2,r2,4
 100f6b8:	10c003cc 	andi	r3,r2,15
 100f6bc:	00804174 	movhi	r2,261
 100f6c0:	10a14304 	addi	r2,r2,-31476
 100f6c4:	10c00e15 	stw	r3,56(r2)
 100f6c8:	00804174 	movhi	r2,261
 100f6cc:	10a14304 	addi	r2,r2,-31476
 100f6d0:	10800a17 	ldw	r2,40(r2)
 100f6d4:	10800304 	addi	r2,r2,12
 100f6d8:	10800017 	ldw	r2,0(r2)
 100f6dc:	1005d43a 	srai	r2,r2,16
 100f6e0:	1007883a 	mov	r3,r2
 100f6e4:	00bfffc4 	movi	r2,-1
 100f6e8:	1884703a 	and	r2,r3,r2
 100f6ec:	e0bfff45 	stb	r2,-3(fp)
 100f6f0:	00804174 	movhi	r2,261
 100f6f4:	10a14304 	addi	r2,r2,-31476
 100f6f8:	10800a17 	ldw	r2,40(r2)
 100f6fc:	10800304 	addi	r2,r2,12
 100f700:	10800017 	ldw	r2,0(r2)
 100f704:	1005d63a 	srai	r2,r2,24
 100f708:	1007883a 	mov	r3,r2
 100f70c:	00bfffc4 	movi	r2,-1
 100f710:	1884703a 	and	r2,r3,r2
 100f714:	e0bfff05 	stb	r2,-4(fp)
 100f718:	00804174 	movhi	r2,261
 100f71c:	10a14304 	addi	r2,r2,-31476
 100f720:	10800e17 	ldw	r2,56(r2)
 100f724:	10800058 	cmpnei	r2,r2,1
 100f728:	1000041e 	bne	r2,zero,100f73c <alt_sys_init+0x240>
 100f72c:	00804174 	movhi	r2,261
 100f730:	10a14304 	addi	r2,r2,-31476
 100f734:	10001115 	stw	zero,68(r2)
 100f738:	00000e06 	br	100f774 <alt_sys_init+0x278>
 100f73c:	00804174 	movhi	r2,261
 100f740:	10a14304 	addi	r2,r2,-31476
 100f744:	10800e17 	ldw	r2,56(r2)
 100f748:	10800098 	cmpnei	r2,r2,2
 100f74c:	1000051e 	bne	r2,zero,100f764 <alt_sys_init+0x268>
 100f750:	00c04174 	movhi	r3,261
 100f754:	18e14304 	addi	r3,r3,-31476
 100f758:	00800044 	movi	r2,1
 100f75c:	18801115 	stw	r2,68(r3)
 100f760:	00000406 	br	100f774 <alt_sys_init+0x278>
 100f764:	00c04174 	movhi	r3,261
 100f768:	18e14304 	addi	r3,r3,-31476
 100f76c:	00800084 	movi	r2,2
 100f770:	18801115 	stw	r2,68(r3)
 100f774:	e0ffff43 	ldbu	r3,-3(fp)
 100f778:	00800804 	movi	r2,32
 100f77c:	10c7c83a 	sub	r3,r2,r3
 100f780:	00bfffc4 	movi	r2,-1
 100f784:	10c6d83a 	srl	r3,r2,r3
 100f788:	00804174 	movhi	r2,261
 100f78c:	10a14304 	addi	r2,r2,-31476
 100f790:	10c01215 	stw	r3,72(r2)
 100f794:	e0ffff43 	ldbu	r3,-3(fp)
 100f798:	00804174 	movhi	r2,261
 100f79c:	10a14304 	addi	r2,r2,-31476
 100f7a0:	10801117 	ldw	r2,68(r2)
 100f7a4:	1887883a 	add	r3,r3,r2
 100f7a8:	00804174 	movhi	r2,261
 100f7ac:	10a14304 	addi	r2,r2,-31476
 100f7b0:	10c01315 	stw	r3,76(r2)
 100f7b4:	e0ffff03 	ldbu	r3,-4(fp)
 100f7b8:	00800804 	movi	r2,32
 100f7bc:	10c7c83a 	sub	r3,r2,r3
 100f7c0:	00bfffc4 	movi	r2,-1
 100f7c4:	10c6d83a 	srl	r3,r2,r3
 100f7c8:	00804174 	movhi	r2,261
 100f7cc:	10a14304 	addi	r2,r2,-31476
 100f7d0:	10c01415 	stw	r3,80(r2)
 100f7d4:	01004174 	movhi	r4,261
 100f7d8:	21214304 	addi	r4,r4,-31476
 100f7dc:	100f7f40 	call	100f7f4 <alt_dev_reg>
}
 100f7e0:	e037883a 	mov	sp,fp
 100f7e4:	dfc00117 	ldw	ra,4(sp)
 100f7e8:	df000017 	ldw	fp,0(sp)
 100f7ec:	dec00204 	addi	sp,sp,8
 100f7f0:	f800283a 	ret

0100f7f4 <alt_dev_reg>:
 */

extern int alt_fs_reg  (alt_dev* dev); 

static ALT_INLINE int alt_dev_reg (alt_dev* dev)
{
 100f7f4:	defffd04 	addi	sp,sp,-12
 100f7f8:	dfc00215 	stw	ra,8(sp)
 100f7fc:	df000115 	stw	fp,4(sp)
 100f800:	df000104 	addi	fp,sp,4
 100f804:	e13fff15 	stw	r4,-4(fp)
  extern alt_llist alt_dev_list;

  return alt_dev_llist_insert ((alt_dev_llist*) dev, &alt_dev_list);
 100f808:	e13fff17 	ldw	r4,-4(fp)
 100f80c:	01404174 	movhi	r5,261
 100f810:	29616004 	addi	r5,r5,-31360
 100f814:	1011cec0 	call	1011cec <alt_dev_llist_insert>
}
 100f818:	e037883a 	mov	sp,fp
 100f81c:	dfc00117 	ldw	ra,4(sp)
 100f820:	df000017 	ldw	fp,0(sp)
 100f824:	dec00204 	addi	sp,sp,8
 100f828:	f800283a 	ret

0100f82c <altera_avalon_jtag_uart_read_fd>:
 *
 */

int 
altera_avalon_jtag_uart_read_fd(alt_fd* fd, char* buffer, int space)
{
 100f82c:	defffa04 	addi	sp,sp,-24
 100f830:	dfc00515 	stw	ra,20(sp)
 100f834:	df000415 	stw	fp,16(sp)
 100f838:	df000404 	addi	fp,sp,16
 100f83c:	e13ffd15 	stw	r4,-12(fp)
 100f840:	e17ffe15 	stw	r5,-8(fp)
 100f844:	e1bfff15 	stw	r6,-4(fp)
    altera_avalon_jtag_uart_dev* dev = (altera_avalon_jtag_uart_dev*) fd->dev; 
 100f848:	e0bffd17 	ldw	r2,-12(fp)
 100f84c:	10800017 	ldw	r2,0(r2)
 100f850:	e0bffc15 	stw	r2,-16(fp)

    return altera_avalon_jtag_uart_read(&dev->state, buffer, space,
 100f854:	e0bffc17 	ldw	r2,-16(fp)
 100f858:	11000a04 	addi	r4,r2,40
 100f85c:	e0bffd17 	ldw	r2,-12(fp)
 100f860:	11c00217 	ldw	r7,8(r2)
 100f864:	e17ffe17 	ldw	r5,-8(fp)
 100f868:	e1bfff17 	ldw	r6,-4(fp)
 100f86c:	100fe740 	call	100fe74 <altera_avalon_jtag_uart_read>
      fd->fd_flags);
}
 100f870:	e037883a 	mov	sp,fp
 100f874:	dfc00117 	ldw	ra,4(sp)
 100f878:	df000017 	ldw	fp,0(sp)
 100f87c:	dec00204 	addi	sp,sp,8
 100f880:	f800283a 	ret

0100f884 <altera_avalon_jtag_uart_write_fd>:

int 
altera_avalon_jtag_uart_write_fd(alt_fd* fd, const char* buffer, int space)
{
 100f884:	defffa04 	addi	sp,sp,-24
 100f888:	dfc00515 	stw	ra,20(sp)
 100f88c:	df000415 	stw	fp,16(sp)
 100f890:	df000404 	addi	fp,sp,16
 100f894:	e13ffd15 	stw	r4,-12(fp)
 100f898:	e17ffe15 	stw	r5,-8(fp)
 100f89c:	e1bfff15 	stw	r6,-4(fp)
    altera_avalon_jtag_uart_dev* dev = (altera_avalon_jtag_uart_dev*) fd->dev; 
 100f8a0:	e0bffd17 	ldw	r2,-12(fp)
 100f8a4:	10800017 	ldw	r2,0(r2)
 100f8a8:	e0bffc15 	stw	r2,-16(fp)

    return altera_avalon_jtag_uart_write(&dev->state, buffer, space,
 100f8ac:	e0bffc17 	ldw	r2,-16(fp)
 100f8b0:	11000a04 	addi	r4,r2,40
 100f8b4:	e0bffd17 	ldw	r2,-12(fp)
 100f8b8:	11c00217 	ldw	r7,8(r2)
 100f8bc:	e17ffe17 	ldw	r5,-8(fp)
 100f8c0:	e1bfff17 	ldw	r6,-4(fp)
 100f8c4:	10100980 	call	1010098 <altera_avalon_jtag_uart_write>
      fd->fd_flags);
}
 100f8c8:	e037883a 	mov	sp,fp
 100f8cc:	dfc00117 	ldw	ra,4(sp)
 100f8d0:	df000017 	ldw	fp,0(sp)
 100f8d4:	dec00204 	addi	sp,sp,8
 100f8d8:	f800283a 	ret

0100f8dc <altera_avalon_jtag_uart_close_fd>:

#ifndef ALTERA_AVALON_JTAG_UART_SMALL

int 
altera_avalon_jtag_uart_close_fd(alt_fd* fd)
{
 100f8dc:	defffc04 	addi	sp,sp,-16
 100f8e0:	dfc00315 	stw	ra,12(sp)
 100f8e4:	df000215 	stw	fp,8(sp)
 100f8e8:	df000204 	addi	fp,sp,8
 100f8ec:	e13fff15 	stw	r4,-4(fp)
    altera_avalon_jtag_uart_dev* dev = (altera_avalon_jtag_uart_dev*) fd->dev; 
 100f8f0:	e0bfff17 	ldw	r2,-4(fp)
 100f8f4:	10800017 	ldw	r2,0(r2)
 100f8f8:	e0bffe15 	stw	r2,-8(fp)

    return altera_avalon_jtag_uart_close(&dev->state, fd->fd_flags);
 100f8fc:	e0bffe17 	ldw	r2,-8(fp)
 100f900:	11000a04 	addi	r4,r2,40
 100f904:	e0bfff17 	ldw	r2,-4(fp)
 100f908:	11400217 	ldw	r5,8(r2)
 100f90c:	100fd0c0 	call	100fd0c <altera_avalon_jtag_uart_close>
}
 100f910:	e037883a 	mov	sp,fp
 100f914:	dfc00117 	ldw	ra,4(sp)
 100f918:	df000017 	ldw	fp,0(sp)
 100f91c:	dec00204 	addi	sp,sp,8
 100f920:	f800283a 	ret

0100f924 <altera_avalon_jtag_uart_ioctl_fd>:

int 
altera_avalon_jtag_uart_ioctl_fd(alt_fd* fd, int req, void* arg)
{
 100f924:	defffa04 	addi	sp,sp,-24
 100f928:	dfc00515 	stw	ra,20(sp)
 100f92c:	df000415 	stw	fp,16(sp)
 100f930:	df000404 	addi	fp,sp,16
 100f934:	e13ffd15 	stw	r4,-12(fp)
 100f938:	e17ffe15 	stw	r5,-8(fp)
 100f93c:	e1bfff15 	stw	r6,-4(fp)
    altera_avalon_jtag_uart_dev* dev = (altera_avalon_jtag_uart_dev*) fd->dev;
 100f940:	e0bffd17 	ldw	r2,-12(fp)
 100f944:	10800017 	ldw	r2,0(r2)
 100f948:	e0bffc15 	stw	r2,-16(fp)

    return altera_avalon_jtag_uart_ioctl(&dev->state, req, arg);
 100f94c:	e0bffc17 	ldw	r2,-16(fp)
 100f950:	11000a04 	addi	r4,r2,40
 100f954:	e17ffe17 	ldw	r5,-8(fp)
 100f958:	e1bfff17 	ldw	r6,-4(fp)
 100f95c:	100fd800 	call	100fd80 <altera_avalon_jtag_uart_ioctl>
}
 100f960:	e037883a 	mov	sp,fp
 100f964:	dfc00117 	ldw	ra,4(sp)
 100f968:	df000017 	ldw	fp,0(sp)
 100f96c:	dec00204 	addi	sp,sp,8
 100f970:	f800283a 	ret

0100f974 <altera_avalon_jtag_uart_init>:
 * Return 1 on sucessful IRQ register and 0 on failure.
 */

void altera_avalon_jtag_uart_init(altera_avalon_jtag_uart_state* sp, 
                                  int irq_controller_id, int irq)
{
 100f974:	defffa04 	addi	sp,sp,-24
 100f978:	dfc00515 	stw	ra,20(sp)
 100f97c:	df000415 	stw	fp,16(sp)
 100f980:	df000404 	addi	fp,sp,16
 100f984:	e13ffd15 	stw	r4,-12(fp)
 100f988:	e17ffe15 	stw	r5,-8(fp)
 100f98c:	e1bfff15 	stw	r6,-4(fp)
  ALT_FLAG_CREATE(&sp->events, 0);
  ALT_SEM_CREATE(&sp->read_lock, 1);
  ALT_SEM_CREATE(&sp->write_lock, 1);

  /* enable read interrupts at the device */
  sp->irq_enable = ALTERA_AVALON_JTAG_UART_CONTROL_RE_MSK;
 100f990:	e0fffd17 	ldw	r3,-12(fp)
 100f994:	00800044 	movi	r2,1
 100f998:	18800815 	stw	r2,32(r3)

  IOWR_ALTERA_AVALON_JTAG_UART_CONTROL(sp->base, sp->irq_enable); 
 100f99c:	e0bffd17 	ldw	r2,-12(fp)
 100f9a0:	10800017 	ldw	r2,0(r2)
 100f9a4:	11000104 	addi	r4,r2,4
 100f9a8:	e0bffd17 	ldw	r2,-12(fp)
 100f9ac:	10800817 	ldw	r2,32(r2)
 100f9b0:	1007883a 	mov	r3,r2
 100f9b4:	2005883a 	mov	r2,r4
 100f9b8:	10c00035 	stwio	r3,0(r2)
  
  /* register the interrupt handler */
#ifdef ALT_ENHANCED_INTERRUPT_API_PRESENT
  alt_ic_isr_register(irq_controller_id, irq, altera_avalon_jtag_uart_irq, 
 100f9bc:	e13ffe17 	ldw	r4,-8(fp)
 100f9c0:	e17fff17 	ldw	r5,-4(fp)
 100f9c4:	d8000015 	stw	zero,0(sp)
 100f9c8:	01804074 	movhi	r6,257
 100f9cc:	31be8d04 	addi	r6,r6,-1484
 100f9d0:	e1fffd17 	ldw	r7,-12(fp)
 100f9d4:	1011f780 	call	1011f78 <alt_ic_isr_register>
#else
  alt_irq_register(irq, sp, altera_avalon_jtag_uart_irq);
#endif  

  /* Register an alarm to go off every second to check for presence of host */
  sp->host_inactive = 0;
 100f9d8:	e0bffd17 	ldw	r2,-12(fp)
 100f9dc:	10000915 	stw	zero,36(r2)

  if (alt_alarm_start(&sp->alarm, alt_ticks_per_second(), 
 100f9e0:	e0bffd17 	ldw	r2,-12(fp)
 100f9e4:	11000204 	addi	r4,r2,8
 100f9e8:	00804174 	movhi	r2,261
 100f9ec:	10a83504 	addi	r2,r2,-24364
 100f9f0:	10800017 	ldw	r2,0(r2)
 100f9f4:	100b883a 	mov	r5,r2
 100f9f8:	01804074 	movhi	r6,257
 100f9fc:	31bf1704 	addi	r6,r6,-932
 100fa00:	e1fffd17 	ldw	r7,-12(fp)
 100fa04:	1011b7c0 	call	1011b7c <alt_alarm_start>
 100fa08:	1004403a 	cmpge	r2,r2,zero
 100fa0c:	1000041e 	bne	r2,zero,100fa20 <altera_avalon_jtag_uart_init+0xac>
    &altera_avalon_jtag_uart_timeout, sp) < 0)
  {
    /* If we can't set the alarm then record "don't know if host present" 
     * and behave as though the host is present.
     */
    sp->timeout = INT_MAX;
 100fa10:	e0fffd17 	ldw	r3,-12(fp)
 100fa14:	00a00034 	movhi	r2,32768
 100fa18:	10bfffc4 	addi	r2,r2,-1
 100fa1c:	18800115 	stw	r2,4(r3)
  }

  /* ALT_LOG - see altera_hal/HAL/inc/sys/alt_log_printf.h */ 
  ALT_LOG_JTAG_UART_ALARM_REGISTER(sp, sp->base);
}
 100fa20:	e037883a 	mov	sp,fp
 100fa24:	dfc00117 	ldw	ra,4(sp)
 100fa28:	df000017 	ldw	fp,0(sp)
 100fa2c:	dec00204 	addi	sp,sp,8
 100fa30:	f800283a 	ret

0100fa34 <altera_avalon_jtag_uart_irq>:
#ifdef ALT_ENHANCED_INTERRUPT_API_PRESENT
static void altera_avalon_jtag_uart_irq(void* context)
#else
static void altera_avalon_jtag_uart_irq(void* context, alt_u32 id)
#endif
{
 100fa34:	defff804 	addi	sp,sp,-32
 100fa38:	df000715 	stw	fp,28(sp)
 100fa3c:	df000704 	addi	fp,sp,28
 100fa40:	e13fff15 	stw	r4,-4(fp)
  altera_avalon_jtag_uart_state* sp = (altera_avalon_jtag_uart_state*) context;
 100fa44:	e0bfff17 	ldw	r2,-4(fp)
 100fa48:	e0bffe15 	stw	r2,-8(fp)
  unsigned int base = sp->base;
 100fa4c:	e0bffe17 	ldw	r2,-8(fp)
 100fa50:	10800017 	ldw	r2,0(r2)
 100fa54:	e0bffd15 	stw	r2,-12(fp)
 100fa58:	00000006 	br	100fa5c <altera_avalon_jtag_uart_irq+0x28>
  /* ALT_LOG - see altera_hal/HAL/inc/sys/alt_log_printf.h */ 
  ALT_LOG_JTAG_UART_ISR_FUNCTION(base, sp);

  for ( ; ; )
  {
    unsigned int control = IORD_ALTERA_AVALON_JTAG_UART_CONTROL(base);
 100fa5c:	e0bffd17 	ldw	r2,-12(fp)
 100fa60:	10800104 	addi	r2,r2,4
 100fa64:	10800037 	ldwio	r2,0(r2)
 100fa68:	e0bffc15 	stw	r2,-16(fp)

    /* Return once nothing more to do */
    if ((control & (ALTERA_AVALON_JTAG_UART_CONTROL_RI_MSK | ALTERA_AVALON_JTAG_UART_CONTROL_WI_MSK)) == 0)
 100fa6c:	e0bffc17 	ldw	r2,-16(fp)
 100fa70:	1080c00c 	andi	r2,r2,768
 100fa74:	1005003a 	cmpeq	r2,r2,zero
 100fa78:	1000741e 	bne	r2,zero,100fc4c <altera_avalon_jtag_uart_irq+0x218>
      break;

    if (control & ALTERA_AVALON_JTAG_UART_CONTROL_RI_MSK)
 100fa7c:	e0bffc17 	ldw	r2,-16(fp)
 100fa80:	1080400c 	andi	r2,r2,256
 100fa84:	1005003a 	cmpeq	r2,r2,zero
 100fa88:	1000351e 	bne	r2,zero,100fb60 <altera_avalon_jtag_uart_irq+0x12c>
    {
      /* process a read irq.  Start by assuming that there is data in the
       * receive FIFO (otherwise why would we have been interrupted?)
       */
      unsigned int data = 1 << ALTERA_AVALON_JTAG_UART_DATA_RAVAIL_OFST;
 100fa8c:	00800074 	movhi	r2,1
 100fa90:	e0bffb15 	stw	r2,-20(fp)
      for ( ; ; )
      {
        /* Check whether there is space in the buffer.  If not then we must not
         * read any characters from the buffer as they will be lost.
         */
        unsigned int next = (sp->rx_in + 1) % ALTERA_AVALON_JTAG_UART_BUF_LEN;
 100fa94:	e0bffe17 	ldw	r2,-8(fp)
 100fa98:	10800a17 	ldw	r2,40(r2)
 100fa9c:	10800044 	addi	r2,r2,1
 100faa0:	1081ffcc 	andi	r2,r2,2047
 100faa4:	e0bffa15 	stw	r2,-24(fp)
        if (next == sp->rx_out)
 100faa8:	e0bffe17 	ldw	r2,-8(fp)
 100faac:	10c00b17 	ldw	r3,44(r2)
 100fab0:	e0bffa17 	ldw	r2,-24(fp)
 100fab4:	18801626 	beq	r3,r2,100fb10 <altera_avalon_jtag_uart_irq+0xdc>
          break;

        /* Try to remove a character from the FIFO and find out whether there
         * are any more characters remaining.
         */
        data = IORD_ALTERA_AVALON_JTAG_UART_DATA(base);
 100fab8:	e0bffd17 	ldw	r2,-12(fp)
 100fabc:	10800037 	ldwio	r2,0(r2)
 100fac0:	e0bffb15 	stw	r2,-20(fp)
        
        if ((data & ALTERA_AVALON_JTAG_UART_DATA_RVALID_MSK) == 0)
 100fac4:	e0bffb17 	ldw	r2,-20(fp)
 100fac8:	10a0000c 	andi	r2,r2,32768
 100facc:	1005003a 	cmpeq	r2,r2,zero
 100fad0:	10000f1e 	bne	r2,zero,100fb10 <altera_avalon_jtag_uart_irq+0xdc>
          break;

        sp->rx_buf[sp->rx_in] = (data & ALTERA_AVALON_JTAG_UART_DATA_DATA_MSK) >> ALTERA_AVALON_JTAG_UART_DATA_DATA_OFST;
 100fad4:	e0bffe17 	ldw	r2,-8(fp)
 100fad8:	10c00a17 	ldw	r3,40(r2)
 100fadc:	e0bffb17 	ldw	r2,-20(fp)
 100fae0:	1009883a 	mov	r4,r2
 100fae4:	e0bffe17 	ldw	r2,-8(fp)
 100fae8:	1885883a 	add	r2,r3,r2
 100faec:	10800e04 	addi	r2,r2,56
 100faf0:	11000005 	stb	r4,0(r2)
        sp->rx_in = (sp->rx_in + 1) % ALTERA_AVALON_JTAG_UART_BUF_LEN;
 100faf4:	e0bffe17 	ldw	r2,-8(fp)
 100faf8:	10800a17 	ldw	r2,40(r2)
 100fafc:	10800044 	addi	r2,r2,1
 100fb00:	10c1ffcc 	andi	r3,r2,2047
 100fb04:	e0bffe17 	ldw	r2,-8(fp)
 100fb08:	10c00a15 	stw	r3,40(r2)

        /* Post an event to notify jtag_uart_read that a character has been read */
        ALT_FLAG_POST (sp->events, ALT_JTAG_UART_READ_RDY, OS_FLAG_SET);
      }
 100fb0c:	003fe106 	br	100fa94 <altera_avalon_jtag_uart_irq+0x60>

      if (data & ALTERA_AVALON_JTAG_UART_DATA_RAVAIL_MSK)
 100fb10:	e0bffb17 	ldw	r2,-20(fp)
 100fb14:	10bfffec 	andhi	r2,r2,65535
 100fb18:	1005003a 	cmpeq	r2,r2,zero
 100fb1c:	1000101e 	bne	r2,zero,100fb60 <altera_avalon_jtag_uart_irq+0x12c>
      {
        /* If there is still data available here then the buffer is full 
         * so turn off receive interrupts until some space becomes available.
         */
        sp->irq_enable &= ~ALTERA_AVALON_JTAG_UART_CONTROL_RE_MSK;
 100fb20:	e0bffe17 	ldw	r2,-8(fp)
 100fb24:	10c00817 	ldw	r3,32(r2)
 100fb28:	00bfff84 	movi	r2,-2
 100fb2c:	1886703a 	and	r3,r3,r2
 100fb30:	e0bffe17 	ldw	r2,-8(fp)
 100fb34:	10c00815 	stw	r3,32(r2)
        IOWR_ALTERA_AVALON_JTAG_UART_CONTROL(base, sp->irq_enable);
 100fb38:	e0bffd17 	ldw	r2,-12(fp)
 100fb3c:	11000104 	addi	r4,r2,4
 100fb40:	e0bffe17 	ldw	r2,-8(fp)
 100fb44:	10800817 	ldw	r2,32(r2)
 100fb48:	1007883a 	mov	r3,r2
 100fb4c:	2005883a 	mov	r2,r4
 100fb50:	10c00035 	stwio	r3,0(r2)
        
        /* Dummy read to ensure IRQ is cleared prior to ISR completion */
        IORD_ALTERA_AVALON_JTAG_UART_CONTROL(base);
 100fb54:	e0bffd17 	ldw	r2,-12(fp)
 100fb58:	10800104 	addi	r2,r2,4
 100fb5c:	10800037 	ldwio	r2,0(r2)
      }
    }

    if (control & ALTERA_AVALON_JTAG_UART_CONTROL_WI_MSK)
 100fb60:	e0bffc17 	ldw	r2,-16(fp)
 100fb64:	1080800c 	andi	r2,r2,512
 100fb68:	1005003a 	cmpeq	r2,r2,zero
 100fb6c:	103fbb1e 	bne	r2,zero,100fa5c <altera_avalon_jtag_uart_irq+0x28>
    {
      /* process a write irq */
      unsigned int space = (control & ALTERA_AVALON_JTAG_UART_CONTROL_WSPACE_MSK) >> ALTERA_AVALON_JTAG_UART_CONTROL_WSPACE_OFST;
 100fb70:	e0bffc17 	ldw	r2,-16(fp)
 100fb74:	10bfffec 	andhi	r2,r2,65535
 100fb78:	1004d43a 	srli	r2,r2,16
 100fb7c:	e0bff915 	stw	r2,-28(fp)

      while (space > 0 && sp->tx_out != sp->tx_in)
 100fb80:	00001506 	br	100fbd8 <altera_avalon_jtag_uart_irq+0x1a4>
      {
        IOWR_ALTERA_AVALON_JTAG_UART_DATA(base, sp->tx_buf[sp->tx_out]);
 100fb84:	e13ffd17 	ldw	r4,-12(fp)
 100fb88:	e0bffe17 	ldw	r2,-8(fp)
 100fb8c:	10c00d17 	ldw	r3,52(r2)
 100fb90:	e0bffe17 	ldw	r2,-8(fp)
 100fb94:	1885883a 	add	r2,r3,r2
 100fb98:	10820e04 	addi	r2,r2,2104
 100fb9c:	10800003 	ldbu	r2,0(r2)
 100fba0:	10c03fcc 	andi	r3,r2,255
 100fba4:	18c0201c 	xori	r3,r3,128
 100fba8:	18ffe004 	addi	r3,r3,-128
 100fbac:	2005883a 	mov	r2,r4
 100fbb0:	10c00035 	stwio	r3,0(r2)

        sp->tx_out = (sp->tx_out + 1) % ALTERA_AVALON_JTAG_UART_BUF_LEN;
 100fbb4:	e0bffe17 	ldw	r2,-8(fp)
 100fbb8:	10800d17 	ldw	r2,52(r2)
 100fbbc:	10800044 	addi	r2,r2,1
 100fbc0:	10c1ffcc 	andi	r3,r2,2047
 100fbc4:	e0bffe17 	ldw	r2,-8(fp)
 100fbc8:	10c00d15 	stw	r3,52(r2)

        /* Post an event to notify jtag_uart_write that a character has been written */
        ALT_FLAG_POST (sp->events, ALT_JTAG_UART_WRITE_RDY, OS_FLAG_SET);

        space--;
 100fbcc:	e0bff917 	ldw	r2,-28(fp)
 100fbd0:	10bfffc4 	addi	r2,r2,-1
 100fbd4:	e0bff915 	stw	r2,-28(fp)
    if (control & ALTERA_AVALON_JTAG_UART_CONTROL_WI_MSK)
    {
      /* process a write irq */
      unsigned int space = (control & ALTERA_AVALON_JTAG_UART_CONTROL_WSPACE_MSK) >> ALTERA_AVALON_JTAG_UART_CONTROL_WSPACE_OFST;

      while (space > 0 && sp->tx_out != sp->tx_in)
 100fbd8:	e0bff917 	ldw	r2,-28(fp)
 100fbdc:	1005003a 	cmpeq	r2,r2,zero
 100fbe0:	1000051e 	bne	r2,zero,100fbf8 <altera_avalon_jtag_uart_irq+0x1c4>
 100fbe4:	e0bffe17 	ldw	r2,-8(fp)
 100fbe8:	10c00d17 	ldw	r3,52(r2)
 100fbec:	e0bffe17 	ldw	r2,-8(fp)
 100fbf0:	10800c17 	ldw	r2,48(r2)
 100fbf4:	18bfe31e 	bne	r3,r2,100fb84 <altera_avalon_jtag_uart_irq+0x150>
        ALT_FLAG_POST (sp->events, ALT_JTAG_UART_WRITE_RDY, OS_FLAG_SET);

        space--;
      }

      if (space > 0)
 100fbf8:	e0bff917 	ldw	r2,-28(fp)
 100fbfc:	1005003a 	cmpeq	r2,r2,zero
 100fc00:	103f961e 	bne	r2,zero,100fa5c <altera_avalon_jtag_uart_irq+0x28>
      {
        /* If we don't have any more data available then turn off the TX interrupt */
        sp->irq_enable &= ~ALTERA_AVALON_JTAG_UART_CONTROL_WE_MSK;
 100fc04:	e0bffe17 	ldw	r2,-8(fp)
 100fc08:	10c00817 	ldw	r3,32(r2)
 100fc0c:	00bfff44 	movi	r2,-3
 100fc10:	1886703a 	and	r3,r3,r2
 100fc14:	e0bffe17 	ldw	r2,-8(fp)
 100fc18:	10c00815 	stw	r3,32(r2)
        IOWR_ALTERA_AVALON_JTAG_UART_CONTROL(sp->base, sp->irq_enable);
 100fc1c:	e0bffe17 	ldw	r2,-8(fp)
 100fc20:	10800017 	ldw	r2,0(r2)
 100fc24:	11000104 	addi	r4,r2,4
 100fc28:	e0bffe17 	ldw	r2,-8(fp)
 100fc2c:	10800817 	ldw	r2,32(r2)
 100fc30:	1007883a 	mov	r3,r2
 100fc34:	2005883a 	mov	r2,r4
 100fc38:	10c00035 	stwio	r3,0(r2)
        
        /* Dummy read to ensure IRQ is cleared prior to ISR completion */
        IORD_ALTERA_AVALON_JTAG_UART_CONTROL(base);
 100fc3c:	e0bffd17 	ldw	r2,-12(fp)
 100fc40:	10800104 	addi	r2,r2,4
 100fc44:	10800037 	ldwio	r2,0(r2)
      }
    }
  }
 100fc48:	003f8406 	br	100fa5c <altera_avalon_jtag_uart_irq+0x28>
}
 100fc4c:	e037883a 	mov	sp,fp
 100fc50:	df000017 	ldw	fp,0(sp)
 100fc54:	dec00104 	addi	sp,sp,4
 100fc58:	f800283a 	ret

0100fc5c <altera_avalon_jtag_uart_timeout>:
 * Timeout routine is called every second
 */

static alt_u32 
altera_avalon_jtag_uart_timeout(void* context) 
{
 100fc5c:	defffc04 	addi	sp,sp,-16
 100fc60:	df000315 	stw	fp,12(sp)
 100fc64:	df000304 	addi	fp,sp,12
 100fc68:	e13fff15 	stw	r4,-4(fp)
  altera_avalon_jtag_uart_state* sp = (altera_avalon_jtag_uart_state *) context;
 100fc6c:	e0bfff17 	ldw	r2,-4(fp)
 100fc70:	e0bffe15 	stw	r2,-8(fp)

  unsigned int control = IORD_ALTERA_AVALON_JTAG_UART_CONTROL(sp->base);
 100fc74:	e0bffe17 	ldw	r2,-8(fp)
 100fc78:	10800017 	ldw	r2,0(r2)
 100fc7c:	10800104 	addi	r2,r2,4
 100fc80:	10800037 	ldwio	r2,0(r2)
 100fc84:	e0bffd15 	stw	r2,-12(fp)

  if (control & ALTERA_AVALON_JTAG_UART_CONTROL_AC_MSK)
 100fc88:	e0bffd17 	ldw	r2,-12(fp)
 100fc8c:	1081000c 	andi	r2,r2,1024
 100fc90:	1005003a 	cmpeq	r2,r2,zero
 100fc94:	10000c1e 	bne	r2,zero,100fcc8 <altera_avalon_jtag_uart_timeout+0x6c>
  {
    IOWR_ALTERA_AVALON_JTAG_UART_CONTROL(sp->base, sp->irq_enable | ALTERA_AVALON_JTAG_UART_CONTROL_AC_MSK);
 100fc98:	e0bffe17 	ldw	r2,-8(fp)
 100fc9c:	10800017 	ldw	r2,0(r2)
 100fca0:	11000104 	addi	r4,r2,4
 100fca4:	e0bffe17 	ldw	r2,-8(fp)
 100fca8:	10800817 	ldw	r2,32(r2)
 100fcac:	10810014 	ori	r2,r2,1024
 100fcb0:	1007883a 	mov	r3,r2
 100fcb4:	2005883a 	mov	r2,r4
 100fcb8:	10c00035 	stwio	r3,0(r2)
    sp->host_inactive = 0;
 100fcbc:	e0bffe17 	ldw	r2,-8(fp)
 100fcc0:	10000915 	stw	zero,36(r2)
 100fcc4:	00000a06 	br	100fcf0 <altera_avalon_jtag_uart_timeout+0x94>
  }
  else if (sp->host_inactive < INT_MAX - 2) {
 100fcc8:	e0bffe17 	ldw	r2,-8(fp)
 100fccc:	10c00917 	ldw	r3,36(r2)
 100fcd0:	00a00034 	movhi	r2,32768
 100fcd4:	10bfff04 	addi	r2,r2,-4
 100fcd8:	10c00536 	bltu	r2,r3,100fcf0 <altera_avalon_jtag_uart_timeout+0x94>
    sp->host_inactive++;
 100fcdc:	e0bffe17 	ldw	r2,-8(fp)
 100fce0:	10800917 	ldw	r2,36(r2)
 100fce4:	10c00044 	addi	r3,r2,1
 100fce8:	e0bffe17 	ldw	r2,-8(fp)
 100fcec:	10c00915 	stw	r3,36(r2)
 100fcf0:	00804174 	movhi	r2,261
 100fcf4:	10a83504 	addi	r2,r2,-24364
 100fcf8:	10800017 	ldw	r2,0(r2)
      ALT_FLAG_POST (sp->events, ALT_JTAG_UART_TIMEOUT, OS_FLAG_SET);
    }
  }

  return alt_ticks_per_second();
}
 100fcfc:	e037883a 	mov	sp,fp
 100fd00:	df000017 	ldw	fp,0(sp)
 100fd04:	dec00104 	addi	sp,sp,4
 100fd08:	f800283a 	ret

0100fd0c <altera_avalon_jtag_uart_close>:
 * The close routine is not implemented for the small driver; instead it will
 * map to null. This is because the small driver simply waits while characters
 * are transmitted; there is no interrupt-serviced buffer to empty 
 */
int altera_avalon_jtag_uart_close(altera_avalon_jtag_uart_state* sp, int flags)
{
 100fd0c:	defffc04 	addi	sp,sp,-16
 100fd10:	df000315 	stw	fp,12(sp)
 100fd14:	df000304 	addi	fp,sp,12
 100fd18:	e13ffd15 	stw	r4,-12(fp)
 100fd1c:	e17ffe15 	stw	r5,-8(fp)
  /* 
   * Wait for all transmit data to be emptied by the JTAG UART ISR, or
   * for a host-inactivity timeout, in which case transmit data will be lost
   */
  while ( (sp->tx_out != sp->tx_in) && (sp->host_inactive < sp->timeout) ) {
 100fd20:	00000706 	br	100fd40 <altera_avalon_jtag_uart_close+0x34>
    if (flags & O_NONBLOCK) {
 100fd24:	e0bffe17 	ldw	r2,-8(fp)
 100fd28:	1090000c 	andi	r2,r2,16384
 100fd2c:	1005003a 	cmpeq	r2,r2,zero
 100fd30:	1000031e 	bne	r2,zero,100fd40 <altera_avalon_jtag_uart_close+0x34>
      return -EWOULDBLOCK; 
 100fd34:	00bffd44 	movi	r2,-11
 100fd38:	e0bfff15 	stw	r2,-4(fp)
 100fd3c:	00000b06 	br	100fd6c <altera_avalon_jtag_uart_close+0x60>
{
  /* 
   * Wait for all transmit data to be emptied by the JTAG UART ISR, or
   * for a host-inactivity timeout, in which case transmit data will be lost
   */
  while ( (sp->tx_out != sp->tx_in) && (sp->host_inactive < sp->timeout) ) {
 100fd40:	e0bffd17 	ldw	r2,-12(fp)
 100fd44:	10c00d17 	ldw	r3,52(r2)
 100fd48:	e0bffd17 	ldw	r2,-12(fp)
 100fd4c:	10800c17 	ldw	r2,48(r2)
 100fd50:	18800526 	beq	r3,r2,100fd68 <altera_avalon_jtag_uart_close+0x5c>
 100fd54:	e0bffd17 	ldw	r2,-12(fp)
 100fd58:	10c00917 	ldw	r3,36(r2)
 100fd5c:	e0bffd17 	ldw	r2,-12(fp)
 100fd60:	10800117 	ldw	r2,4(r2)
 100fd64:	18bfef36 	bltu	r3,r2,100fd24 <altera_avalon_jtag_uart_close+0x18>
    if (flags & O_NONBLOCK) {
      return -EWOULDBLOCK; 
    }
  }

  return 0;
 100fd68:	e03fff15 	stw	zero,-4(fp)
 100fd6c:	e0bfff17 	ldw	r2,-4(fp)
}
 100fd70:	e037883a 	mov	sp,fp
 100fd74:	df000017 	ldw	fp,0(sp)
 100fd78:	dec00104 	addi	sp,sp,4
 100fd7c:	f800283a 	ret

0100fd80 <altera_avalon_jtag_uart_ioctl>:
/* ----------------------------------------------------------- */

int 
altera_avalon_jtag_uart_ioctl(altera_avalon_jtag_uart_state* sp, int req,
  void* arg)
{
 100fd80:	defff804 	addi	sp,sp,-32
 100fd84:	df000715 	stw	fp,28(sp)
 100fd88:	df000704 	addi	fp,sp,28
 100fd8c:	e13ffb15 	stw	r4,-20(fp)
 100fd90:	e17ffc15 	stw	r5,-16(fp)
 100fd94:	e1bffd15 	stw	r6,-12(fp)
  int rc = -ENOTTY;
 100fd98:	00bff9c4 	movi	r2,-25
 100fd9c:	e0bffa15 	stw	r2,-24(fp)

  switch (req)
 100fda0:	e0bffc17 	ldw	r2,-16(fp)
 100fda4:	e0bfff15 	stw	r2,-4(fp)
 100fda8:	e0ffff17 	ldw	r3,-4(fp)
 100fdac:	189a8060 	cmpeqi	r2,r3,27137
 100fdb0:	1000041e 	bne	r2,zero,100fdc4 <altera_avalon_jtag_uart_ioctl+0x44>
 100fdb4:	e0ffff17 	ldw	r3,-4(fp)
 100fdb8:	189a80a0 	cmpeqi	r2,r3,27138
 100fdbc:	10001b1e 	bne	r2,zero,100fe2c <altera_avalon_jtag_uart_ioctl+0xac>
 100fdc0:	00002706 	br	100fe60 <altera_avalon_jtag_uart_ioctl+0xe0>
  {
  case TIOCSTIMEOUT:
    /* Set the time to wait until assuming host is not connected */
    if (sp->timeout != INT_MAX)
 100fdc4:	e0bffb17 	ldw	r2,-20(fp)
 100fdc8:	10c00117 	ldw	r3,4(r2)
 100fdcc:	00a00034 	movhi	r2,32768
 100fdd0:	10bfffc4 	addi	r2,r2,-1
 100fdd4:	18802226 	beq	r3,r2,100fe60 <altera_avalon_jtag_uart_ioctl+0xe0>
    {
      int timeout = *((int *)arg);
 100fdd8:	e0bffd17 	ldw	r2,-12(fp)
 100fddc:	10800017 	ldw	r2,0(r2)
 100fde0:	e0bff915 	stw	r2,-28(fp)
      sp->timeout = (timeout >= 2 && timeout < INT_MAX) ? timeout : INT_MAX - 1;
 100fde4:	e0bff917 	ldw	r2,-28(fp)
 100fde8:	10800090 	cmplti	r2,r2,2
 100fdec:	1000071e 	bne	r2,zero,100fe0c <altera_avalon_jtag_uart_ioctl+0x8c>
 100fdf0:	e0fff917 	ldw	r3,-28(fp)
 100fdf4:	00a00034 	movhi	r2,32768
 100fdf8:	10bfffc4 	addi	r2,r2,-1
 100fdfc:	18800326 	beq	r3,r2,100fe0c <altera_avalon_jtag_uart_ioctl+0x8c>
 100fe00:	e0bff917 	ldw	r2,-28(fp)
 100fe04:	e0bffe15 	stw	r2,-8(fp)
 100fe08:	00000306 	br	100fe18 <altera_avalon_jtag_uart_ioctl+0x98>
 100fe0c:	00e00034 	movhi	r3,32768
 100fe10:	18ffff84 	addi	r3,r3,-2
 100fe14:	e0fffe15 	stw	r3,-8(fp)
 100fe18:	e0bffb17 	ldw	r2,-20(fp)
 100fe1c:	e0fffe17 	ldw	r3,-8(fp)
 100fe20:	10c00115 	stw	r3,4(r2)
      rc = 0;
 100fe24:	e03ffa15 	stw	zero,-24(fp)
    }
    break;
 100fe28:	00000d06 	br	100fe60 <altera_avalon_jtag_uart_ioctl+0xe0>

  case TIOCGCONNECTED:
    /* Find out whether host is connected */
    if (sp->timeout != INT_MAX)
 100fe2c:	e0bffb17 	ldw	r2,-20(fp)
 100fe30:	10c00117 	ldw	r3,4(r2)
 100fe34:	00a00034 	movhi	r2,32768
 100fe38:	10bfffc4 	addi	r2,r2,-1
 100fe3c:	18800826 	beq	r3,r2,100fe60 <altera_avalon_jtag_uart_ioctl+0xe0>
    {
      *((int *)arg) = (sp->host_inactive < sp->timeout) ? 1 : 0;
 100fe40:	e13ffd17 	ldw	r4,-12(fp)
 100fe44:	e0bffb17 	ldw	r2,-20(fp)
 100fe48:	10c00917 	ldw	r3,36(r2)
 100fe4c:	e0bffb17 	ldw	r2,-20(fp)
 100fe50:	10800117 	ldw	r2,4(r2)
 100fe54:	1885803a 	cmpltu	r2,r3,r2
 100fe58:	20800015 	stw	r2,0(r4)
      rc = 0;
 100fe5c:	e03ffa15 	stw	zero,-24(fp)

  default:
    break;
  }

  return rc;
 100fe60:	e0bffa17 	ldw	r2,-24(fp)
}
 100fe64:	e037883a 	mov	sp,fp
 100fe68:	df000017 	ldw	fp,0(sp)
 100fe6c:	dec00104 	addi	sp,sp,4
 100fe70:	f800283a 	ret

0100fe74 <altera_avalon_jtag_uart_read>:
/* ----------------------------------------------------------- */

int 
altera_avalon_jtag_uart_read(altera_avalon_jtag_uart_state* sp, 
  char * buffer, int space, int flags)
{
 100fe74:	defff204 	addi	sp,sp,-56
 100fe78:	dfc00d15 	stw	ra,52(sp)
 100fe7c:	df000c15 	stw	fp,48(sp)
 100fe80:	df000c04 	addi	fp,sp,48
 100fe84:	e13ffb15 	stw	r4,-20(fp)
 100fe88:	e17ffc15 	stw	r5,-16(fp)
 100fe8c:	e1bffd15 	stw	r6,-12(fp)
 100fe90:	e1fffe15 	stw	r7,-8(fp)
  char * ptr = buffer;
 100fe94:	e0bffc17 	ldw	r2,-16(fp)
 100fe98:	e0bffa15 	stw	r2,-24(fp)
   * When running in a multi threaded environment, obtain the "read_lock"
   * semaphore. This ensures that reading from the device is thread-safe.
   */
  ALT_SEM_PEND (sp->read_lock, 0);

  while (space > 0)
 100fe9c:	00004806 	br	100ffc0 <altera_avalon_jtag_uart_read+0x14c>
    unsigned int in, out;

    /* Read as much data as possible */
    do
    {
      in  = sp->rx_in;
 100fea0:	e0bffb17 	ldw	r2,-20(fp)
 100fea4:	10800a17 	ldw	r2,40(r2)
 100fea8:	e0bff715 	stw	r2,-36(fp)
      out = sp->rx_out;
 100feac:	e0bffb17 	ldw	r2,-20(fp)
 100feb0:	10800b17 	ldw	r2,44(r2)
 100feb4:	e0bff615 	stw	r2,-40(fp)

      if (in >= out)
 100feb8:	e0fff717 	ldw	r3,-36(fp)
 100febc:	e0bff617 	ldw	r2,-40(fp)
 100fec0:	18800536 	bltu	r3,r2,100fed8 <altera_avalon_jtag_uart_read+0x64>
        n = in - out;
 100fec4:	e0bff717 	ldw	r2,-36(fp)
 100fec8:	e0fff617 	ldw	r3,-40(fp)
 100fecc:	10c5c83a 	sub	r2,r2,r3
 100fed0:	e0bff815 	stw	r2,-32(fp)
 100fed4:	00000406 	br	100fee8 <altera_avalon_jtag_uart_read+0x74>
      else
        n = ALTERA_AVALON_JTAG_UART_BUF_LEN - out;
 100fed8:	00820004 	movi	r2,2048
 100fedc:	e0fff617 	ldw	r3,-40(fp)
 100fee0:	10c5c83a 	sub	r2,r2,r3
 100fee4:	e0bff815 	stw	r2,-32(fp)

      if (n == 0)
 100fee8:	e0bff817 	ldw	r2,-32(fp)
 100feec:	1005003a 	cmpeq	r2,r2,zero
 100fef0:	10001f1e 	bne	r2,zero,100ff70 <altera_avalon_jtag_uart_read+0xfc>
        break; /* No more data available */

      if (n > space)
 100fef4:	e0fffd17 	ldw	r3,-12(fp)
 100fef8:	e0bff817 	ldw	r2,-32(fp)
 100fefc:	1880022e 	bgeu	r3,r2,100ff08 <altera_avalon_jtag_uart_read+0x94>
        n = space;
 100ff00:	e0bffd17 	ldw	r2,-12(fp)
 100ff04:	e0bff815 	stw	r2,-32(fp)

      memcpy(ptr, sp->rx_buf + out, n);
 100ff08:	e0bffb17 	ldw	r2,-20(fp)
 100ff0c:	10c00e04 	addi	r3,r2,56
 100ff10:	e0bff617 	ldw	r2,-40(fp)
 100ff14:	1887883a 	add	r3,r3,r2
 100ff18:	e0bffa17 	ldw	r2,-24(fp)
 100ff1c:	1009883a 	mov	r4,r2
 100ff20:	180b883a 	mov	r5,r3
 100ff24:	e1bff817 	ldw	r6,-32(fp)
 100ff28:	100b7580 	call	100b758 <memcpy>
      ptr   += n;
 100ff2c:	e0fff817 	ldw	r3,-32(fp)
 100ff30:	e0bffa17 	ldw	r2,-24(fp)
 100ff34:	10c5883a 	add	r2,r2,r3
 100ff38:	e0bffa15 	stw	r2,-24(fp)
      space -= n;
 100ff3c:	e0fffd17 	ldw	r3,-12(fp)
 100ff40:	e0bff817 	ldw	r2,-32(fp)
 100ff44:	1885c83a 	sub	r2,r3,r2
 100ff48:	e0bffd15 	stw	r2,-12(fp)

      sp->rx_out = (out + n) % ALTERA_AVALON_JTAG_UART_BUF_LEN;
 100ff4c:	e0fff617 	ldw	r3,-40(fp)
 100ff50:	e0bff817 	ldw	r2,-32(fp)
 100ff54:	1885883a 	add	r2,r3,r2
 100ff58:	10c1ffcc 	andi	r3,r2,2047
 100ff5c:	e0bffb17 	ldw	r2,-20(fp)
 100ff60:	10c00b15 	stw	r3,44(r2)
    }
    while (space > 0);
 100ff64:	e0bffd17 	ldw	r2,-12(fp)
 100ff68:	10800048 	cmpgei	r2,r2,1
 100ff6c:	103fcc1e 	bne	r2,zero,100fea0 <altera_avalon_jtag_uart_read+0x2c>

    /* If we read any data then return it */
    if (ptr != buffer)
 100ff70:	e0fffa17 	ldw	r3,-24(fp)
 100ff74:	e0bffc17 	ldw	r2,-16(fp)
 100ff78:	1880141e 	bne	r3,r2,100ffcc <altera_avalon_jtag_uart_read+0x158>
      break;

    /* If in non-blocking mode then return error */
    if (flags & O_NONBLOCK)
 100ff7c:	e0bffe17 	ldw	r2,-8(fp)
 100ff80:	1090000c 	andi	r2,r2,16384
 100ff84:	1004c03a 	cmpne	r2,r2,zero
 100ff88:	1000101e 	bne	r2,zero,100ffcc <altera_avalon_jtag_uart_read+0x158>
      while (in == sp->rx_in && sp->host_inactive < sp->timeout)
        ;
    }
#else
    /* No OS: Always spin */
    while (in == sp->rx_in && sp->host_inactive < sp->timeout)
 100ff8c:	e0bffb17 	ldw	r2,-20(fp)
 100ff90:	10c00a17 	ldw	r3,40(r2)
 100ff94:	e0bff717 	ldw	r2,-36(fp)
 100ff98:	1880051e 	bne	r3,r2,100ffb0 <altera_avalon_jtag_uart_read+0x13c>
 100ff9c:	e0bffb17 	ldw	r2,-20(fp)
 100ffa0:	10c00917 	ldw	r3,36(r2)
 100ffa4:	e0bffb17 	ldw	r2,-20(fp)
 100ffa8:	10800117 	ldw	r2,4(r2)
 100ffac:	18bff736 	bltu	r3,r2,100ff8c <altera_avalon_jtag_uart_read+0x118>
      ;
#endif /* __ucosii__ */

    if (in == sp->rx_in)
 100ffb0:	e0bffb17 	ldw	r2,-20(fp)
 100ffb4:	10c00a17 	ldw	r3,40(r2)
 100ffb8:	e0bff717 	ldw	r2,-36(fp)
 100ffbc:	18800326 	beq	r3,r2,100ffcc <altera_avalon_jtag_uart_read+0x158>
   * When running in a multi threaded environment, obtain the "read_lock"
   * semaphore. This ensures that reading from the device is thread-safe.
   */
  ALT_SEM_PEND (sp->read_lock, 0);

  while (space > 0)
 100ffc0:	e0bffd17 	ldw	r2,-12(fp)
 100ffc4:	10800048 	cmpgei	r2,r2,1
 100ffc8:	103fb51e 	bne	r2,zero,100fea0 <altera_avalon_jtag_uart_read+0x2c>
   * semaphore so that other threads can access the buffer.
   */

  ALT_SEM_POST (sp->read_lock);

  if (ptr != buffer)
 100ffcc:	e0fffa17 	ldw	r3,-24(fp)
 100ffd0:	e0bffc17 	ldw	r2,-16(fp)
 100ffd4:	18801926 	beq	r3,r2,101003c <altera_avalon_jtag_uart_read+0x1c8>
static ALT_INLINE alt_irq_context ALT_ALWAYS_INLINE 
       alt_irq_disable_all (void)
{
  alt_irq_context context;

  NIOS2_READ_STATUS (context);
 100ffd8:	0005303a 	rdctl	r2,status
 100ffdc:	e0bff515 	stw	r2,-44(fp)

  NIOS2_WRITE_STATUS (context & ~NIOS2_STATUS_PIE_MSK);
 100ffe0:	e0fff517 	ldw	r3,-44(fp)
 100ffe4:	00bfff84 	movi	r2,-2
 100ffe8:	1884703a 	and	r2,r3,r2
 100ffec:	1001703a 	wrctl	status,r2
  
  return context;
 100fff0:	e0bff517 	ldw	r2,-44(fp)
  {
    /* If we read any data then there is space in the buffer so enable interrupts */
    context = alt_irq_disable_all();
 100fff4:	e0bff915 	stw	r2,-28(fp)
    sp->irq_enable |= ALTERA_AVALON_JTAG_UART_CONTROL_RE_MSK;
 100fff8:	e0bffb17 	ldw	r2,-20(fp)
 100fffc:	10800817 	ldw	r2,32(r2)
 1010000:	10c00054 	ori	r3,r2,1
 1010004:	e0bffb17 	ldw	r2,-20(fp)
 1010008:	10c00815 	stw	r3,32(r2)
    IOWR_ALTERA_AVALON_JTAG_UART_CONTROL(sp->base, sp->irq_enable);
 101000c:	e0bffb17 	ldw	r2,-20(fp)
 1010010:	10800017 	ldw	r2,0(r2)
 1010014:	11000104 	addi	r4,r2,4
 1010018:	e0bffb17 	ldw	r2,-20(fp)
 101001c:	10800817 	ldw	r2,32(r2)
 1010020:	1007883a 	mov	r3,r2
 1010024:	2005883a 	mov	r2,r4
 1010028:	10c00035 	stwio	r3,0(r2)
 101002c:	e0bff917 	ldw	r2,-28(fp)
 1010030:	e0bff415 	stw	r2,-48(fp)
  status &= ~NIOS2_STATUS_PIE_MSK;
  status |= (context & NIOS2_STATUS_PIE_MSK);
  
  NIOS2_WRITE_STATUS (status);
#else
  NIOS2_WRITE_STATUS (context);
 1010034:	e0bff417 	ldw	r2,-48(fp)
 1010038:	1001703a 	wrctl	status,r2
    alt_irq_enable_all(context);
  }

  if (ptr != buffer)
 101003c:	e0fffa17 	ldw	r3,-24(fp)
 1010040:	e0bffc17 	ldw	r2,-16(fp)
 1010044:	18800526 	beq	r3,r2,101005c <altera_avalon_jtag_uart_read+0x1e8>
    return ptr - buffer;
 1010048:	e0fffa17 	ldw	r3,-24(fp)
 101004c:	e0bffc17 	ldw	r2,-16(fp)
 1010050:	1887c83a 	sub	r3,r3,r2
 1010054:	e0ffff15 	stw	r3,-4(fp)
 1010058:	00000906 	br	1010080 <altera_avalon_jtag_uart_read+0x20c>
  else if (flags & O_NONBLOCK)
 101005c:	e0bffe17 	ldw	r2,-8(fp)
 1010060:	1090000c 	andi	r2,r2,16384
 1010064:	1005003a 	cmpeq	r2,r2,zero
 1010068:	1000031e 	bne	r2,zero,1010078 <altera_avalon_jtag_uart_read+0x204>
    return -EWOULDBLOCK;
 101006c:	00bffd44 	movi	r2,-11
 1010070:	e0bfff15 	stw	r2,-4(fp)
 1010074:	00000206 	br	1010080 <altera_avalon_jtag_uart_read+0x20c>
  else
    return -EIO;
 1010078:	00bffec4 	movi	r2,-5
 101007c:	e0bfff15 	stw	r2,-4(fp)
 1010080:	e0bfff17 	ldw	r2,-4(fp)
}
 1010084:	e037883a 	mov	sp,fp
 1010088:	dfc00117 	ldw	ra,4(sp)
 101008c:	df000017 	ldw	fp,0(sp)
 1010090:	dec00204 	addi	sp,sp,8
 1010094:	f800283a 	ret

01010098 <altera_avalon_jtag_uart_write>:
/* ----------------------------------------------------------- */

int 
altera_avalon_jtag_uart_write(altera_avalon_jtag_uart_state* sp, 
  const char * ptr, int count, int flags)
{
 1010098:	defff204 	addi	sp,sp,-56
 101009c:	dfc00d15 	stw	ra,52(sp)
 10100a0:	df000c15 	stw	fp,48(sp)
 10100a4:	df000c04 	addi	fp,sp,48
 10100a8:	e13ffb15 	stw	r4,-20(fp)
 10100ac:	e17ffc15 	stw	r5,-16(fp)
 10100b0:	e1bffd15 	stw	r6,-12(fp)
 10100b4:	e1fffe15 	stw	r7,-8(fp)
  /* Remove warning at optimisation level 03 by seting out to 0 */
  unsigned int in, out=0;
 10100b8:	e03ff915 	stw	zero,-28(fp)
  unsigned int n;
  alt_irq_context context;

  const char * start = ptr;
 10100bc:	e0bffc17 	ldw	r2,-16(fp)
 10100c0:	e0bff615 	stw	r2,-40(fp)
  ALT_SEM_PEND (sp->write_lock, 0);

  do
  {
    /* Copy as much as we can into the transmit buffer */
    while (count > 0)
 10100c4:	00003a06 	br	10101b0 <altera_avalon_jtag_uart_write+0x118>
    {
      /* We need a stable value of the out pointer to calculate the space available */
      in  = sp->tx_in;
 10100c8:	e0bffb17 	ldw	r2,-20(fp)
 10100cc:	10800c17 	ldw	r2,48(r2)
 10100d0:	e0bffa15 	stw	r2,-24(fp)
      out = sp->tx_out;
 10100d4:	e0bffb17 	ldw	r2,-20(fp)
 10100d8:	10800d17 	ldw	r2,52(r2)
 10100dc:	e0bff915 	stw	r2,-28(fp)

      if (in < out)
 10100e0:	e0fffa17 	ldw	r3,-24(fp)
 10100e4:	e0bff917 	ldw	r2,-28(fp)
 10100e8:	1880062e 	bgeu	r3,r2,1010104 <altera_avalon_jtag_uart_write+0x6c>
        n = out - 1 - in;
 10100ec:	e0fff917 	ldw	r3,-28(fp)
 10100f0:	e0bffa17 	ldw	r2,-24(fp)
 10100f4:	1885c83a 	sub	r2,r3,r2
 10100f8:	10bfffc4 	addi	r2,r2,-1
 10100fc:	e0bff815 	stw	r2,-32(fp)
 1010100:	00000c06 	br	1010134 <altera_avalon_jtag_uart_write+0x9c>
      else if (out > 0)
 1010104:	e0bff917 	ldw	r2,-28(fp)
 1010108:	1005003a 	cmpeq	r2,r2,zero
 101010c:	1000051e 	bne	r2,zero,1010124 <altera_avalon_jtag_uart_write+0x8c>
        n = ALTERA_AVALON_JTAG_UART_BUF_LEN - in;
 1010110:	00820004 	movi	r2,2048
 1010114:	e0fffa17 	ldw	r3,-24(fp)
 1010118:	10c5c83a 	sub	r2,r2,r3
 101011c:	e0bff815 	stw	r2,-32(fp)
 1010120:	00000406 	br	1010134 <altera_avalon_jtag_uart_write+0x9c>
      else
        n = ALTERA_AVALON_JTAG_UART_BUF_LEN - 1 - in;
 1010124:	0081ffc4 	movi	r2,2047
 1010128:	e0fffa17 	ldw	r3,-24(fp)
 101012c:	10c5c83a 	sub	r2,r2,r3
 1010130:	e0bff815 	stw	r2,-32(fp)

      if (n == 0)
 1010134:	e0bff817 	ldw	r2,-32(fp)
 1010138:	1005003a 	cmpeq	r2,r2,zero
 101013c:	10001f1e 	bne	r2,zero,10101bc <altera_avalon_jtag_uart_write+0x124>
        break;

      if (n > count)
 1010140:	e0fffd17 	ldw	r3,-12(fp)
 1010144:	e0bff817 	ldw	r2,-32(fp)
 1010148:	1880022e 	bgeu	r3,r2,1010154 <altera_avalon_jtag_uart_write+0xbc>
        n = count;
 101014c:	e0bffd17 	ldw	r2,-12(fp)
 1010150:	e0bff815 	stw	r2,-32(fp)

      memcpy(sp->tx_buf + in, ptr, n);
 1010154:	e0bffb17 	ldw	r2,-20(fp)
 1010158:	10c20e04 	addi	r3,r2,2104
 101015c:	e0bffa17 	ldw	r2,-24(fp)
 1010160:	1885883a 	add	r2,r3,r2
 1010164:	e0fffc17 	ldw	r3,-16(fp)
 1010168:	1009883a 	mov	r4,r2
 101016c:	180b883a 	mov	r5,r3
 1010170:	e1bff817 	ldw	r6,-32(fp)
 1010174:	100b7580 	call	100b758 <memcpy>
      ptr   += n;
 1010178:	e0fff817 	ldw	r3,-32(fp)
 101017c:	e0bffc17 	ldw	r2,-16(fp)
 1010180:	10c5883a 	add	r2,r2,r3
 1010184:	e0bffc15 	stw	r2,-16(fp)
      count -= n;
 1010188:	e0fffd17 	ldw	r3,-12(fp)
 101018c:	e0bff817 	ldw	r2,-32(fp)
 1010190:	1885c83a 	sub	r2,r3,r2
 1010194:	e0bffd15 	stw	r2,-12(fp)

      sp->tx_in = (in + n) % ALTERA_AVALON_JTAG_UART_BUF_LEN;
 1010198:	e0fffa17 	ldw	r3,-24(fp)
 101019c:	e0bff817 	ldw	r2,-32(fp)
 10101a0:	1885883a 	add	r2,r3,r2
 10101a4:	10c1ffcc 	andi	r3,r2,2047
 10101a8:	e0bffb17 	ldw	r2,-20(fp)
 10101ac:	10c00c15 	stw	r3,48(r2)
  ALT_SEM_PEND (sp->write_lock, 0);

  do
  {
    /* Copy as much as we can into the transmit buffer */
    while (count > 0)
 10101b0:	e0bffd17 	ldw	r2,-12(fp)
 10101b4:	10800048 	cmpgei	r2,r2,1
 10101b8:	103fc31e 	bne	r2,zero,10100c8 <altera_avalon_jtag_uart_write+0x30>
static ALT_INLINE alt_irq_context ALT_ALWAYS_INLINE 
       alt_irq_disable_all (void)
{
  alt_irq_context context;

  NIOS2_READ_STATUS (context);
 10101bc:	0005303a 	rdctl	r2,status
 10101c0:	e0bff515 	stw	r2,-44(fp)

  NIOS2_WRITE_STATUS (context & ~NIOS2_STATUS_PIE_MSK);
 10101c4:	e0fff517 	ldw	r3,-44(fp)
 10101c8:	00bfff84 	movi	r2,-2
 10101cc:	1884703a 	and	r2,r3,r2
 10101d0:	1001703a 	wrctl	status,r2
  
  return context;
 10101d4:	e0bff517 	ldw	r2,-44(fp)
     * to enable interrupts if there is no space left in the FIFO
     *
     * For now kick the interrupt routine every time to make it transmit 
     * the data 
     */
    context = alt_irq_disable_all();
 10101d8:	e0bff715 	stw	r2,-36(fp)
    sp->irq_enable |= ALTERA_AVALON_JTAG_UART_CONTROL_WE_MSK;
 10101dc:	e0bffb17 	ldw	r2,-20(fp)
 10101e0:	10800817 	ldw	r2,32(r2)
 10101e4:	10c00094 	ori	r3,r2,2
 10101e8:	e0bffb17 	ldw	r2,-20(fp)
 10101ec:	10c00815 	stw	r3,32(r2)
    IOWR_ALTERA_AVALON_JTAG_UART_CONTROL(sp->base, sp->irq_enable);
 10101f0:	e0bffb17 	ldw	r2,-20(fp)
 10101f4:	10800017 	ldw	r2,0(r2)
 10101f8:	11000104 	addi	r4,r2,4
 10101fc:	e0bffb17 	ldw	r2,-20(fp)
 1010200:	10800817 	ldw	r2,32(r2)
 1010204:	1007883a 	mov	r3,r2
 1010208:	2005883a 	mov	r2,r4
 101020c:	10c00035 	stwio	r3,0(r2)
 1010210:	e0bff717 	ldw	r2,-36(fp)
 1010214:	e0bff415 	stw	r2,-48(fp)
  status &= ~NIOS2_STATUS_PIE_MSK;
  status |= (context & NIOS2_STATUS_PIE_MSK);
  
  NIOS2_WRITE_STATUS (status);
#else
  NIOS2_WRITE_STATUS (context);
 1010218:	e0bff417 	ldw	r2,-48(fp)
 101021c:	1001703a 	wrctl	status,r2
    /* 
     * If there is any data left then either return now or block until 
     * some has been sent 
     */
    /* consider: test whether there is anything there while doing this and delay for at most 2s. */
    if (count > 0)
 1010220:	e0bffd17 	ldw	r2,-12(fp)
 1010224:	10800050 	cmplti	r2,r2,1
 1010228:	1000111e 	bne	r2,zero,1010270 <altera_avalon_jtag_uart_write+0x1d8>
    {
      if (flags & O_NONBLOCK)
 101022c:	e0bffe17 	ldw	r2,-8(fp)
 1010230:	1090000c 	andi	r2,r2,16384
 1010234:	1004c03a 	cmpne	r2,r2,zero
 1010238:	1000101e 	bne	r2,zero,101027c <altera_avalon_jtag_uart_write+0x1e4>
      /*
       * No OS present: Always wait for data to be removed from buffer.  Once
       * the interrupt routine has removed some data then we will be able to
       * insert some more.
       */
      while (out == sp->tx_out && sp->host_inactive < sp->timeout)
 101023c:	e0bffb17 	ldw	r2,-20(fp)
 1010240:	10c00d17 	ldw	r3,52(r2)
 1010244:	e0bff917 	ldw	r2,-28(fp)
 1010248:	1880051e 	bne	r3,r2,1010260 <altera_avalon_jtag_uart_write+0x1c8>
 101024c:	e0bffb17 	ldw	r2,-20(fp)
 1010250:	10c00917 	ldw	r3,36(r2)
 1010254:	e0bffb17 	ldw	r2,-20(fp)
 1010258:	10800117 	ldw	r2,4(r2)
 101025c:	18bff736 	bltu	r3,r2,101023c <altera_avalon_jtag_uart_write+0x1a4>
        ;
#endif /* __ucosii__ */

      if (out == sp->tx_out)
 1010260:	e0bffb17 	ldw	r2,-20(fp)
 1010264:	10c00d17 	ldw	r3,52(r2)
 1010268:	e0bff917 	ldw	r2,-28(fp)
 101026c:	18800326 	beq	r3,r2,101027c <altera_avalon_jtag_uart_write+0x1e4>
         break;
    }
  }
  while (count > 0);
 1010270:	e0bffd17 	ldw	r2,-12(fp)
 1010274:	10800048 	cmpgei	r2,r2,1
 1010278:	103fcd1e 	bne	r2,zero,10101b0 <altera_avalon_jtag_uart_write+0x118>
   * Now that access to the circular buffer is complete, release the write
   * semaphore so that other threads can access the buffer.
   */
  ALT_SEM_POST (sp->write_lock);

  if (ptr != start)
 101027c:	e0fffc17 	ldw	r3,-16(fp)
 1010280:	e0bff617 	ldw	r2,-40(fp)
 1010284:	18800526 	beq	r3,r2,101029c <altera_avalon_jtag_uart_write+0x204>
    return ptr - start;
 1010288:	e0fffc17 	ldw	r3,-16(fp)
 101028c:	e0bff617 	ldw	r2,-40(fp)
 1010290:	1887c83a 	sub	r3,r3,r2
 1010294:	e0ffff15 	stw	r3,-4(fp)
 1010298:	00000906 	br	10102c0 <altera_avalon_jtag_uart_write+0x228>
  else if (flags & O_NONBLOCK)
 101029c:	e0bffe17 	ldw	r2,-8(fp)
 10102a0:	1090000c 	andi	r2,r2,16384
 10102a4:	1005003a 	cmpeq	r2,r2,zero
 10102a8:	1000031e 	bne	r2,zero,10102b8 <altera_avalon_jtag_uart_write+0x220>
    return -EWOULDBLOCK;
 10102ac:	00bffd44 	movi	r2,-11
 10102b0:	e0bfff15 	stw	r2,-4(fp)
 10102b4:	00000206 	br	10102c0 <altera_avalon_jtag_uart_write+0x228>
    sp->tx_out = sp->tx_in = 0;
    return ptr - start + count;
  }
#endif
  else
    return -EIO; /* Host not connected */
 10102b8:	00bffec4 	movi	r2,-5
 10102bc:	e0bfff15 	stw	r2,-4(fp)
 10102c0:	e0bfff17 	ldw	r2,-4(fp)
}
 10102c4:	e037883a 	mov	sp,fp
 10102c8:	dfc00117 	ldw	ra,4(sp)
 10102cc:	df000017 	ldw	fp,0(sp)
 10102d0:	dec00204 	addi	sp,sp,8
 10102d4:	f800283a 	ret

010102d8 <alt_up_char_buffer_init>:
#include <priv/alt_file.h>

#include "altera_up_avalon_video_character_buffer_with_dma.h"
#include "altera_up_avalon_video_character_buffer_with_dma_regs.h"

void alt_up_char_buffer_init(alt_up_char_buffer_dev *char_buffer) {
 10102d8:	defffc04 	addi	sp,sp,-16
 10102dc:	dfc00315 	stw	ra,12(sp)
 10102e0:	df000215 	stw	fp,8(sp)
 10102e4:	df000204 	addi	fp,sp,8
 10102e8:	e13fff15 	stw	r4,-4(fp)
	char * name;
	name = (char *) char_buffer->dev.name;
 10102ec:	e0bfff17 	ldw	r2,-4(fp)
 10102f0:	10800217 	ldw	r2,8(r2)
 10102f4:	e0bffe15 	stw	r2,-8(fp)

	for ( ; (*name) != '\0'; name++) {
 10102f8:	00000c06 	br	101032c <alt_up_char_buffer_init+0x54>
		if (strcmp(name, "_avalon_char_buffer_slave") == 0) {
 10102fc:	e13ffe17 	ldw	r4,-8(fp)
 1010300:	01404134 	movhi	r5,260
 1010304:	295aa304 	addi	r5,r5,27276
 1010308:	100d1ac0 	call	100d1ac <strcmp>
 101030c:	1004c03a 	cmpne	r2,r2,zero
 1010310:	1000031e 	bne	r2,zero,1010320 <alt_up_char_buffer_init+0x48>
			(*name) = '\0';
 1010314:	e0bffe17 	ldw	r2,-8(fp)
 1010318:	10000005 	stb	zero,0(r2)
			break;
 101031c:	00000a06 	br	1010348 <alt_up_char_buffer_init+0x70>

void alt_up_char_buffer_init(alt_up_char_buffer_dev *char_buffer) {
	char * name;
	name = (char *) char_buffer->dev.name;

	for ( ; (*name) != '\0'; name++) {
 1010320:	e0bffe17 	ldw	r2,-8(fp)
 1010324:	10800044 	addi	r2,r2,1
 1010328:	e0bffe15 	stw	r2,-8(fp)
 101032c:	e0bffe17 	ldw	r2,-8(fp)
 1010330:	10800003 	ldbu	r2,0(r2)
 1010334:	10803fcc 	andi	r2,r2,255
 1010338:	1080201c 	xori	r2,r2,128
 101033c:	10bfe004 	addi	r2,r2,-128
 1010340:	1004c03a 	cmpne	r2,r2,zero
 1010344:	103fed1e 	bne	r2,zero,10102fc <alt_up_char_buffer_init+0x24>
			break;
		}
	}
	
	return;
}
 1010348:	e037883a 	mov	sp,fp
 101034c:	dfc00117 	ldw	ra,4(sp)
 1010350:	df000017 	ldw	fp,0(sp)
 1010354:	dec00204 	addi	sp,sp,8
 1010358:	f800283a 	ret

0101035c <alt_up_char_buffer_open_dev>:

alt_up_char_buffer_dev* alt_up_char_buffer_open_dev(const char* name) {
 101035c:	defffc04 	addi	sp,sp,-16
 1010360:	dfc00315 	stw	ra,12(sp)
 1010364:	df000215 	stw	fp,8(sp)
 1010368:	df000204 	addi	fp,sp,8
 101036c:	e13fff15 	stw	r4,-4(fp)
  // find the device from the device list 
  // (see altera_hal/HAL/inc/priv/alt_file.h 
  // and altera_hal/HAL/src/alt_find_dev.c 
  // for details)
  alt_up_char_buffer_dev *dev = (alt_up_char_buffer_dev *)alt_find_dev(name, &alt_dev_list);
 1010370:	e13fff17 	ldw	r4,-4(fp)
 1010374:	01404174 	movhi	r5,261
 1010378:	29616004 	addi	r5,r5,-31360
 101037c:	1011ec80 	call	1011ec8 <alt_find_dev>
 1010380:	e0bffe15 	stw	r2,-8(fp)

  return dev;
 1010384:	e0bffe17 	ldw	r2,-8(fp)
}
 1010388:	e037883a 	mov	sp,fp
 101038c:	dfc00117 	ldw	ra,4(sp)
 1010390:	df000017 	ldw	fp,0(sp)
 1010394:	dec00204 	addi	sp,sp,8
 1010398:	f800283a 	ret

0101039c <alt_up_char_buffer_draw>:

int alt_up_char_buffer_draw(alt_up_char_buffer_dev *char_buffer, unsigned char ch, 
	unsigned int x, unsigned int y) {
 101039c:	defff904 	addi	sp,sp,-28
 10103a0:	df000615 	stw	fp,24(sp)
 10103a4:	df000604 	addi	fp,sp,24
 10103a8:	e13ffb15 	stw	r4,-20(fp)
 10103ac:	e1bffd15 	stw	r6,-12(fp)
 10103b0:	e1fffe15 	stw	r7,-8(fp)
 10103b4:	e17ffc05 	stb	r5,-16(fp)
	// boundary check
	if (x >= char_buffer->x_resolution || y >= char_buffer->y_resolution )
 10103b8:	e0bffb17 	ldw	r2,-20(fp)
 10103bc:	10c00c17 	ldw	r3,48(r2)
 10103c0:	e0bffd17 	ldw	r2,-12(fp)
 10103c4:	10c0042e 	bgeu	r2,r3,10103d8 <alt_up_char_buffer_draw+0x3c>
 10103c8:	e0bffb17 	ldw	r2,-20(fp)
 10103cc:	10c00d17 	ldw	r3,52(r2)
 10103d0:	e0bffe17 	ldw	r2,-8(fp)
 10103d4:	10c00336 	bltu	r2,r3,10103e4 <alt_up_char_buffer_draw+0x48>
		return -1;
 10103d8:	00bfffc4 	movi	r2,-1
 10103dc:	e0bfff15 	stw	r2,-4(fp)
 10103e0:	00001d06 	br	1010458 <alt_up_char_buffer_draw+0xbc>
	
	unsigned int addr = 0;
 10103e4:	e03ffa15 	stw	zero,-24(fp)
	addr |= ((x & char_buffer->x_coord_mask) << char_buffer->x_coord_offset);
 10103e8:	e0bffb17 	ldw	r2,-20(fp)
 10103ec:	10c00f17 	ldw	r3,60(r2)
 10103f0:	e0bffd17 	ldw	r2,-12(fp)
 10103f4:	1886703a 	and	r3,r3,r2
 10103f8:	e0bffb17 	ldw	r2,-20(fp)
 10103fc:	10800e17 	ldw	r2,56(r2)
 1010400:	1886983a 	sll	r3,r3,r2
 1010404:	e0bffa17 	ldw	r2,-24(fp)
 1010408:	10c4b03a 	or	r2,r2,r3
 101040c:	e0bffa15 	stw	r2,-24(fp)
	addr |= ((y & char_buffer->y_coord_mask) << char_buffer->y_coord_offset);
 1010410:	e0bffb17 	ldw	r2,-20(fp)
 1010414:	10c01117 	ldw	r3,68(r2)
 1010418:	e0bffe17 	ldw	r2,-8(fp)
 101041c:	1886703a 	and	r3,r3,r2
 1010420:	e0bffb17 	ldw	r2,-20(fp)
 1010424:	10801017 	ldw	r2,64(r2)
 1010428:	1886983a 	sll	r3,r3,r2
 101042c:	e0bffa17 	ldw	r2,-24(fp)
 1010430:	10c4b03a 	or	r2,r2,r3
 1010434:	e0bffa15 	stw	r2,-24(fp)
	IOWR_8DIRECT(char_buffer->buffer_base, addr, ch);
 1010438:	e0bffb17 	ldw	r2,-20(fp)
 101043c:	10800b17 	ldw	r2,44(r2)
 1010440:	1007883a 	mov	r3,r2
 1010444:	e0bffa17 	ldw	r2,-24(fp)
 1010448:	1885883a 	add	r2,r3,r2
 101044c:	e0fffc03 	ldbu	r3,-16(fp)
 1010450:	10c00025 	stbio	r3,0(r2)

	return 0;
 1010454:	e03fff15 	stw	zero,-4(fp)
 1010458:	e0bfff17 	ldw	r2,-4(fp)
}
 101045c:	e037883a 	mov	sp,fp
 1010460:	df000017 	ldw	fp,0(sp)
 1010464:	dec00104 	addi	sp,sp,4
 1010468:	f800283a 	ret

0101046c <alt_up_char_buffer_string>:

int alt_up_char_buffer_string(alt_up_char_buffer_dev *char_buffer, const char *ptr, 
	unsigned int x, unsigned int y) {
 101046c:	defff904 	addi	sp,sp,-28
 1010470:	df000615 	stw	fp,24(sp)
 1010474:	df000604 	addi	fp,sp,24
 1010478:	e13ffb15 	stw	r4,-20(fp)
 101047c:	e17ffc15 	stw	r5,-16(fp)
 1010480:	e1bffd15 	stw	r6,-12(fp)
 1010484:	e1fffe15 	stw	r7,-8(fp)
	// boundary check
	if (x >= char_buffer->x_resolution || y >= char_buffer->y_resolution )
 1010488:	e0bffb17 	ldw	r2,-20(fp)
 101048c:	10c00c17 	ldw	r3,48(r2)
 1010490:	e0bffd17 	ldw	r2,-12(fp)
 1010494:	10c0042e 	bgeu	r2,r3,10104a8 <alt_up_char_buffer_string+0x3c>
 1010498:	e0bffb17 	ldw	r2,-20(fp)
 101049c:	10c00d17 	ldw	r3,52(r2)
 10104a0:	e0bffe17 	ldw	r2,-8(fp)
 10104a4:	10c00336 	bltu	r2,r3,10104b4 <alt_up_char_buffer_string+0x48>
		return -1;
 10104a8:	00bfffc4 	movi	r2,-1
 10104ac:	e0bfff15 	stw	r2,-4(fp)
 10104b0:	00002e06 	br	101056c <alt_up_char_buffer_string+0x100>
	
	unsigned int offset = 0;
 10104b4:	e03ffa15 	stw	zero,-24(fp)
	offset = (y << char_buffer->y_coord_offset) + x;
 10104b8:	e0bffb17 	ldw	r2,-20(fp)
 10104bc:	10801017 	ldw	r2,64(r2)
 10104c0:	1007883a 	mov	r3,r2
 10104c4:	e0bffe17 	ldw	r2,-8(fp)
 10104c8:	10c6983a 	sll	r3,r2,r3
 10104cc:	e0bffd17 	ldw	r2,-12(fp)
 10104d0:	1885883a 	add	r2,r3,r2
 10104d4:	e0bffa15 	stw	r2,-24(fp)

	while ( *ptr )
 10104d8:	00001c06 	br	101054c <alt_up_char_buffer_string+0xe0>
	{
		IOWR_8DIRECT(char_buffer->buffer_base, offset, *ptr);
 10104dc:	e0bffb17 	ldw	r2,-20(fp)
 10104e0:	10800b17 	ldw	r2,44(r2)
 10104e4:	1007883a 	mov	r3,r2
 10104e8:	e0bffa17 	ldw	r2,-24(fp)
 10104ec:	1889883a 	add	r4,r3,r2
 10104f0:	e0bffc17 	ldw	r2,-16(fp)
 10104f4:	10800003 	ldbu	r2,0(r2)
 10104f8:	10c03fcc 	andi	r3,r2,255
 10104fc:	18c0201c 	xori	r3,r3,128
 1010500:	18ffe004 	addi	r3,r3,-128
 1010504:	2005883a 	mov	r2,r4
 1010508:	10c00025 	stbio	r3,0(r2)
		++ptr;
 101050c:	e0bffc17 	ldw	r2,-16(fp)
 1010510:	10800044 	addi	r2,r2,1
 1010514:	e0bffc15 	stw	r2,-16(fp)
		if (++x >= char_buffer->x_resolution)
 1010518:	e0bffd17 	ldw	r2,-12(fp)
 101051c:	10800044 	addi	r2,r2,1
 1010520:	e0bffd15 	stw	r2,-12(fp)
 1010524:	e0bffb17 	ldw	r2,-20(fp)
 1010528:	10c00c17 	ldw	r3,48(r2)
 101052c:	e0bffd17 	ldw	r2,-12(fp)
 1010530:	10c00336 	bltu	r2,r3,1010540 <alt_up_char_buffer_string+0xd4>
			return -1;
 1010534:	00bfffc4 	movi	r2,-1
 1010538:	e0bfff15 	stw	r2,-4(fp)
 101053c:	00000b06 	br	101056c <alt_up_char_buffer_string+0x100>
		++offset;
 1010540:	e0bffa17 	ldw	r2,-24(fp)
 1010544:	10800044 	addi	r2,r2,1
 1010548:	e0bffa15 	stw	r2,-24(fp)
		return -1;
	
	unsigned int offset = 0;
	offset = (y << char_buffer->y_coord_offset) + x;

	while ( *ptr )
 101054c:	e0bffc17 	ldw	r2,-16(fp)
 1010550:	10800003 	ldbu	r2,0(r2)
 1010554:	10803fcc 	andi	r2,r2,255
 1010558:	1080201c 	xori	r2,r2,128
 101055c:	10bfe004 	addi	r2,r2,-128
 1010560:	1004c03a 	cmpne	r2,r2,zero
 1010564:	103fdd1e 	bne	r2,zero,10104dc <alt_up_char_buffer_string+0x70>
		++ptr;
		if (++x >= char_buffer->x_resolution)
			return -1;
		++offset;
	}
	return 0;
 1010568:	e03fff15 	stw	zero,-4(fp)
 101056c:	e0bfff17 	ldw	r2,-4(fp)
}
 1010570:	e037883a 	mov	sp,fp
 1010574:	df000017 	ldw	fp,0(sp)
 1010578:	dec00104 	addi	sp,sp,4
 101057c:	f800283a 	ret

01010580 <alt_up_char_buffer_clear>:

int alt_up_char_buffer_clear(alt_up_char_buffer_dev *char_buffer) {
 1010580:	defffe04 	addi	sp,sp,-8
 1010584:	df000115 	stw	fp,4(sp)
 1010588:	df000104 	addi	fp,sp,4
 101058c:	e13fff15 	stw	r4,-4(fp)
	IOWR_ALT_UP_CHAR_BUFFER_CLR_SCRN(char_buffer->ctrl_reg_base, 1);
 1010590:	e0bfff17 	ldw	r2,-4(fp)
 1010594:	10800a17 	ldw	r2,40(r2)
 1010598:	10800084 	addi	r2,r2,2
 101059c:	1007883a 	mov	r3,r2
 10105a0:	00800044 	movi	r2,1
 10105a4:	18800025 	stbio	r2,0(r3)
	while ((IORD_ALT_UP_CHAR_BUFFER_CLR_SCRN(char_buffer->ctrl_reg_base) & ALT_UP_CHAR_BUFFER_CLR_SCRN_MSK) >> ALT_UP_CHAR_BUFFER_CLR_SCRN_OFST);
 10105a8:	e0bfff17 	ldw	r2,-4(fp)
 10105ac:	10800a17 	ldw	r2,40(r2)
 10105b0:	10800084 	addi	r2,r2,2
 10105b4:	10800023 	ldbuio	r2,0(r2)
 10105b8:	1080004c 	andi	r2,r2,1
 10105bc:	10803fcc 	andi	r2,r2,255
 10105c0:	1004c03a 	cmpne	r2,r2,zero
 10105c4:	103ff81e 	bne	r2,zero,10105a8 <alt_up_char_buffer_clear+0x28>
	return 0;
 10105c8:	0005883a 	mov	r2,zero
}
 10105cc:	e037883a 	mov	sp,fp
 10105d0:	df000017 	ldw	fp,0(sp)
 10105d4:	dec00104 	addi	sp,sp,4
 10105d8:	f800283a 	ret

010105dc <alt_up_pixel_buffer_dma_open_dev>:

#include "altera_up_avalon_video_pixel_buffer_dma.h"

#define ABS(x)	((x >= 0) ? (x) : (-(x)))

alt_up_pixel_buffer_dma_dev* alt_up_pixel_buffer_dma_open_dev(const char* name) {
 10105dc:	defffc04 	addi	sp,sp,-16
 10105e0:	dfc00315 	stw	ra,12(sp)
 10105e4:	df000215 	stw	fp,8(sp)
 10105e8:	df000204 	addi	fp,sp,8
 10105ec:	e13fff15 	stw	r4,-4(fp)
  // find the device from the device list 
  // (see altera_hal/HAL/inc/priv/alt_file.h 
  // and altera_hal/HAL/src/alt_find_dev.c 
  // for details)
  alt_up_pixel_buffer_dma_dev *dev = (alt_up_pixel_buffer_dma_dev*)alt_find_dev(name, &alt_dev_list);
 10105f0:	e13fff17 	ldw	r4,-4(fp)
 10105f4:	01404174 	movhi	r5,261
 10105f8:	29616004 	addi	r5,r5,-31360
 10105fc:	1011ec80 	call	1011ec8 <alt_find_dev>
 1010600:	e0bffe15 	stw	r2,-8(fp)

  return dev;
 1010604:	e0bffe17 	ldw	r2,-8(fp)
}
 1010608:	e037883a 	mov	sp,fp
 101060c:	dfc00117 	ldw	ra,4(sp)
 1010610:	df000017 	ldw	fp,0(sp)
 1010614:	dec00204 	addi	sp,sp,8
 1010618:	f800283a 	ret

0101061c <alt_up_pixel_buffer_dma_draw>:

int alt_up_pixel_buffer_dma_draw(alt_up_pixel_buffer_dma_dev *pixel_buffer, unsigned int color, unsigned int x, unsigned int y)
/* This function draws a pixel to the back buffer.
 */
{
 101061c:	defff804 	addi	sp,sp,-32
 1010620:	dfc00715 	stw	ra,28(sp)
 1010624:	df000615 	stw	fp,24(sp)
 1010628:	df000604 	addi	fp,sp,24
 101062c:	e13ffb15 	stw	r4,-20(fp)
 1010630:	e17ffc15 	stw	r5,-16(fp)
 1010634:	e1bffd15 	stw	r6,-12(fp)
 1010638:	e1fffe15 	stw	r7,-8(fp)
	// boundary check
	if (x >= pixel_buffer->x_resolution || y >= pixel_buffer->y_resolution )
 101063c:	e0bffb17 	ldw	r2,-20(fp)
 1010640:	10c00f17 	ldw	r3,60(r2)
 1010644:	e0bffd17 	ldw	r2,-12(fp)
 1010648:	10c0042e 	bgeu	r2,r3,101065c <alt_up_pixel_buffer_dma_draw+0x40>
 101064c:	e0bffb17 	ldw	r2,-20(fp)
 1010650:	10c01017 	ldw	r3,64(r2)
 1010654:	e0bffe17 	ldw	r2,-8(fp)
 1010658:	10c00336 	bltu	r2,r3,1010668 <alt_up_pixel_buffer_dma_draw+0x4c>
		return -1;
 101065c:	00bfffc4 	movi	r2,-1
 1010660:	e0bfff15 	stw	r2,-4(fp)
 1010664:	00005206 	br	10107b0 <alt_up_pixel_buffer_dma_draw+0x194>

	unsigned int addr = 0;
 1010668:	e03ffa15 	stw	zero,-24(fp)
	/* Check the mode VGA Pixel Buffer is using. */
	if (pixel_buffer->addressing_mode == ALT_UP_PIXEL_BUFFER_XY_ADDRESS_MODE) {
 101066c:	e0bffb17 	ldw	r2,-20(fp)
 1010670:	10800d17 	ldw	r2,52(r2)
 1010674:	1004c03a 	cmpne	r2,r2,zero
 1010678:	1000151e 	bne	r2,zero,10106d0 <alt_up_pixel_buffer_dma_draw+0xb4>
		/* For X-Y addressing mode, the address format is | unused | Y | X |. So shift bits for coordinates X and Y into their respective locations. */
		addr |= ((x & pixel_buffer->x_coord_mask) << pixel_buffer->x_coord_offset);
 101067c:	e0bffb17 	ldw	r2,-20(fp)
 1010680:	10c01217 	ldw	r3,72(r2)
 1010684:	e0bffd17 	ldw	r2,-12(fp)
 1010688:	1886703a 	and	r3,r3,r2
 101068c:	e0bffb17 	ldw	r2,-20(fp)
 1010690:	10801117 	ldw	r2,68(r2)
 1010694:	1886983a 	sll	r3,r3,r2
 1010698:	e0bffa17 	ldw	r2,-24(fp)
 101069c:	10c4b03a 	or	r2,r2,r3
 10106a0:	e0bffa15 	stw	r2,-24(fp)
		addr |= ((y & pixel_buffer->y_coord_mask) << pixel_buffer->y_coord_offset);
 10106a4:	e0bffb17 	ldw	r2,-20(fp)
 10106a8:	10c01417 	ldw	r3,80(r2)
 10106ac:	e0bffe17 	ldw	r2,-8(fp)
 10106b0:	1886703a 	and	r3,r3,r2
 10106b4:	e0bffb17 	ldw	r2,-20(fp)
 10106b8:	10801317 	ldw	r2,76(r2)
 10106bc:	1886983a 	sll	r3,r3,r2
 10106c0:	e0bffa17 	ldw	r2,-24(fp)
 10106c4:	10c4b03a 	or	r2,r2,r3
 10106c8:	e0bffa15 	stw	r2,-24(fp)
 10106cc:	00001806 	br	1010730 <alt_up_pixel_buffer_dma_draw+0x114>
	} else {
		/* In a consecutive addressing mode, the pixels are stored in consecutive memory locations. So the address of a pixel at (x,y) can be computed as
		 * (y*x_resolution + x).*/
		addr += ((x & pixel_buffer->x_coord_mask) << pixel_buffer->x_coord_offset);
 10106d0:	e0bffb17 	ldw	r2,-20(fp)
 10106d4:	10c01217 	ldw	r3,72(r2)
 10106d8:	e0bffd17 	ldw	r2,-12(fp)
 10106dc:	1886703a 	and	r3,r3,r2
 10106e0:	e0bffb17 	ldw	r2,-20(fp)
 10106e4:	10801117 	ldw	r2,68(r2)
 10106e8:	1886983a 	sll	r3,r3,r2
 10106ec:	e0bffa17 	ldw	r2,-24(fp)
 10106f0:	10c5883a 	add	r2,r2,r3
 10106f4:	e0bffa15 	stw	r2,-24(fp)
		addr += (((y & pixel_buffer->y_coord_mask) * pixel_buffer->x_resolution) << pixel_buffer->x_coord_offset);
 10106f8:	e0bffb17 	ldw	r2,-20(fp)
 10106fc:	10c01417 	ldw	r3,80(r2)
 1010700:	e0bffe17 	ldw	r2,-8(fp)
 1010704:	1888703a 	and	r4,r3,r2
 1010708:	e0bffb17 	ldw	r2,-20(fp)
 101070c:	11400f17 	ldw	r5,60(r2)
 1010710:	1005a5c0 	call	1005a5c <__mulsi3>
 1010714:	1007883a 	mov	r3,r2
 1010718:	e0bffb17 	ldw	r2,-20(fp)
 101071c:	10801117 	ldw	r2,68(r2)
 1010720:	1886983a 	sll	r3,r3,r2
 1010724:	e0bffa17 	ldw	r2,-24(fp)
 1010728:	10c5883a 	add	r2,r2,r3
 101072c:	e0bffa15 	stw	r2,-24(fp)
	}
	/* Now, depending on the color depth, write the pixel color to the specified memory location. */
	if (pixel_buffer->color_mode == ALT_UP_8BIT_COLOR_MODE) {
 1010730:	e0bffb17 	ldw	r2,-20(fp)
 1010734:	10800e17 	ldw	r2,56(r2)
 1010738:	10800058 	cmpnei	r2,r2,1
 101073c:	1000081e 	bne	r2,zero,1010760 <alt_up_pixel_buffer_dma_draw+0x144>
		IOWR_8DIRECT(pixel_buffer->back_buffer_start_address, addr, color);
 1010740:	e0bffb17 	ldw	r2,-20(fp)
 1010744:	10800c17 	ldw	r2,48(r2)
 1010748:	1007883a 	mov	r3,r2
 101074c:	e0bffa17 	ldw	r2,-24(fp)
 1010750:	1885883a 	add	r2,r3,r2
 1010754:	e0fffc17 	ldw	r3,-16(fp)
 1010758:	10c00025 	stbio	r3,0(r2)
 101075c:	00001306 	br	10107ac <alt_up_pixel_buffer_dma_draw+0x190>
	} else if (pixel_buffer->color_mode == ALT_UP_16BIT_COLOR_MODE) {
 1010760:	e0bffb17 	ldw	r2,-20(fp)
 1010764:	10800e17 	ldw	r2,56(r2)
 1010768:	10800098 	cmpnei	r2,r2,2
 101076c:	1000081e 	bne	r2,zero,1010790 <alt_up_pixel_buffer_dma_draw+0x174>
		IOWR_16DIRECT(pixel_buffer->back_buffer_start_address, addr, color);
 1010770:	e0bffb17 	ldw	r2,-20(fp)
 1010774:	10800c17 	ldw	r2,48(r2)
 1010778:	1007883a 	mov	r3,r2
 101077c:	e0bffa17 	ldw	r2,-24(fp)
 1010780:	1885883a 	add	r2,r3,r2
 1010784:	e0fffc17 	ldw	r3,-16(fp)
 1010788:	10c0002d 	sthio	r3,0(r2)
 101078c:	00000706 	br	10107ac <alt_up_pixel_buffer_dma_draw+0x190>
	} else {
		IOWR_32DIRECT(pixel_buffer->back_buffer_start_address, addr, color);
 1010790:	e0bffb17 	ldw	r2,-20(fp)
 1010794:	10800c17 	ldw	r2,48(r2)
 1010798:	1007883a 	mov	r3,r2
 101079c:	e0bffa17 	ldw	r2,-24(fp)
 10107a0:	1885883a 	add	r2,r3,r2
 10107a4:	e0fffc17 	ldw	r3,-16(fp)
 10107a8:	10c00035 	stwio	r3,0(r2)
	}

	return 0;
 10107ac:	e03fff15 	stw	zero,-4(fp)
 10107b0:	e0bfff17 	ldw	r2,-4(fp)
}
 10107b4:	e037883a 	mov	sp,fp
 10107b8:	dfc00117 	ldw	ra,4(sp)
 10107bc:	df000017 	ldw	fp,0(sp)
 10107c0:	dec00204 	addi	sp,sp,8
 10107c4:	f800283a 	ret

010107c8 <alt_up_pixel_buffer_dma_change_back_buffer_address>:

int alt_up_pixel_buffer_dma_change_back_buffer_address(alt_up_pixel_buffer_dma_dev *pixel_buffer, unsigned int new_address)
/* This function changes the memory address for the back buffer. */
{
 10107c8:	defffd04 	addi	sp,sp,-12
 10107cc:	df000215 	stw	fp,8(sp)
 10107d0:	df000204 	addi	fp,sp,8
 10107d4:	e13ffe15 	stw	r4,-8(fp)
 10107d8:	e17fff15 	stw	r5,-4(fp)
	IOWR_32DIRECT(pixel_buffer->base, 4, new_address);
 10107dc:	e0bffe17 	ldw	r2,-8(fp)
 10107e0:	10800a17 	ldw	r2,40(r2)
 10107e4:	10800104 	addi	r2,r2,4
 10107e8:	e0ffff17 	ldw	r3,-4(fp)
 10107ec:	10c00035 	stwio	r3,0(r2)
	pixel_buffer->back_buffer_start_address = IORD_32DIRECT(pixel_buffer->base, 4);
 10107f0:	e0bffe17 	ldw	r2,-8(fp)
 10107f4:	10800a17 	ldw	r2,40(r2)
 10107f8:	10800104 	addi	r2,r2,4
 10107fc:	10800037 	ldwio	r2,0(r2)
 1010800:	1007883a 	mov	r3,r2
 1010804:	e0bffe17 	ldw	r2,-8(fp)
 1010808:	10c00c15 	stw	r3,48(r2)
	return 0;
 101080c:	0005883a 	mov	r2,zero
}
 1010810:	e037883a 	mov	sp,fp
 1010814:	df000017 	ldw	fp,0(sp)
 1010818:	dec00104 	addi	sp,sp,4
 101081c:	f800283a 	ret

01010820 <alt_up_pixel_buffer_dma_swap_buffers>:

int alt_up_pixel_buffer_dma_swap_buffers(alt_up_pixel_buffer_dma_dev *pixel_buffer)
/* This function swaps the front and back buffers. At the next refresh cycle the back buffer will be drawn on the screen
 * and will become the front buffer. */
{
 1010820:	defffe04 	addi	sp,sp,-8
 1010824:	df000115 	stw	fp,4(sp)
 1010828:	df000104 	addi	fp,sp,4
 101082c:	e13fff15 	stw	r4,-4(fp)
	register unsigned int temp = pixel_buffer->back_buffer_start_address;
 1010830:	e0bfff17 	ldw	r2,-4(fp)
 1010834:	11000c17 	ldw	r4,48(r2)
	IOWR_32DIRECT(pixel_buffer->base, 0, 1);
 1010838:	e0bfff17 	ldw	r2,-4(fp)
 101083c:	10800a17 	ldw	r2,40(r2)
 1010840:	1007883a 	mov	r3,r2
 1010844:	00800044 	movi	r2,1
 1010848:	18800035 	stwio	r2,0(r3)
	pixel_buffer->back_buffer_start_address = pixel_buffer->buffer_start_address;
 101084c:	e0bfff17 	ldw	r2,-4(fp)
 1010850:	10c00b17 	ldw	r3,44(r2)
 1010854:	e0bfff17 	ldw	r2,-4(fp)
 1010858:	10c00c15 	stw	r3,48(r2)
	pixel_buffer->buffer_start_address = temp;
 101085c:	e0bfff17 	ldw	r2,-4(fp)
 1010860:	11000b15 	stw	r4,44(r2)
	return 0;
 1010864:	0005883a 	mov	r2,zero
}
 1010868:	e037883a 	mov	sp,fp
 101086c:	df000017 	ldw	fp,0(sp)
 1010870:	dec00104 	addi	sp,sp,4
 1010874:	f800283a 	ret

01010878 <alt_up_pixel_buffer_dma_check_swap_buffers_status>:
int alt_up_pixel_buffer_dma_check_swap_buffers_status(alt_up_pixel_buffer_dma_dev *pixel_buffer)
/* This function checks if the buffer swap has occured. Since the buffer swap only happens after an entire screen is drawn,
 * it is important to wait for this function to return 0 before proceeding to draw on either buffer. When both front and the back buffers
 * have the same address calling the alt_up_pixel_buffer_dma_swap_buffers(...) function and then waiting for this function to return 0, causes your program to
 * wait for the screen to refresh. */
{
 1010878:	defffe04 	addi	sp,sp,-8
 101087c:	df000115 	stw	fp,4(sp)
 1010880:	df000104 	addi	fp,sp,4
 1010884:	e13fff15 	stw	r4,-4(fp)
	return (IORD_32DIRECT(pixel_buffer->base, 12) & 0x1);
 1010888:	e0bfff17 	ldw	r2,-4(fp)
 101088c:	10800a17 	ldw	r2,40(r2)
 1010890:	10800304 	addi	r2,r2,12
 1010894:	10800037 	ldwio	r2,0(r2)
 1010898:	1080004c 	andi	r2,r2,1
}
 101089c:	e037883a 	mov	sp,fp
 10108a0:	df000017 	ldw	fp,0(sp)
 10108a4:	dec00104 	addi	sp,sp,4
 10108a8:	f800283a 	ret

010108ac <alt_up_pixel_buffer_dma_clear_screen>:

void alt_up_pixel_buffer_dma_clear_screen(alt_up_pixel_buffer_dma_dev *pixel_buffer, int backbuffer)
/* This function clears the screen by setting each pixel to a black color. */
{
 10108ac:	defff504 	addi	sp,sp,-44
 10108b0:	dfc00a15 	stw	ra,40(sp)
 10108b4:	df000915 	stw	fp,36(sp)
 10108b8:	df000904 	addi	fp,sp,36
 10108bc:	e13ff715 	stw	r4,-36(fp)
 10108c0:	e17ff815 	stw	r5,-32(fp)
	register unsigned int addr;
	register unsigned int limit_x, limit_y;
	
	/* Set up the address to start clearing from and the screen boundaries. */
	if (backbuffer == 1)
 10108c4:	e0bff817 	ldw	r2,-32(fp)
 10108c8:	10800058 	cmpnei	r2,r2,1
 10108cc:	1000041e 	bne	r2,zero,10108e0 <alt_up_pixel_buffer_dma_clear_screen+0x34>
		addr = pixel_buffer->back_buffer_start_address;
 10108d0:	e0bff717 	ldw	r2,-36(fp)
 10108d4:	10800c17 	ldw	r2,48(r2)
 10108d8:	e0bfff15 	stw	r2,-4(fp)
 10108dc:	00000306 	br	10108ec <alt_up_pixel_buffer_dma_clear_screen+0x40>
	else
		addr = pixel_buffer->buffer_start_address;
 10108e0:	e0bff717 	ldw	r2,-36(fp)
 10108e4:	10800b17 	ldw	r2,44(r2)
 10108e8:	e0bfff15 	stw	r2,-4(fp)
	limit_x = pixel_buffer->x_resolution;
 10108ec:	e0bff717 	ldw	r2,-36(fp)
 10108f0:	10800f17 	ldw	r2,60(r2)
 10108f4:	e0bffe15 	stw	r2,-8(fp)
	/* In 16 and 32-bit color modes we use twice or four times more memory for the display buffer.*/
	if (pixel_buffer->color_mode == ALT_UP_16BIT_COLOR_MODE) {
 10108f8:	e0bff717 	ldw	r2,-36(fp)
 10108fc:	10800e17 	ldw	r2,56(r2)
 1010900:	10800098 	cmpnei	r2,r2,2
 1010904:	1000051e 	bne	r2,zero,101091c <alt_up_pixel_buffer_dma_clear_screen+0x70>
		limit_x = limit_x << 1;
 1010908:	e0fffe17 	ldw	r3,-8(fp)
 101090c:	e0fffe17 	ldw	r3,-8(fp)
 1010910:	18c5883a 	add	r2,r3,r3
 1010914:	e0bffe15 	stw	r2,-8(fp)
 1010918:	00000506 	br	1010930 <alt_up_pixel_buffer_dma_clear_screen+0x84>
	} else {
		limit_x = limit_x << 2;
 101091c:	e13ffe17 	ldw	r4,-8(fp)
 1010920:	e13ffe17 	ldw	r4,-8(fp)
 1010924:	2105883a 	add	r2,r4,r4
 1010928:	1085883a 	add	r2,r2,r2
 101092c:	e0bffe15 	stw	r2,-8(fp)
	}	
	limit_y = pixel_buffer->y_resolution;
 1010930:	e0bff717 	ldw	r2,-36(fp)
 1010934:	10801017 	ldw	r2,64(r2)
 1010938:	e0bffd15 	stw	r2,-12(fp)

	if (pixel_buffer->addressing_mode == ALT_UP_PIXEL_BUFFER_XY_ADDRESS_MODE) {
 101093c:	e0bff717 	ldw	r2,-36(fp)
 1010940:	10800d17 	ldw	r2,52(r2)
 1010944:	1004c03a 	cmpne	r2,r2,zero
 1010948:	10001e1e 	bne	r2,zero,10109c4 <alt_up_pixel_buffer_dma_clear_screen+0x118>
		/* Clear the screen when the VGA is set up in an XY addressing mode. */
		register unsigned int x,y;
		register unsigned int offset_y;
		offset_y = pixel_buffer->y_coord_offset;
 101094c:	e0bff717 	ldw	r2,-36(fp)
 1010950:	10801317 	ldw	r2,76(r2)
 1010954:	e0bffa15 	stw	r2,-24(fp)

		for (y = 0; y < limit_y; y++)
 1010958:	e03ffb15 	stw	zero,-20(fp)
 101095c:	00001506 	br	10109b4 <alt_up_pixel_buffer_dma_clear_screen+0x108>
		{
			for (x = 0; x < limit_x; x = x + 4)
 1010960:	e03ffc15 	stw	zero,-16(fp)
 1010964:	00000706 	br	1010984 <alt_up_pixel_buffer_dma_clear_screen+0xd8>
			{
				IOWR_32DIRECT(addr, x, 0);
 1010968:	e0ffff17 	ldw	r3,-4(fp)
 101096c:	e0bffc17 	ldw	r2,-16(fp)
 1010970:	1885883a 	add	r2,r3,r2
 1010974:	10000035 	stwio	zero,0(r2)
		register unsigned int offset_y;
		offset_y = pixel_buffer->y_coord_offset;

		for (y = 0; y < limit_y; y++)
		{
			for (x = 0; x < limit_x; x = x + 4)
 1010978:	e0bffc17 	ldw	r2,-16(fp)
 101097c:	10800104 	addi	r2,r2,4
 1010980:	e0bffc15 	stw	r2,-16(fp)
 1010984:	e0fffc17 	ldw	r3,-16(fp)
 1010988:	e13ffe17 	ldw	r4,-8(fp)
 101098c:	193ff636 	bltu	r3,r4,1010968 <alt_up_pixel_buffer_dma_clear_screen+0xbc>
			{
				IOWR_32DIRECT(addr, x, 0);
			}
			addr = addr + (1 << offset_y);
 1010990:	e0fffa17 	ldw	r3,-24(fp)
 1010994:	00800044 	movi	r2,1
 1010998:	10c4983a 	sll	r2,r2,r3
 101099c:	e0ffff17 	ldw	r3,-4(fp)
 10109a0:	1887883a 	add	r3,r3,r2
 10109a4:	e0ffff15 	stw	r3,-4(fp)
		/* Clear the screen when the VGA is set up in an XY addressing mode. */
		register unsigned int x,y;
		register unsigned int offset_y;
		offset_y = pixel_buffer->y_coord_offset;

		for (y = 0; y < limit_y; y++)
 10109a8:	e13ffb17 	ldw	r4,-20(fp)
 10109ac:	21000044 	addi	r4,r4,1
 10109b0:	e13ffb15 	stw	r4,-20(fp)
 10109b4:	e0bffb17 	ldw	r2,-20(fp)
 10109b8:	e0fffd17 	ldw	r3,-12(fp)
 10109bc:	10ffe836 	bltu	r2,r3,1010960 <alt_up_pixel_buffer_dma_clear_screen+0xb4>
 10109c0:	00001006 	br	1010a04 <alt_up_pixel_buffer_dma_clear_screen+0x158>
			addr = addr + (1 << offset_y);
		}
	} else {
		/* Clear the screen when the VGA is set up in a linear addressing mode. */
		register int x;
		limit_y = limit_x*limit_y;	
 10109c4:	e13ffd17 	ldw	r4,-12(fp)
 10109c8:	e17ffe17 	ldw	r5,-8(fp)
 10109cc:	1005a5c0 	call	1005a5c <__mulsi3>
 10109d0:	e0bffd15 	stw	r2,-12(fp)

		for (x = 0; x < limit_y; x = x + 4)
 10109d4:	e03ff915 	stw	zero,-28(fp)
 10109d8:	00000706 	br	10109f8 <alt_up_pixel_buffer_dma_clear_screen+0x14c>
		{
			IOWR_32DIRECT(addr, x, 0);
 10109dc:	e0ffff17 	ldw	r3,-4(fp)
 10109e0:	e0bff917 	ldw	r2,-28(fp)
 10109e4:	1885883a 	add	r2,r3,r2
 10109e8:	10000035 	stwio	zero,0(r2)
	} else {
		/* Clear the screen when the VGA is set up in a linear addressing mode. */
		register int x;
		limit_y = limit_x*limit_y;	

		for (x = 0; x < limit_y; x = x + 4)
 10109ec:	e13ff917 	ldw	r4,-28(fp)
 10109f0:	21000104 	addi	r4,r4,4
 10109f4:	e13ff915 	stw	r4,-28(fp)
 10109f8:	e0bff917 	ldw	r2,-28(fp)
 10109fc:	e0fffd17 	ldw	r3,-12(fp)
 1010a00:	10fff636 	bltu	r2,r3,10109dc <alt_up_pixel_buffer_dma_clear_screen+0x130>
		{
			IOWR_32DIRECT(addr, x, 0);
		}
	}
}
 1010a04:	e037883a 	mov	sp,fp
 1010a08:	dfc00117 	ldw	ra,4(sp)
 1010a0c:	df000017 	ldw	fp,0(sp)
 1010a10:	dec00204 	addi	sp,sp,8
 1010a14:	f800283a 	ret

01010a18 <alt_up_pixel_buffer_dma_draw_box>:

void alt_up_pixel_buffer_dma_draw_box(alt_up_pixel_buffer_dma_dev *pixel_buffer, int x0, int y0, int x1, int y1, int color, int backbuffer)
/* This function draws a filled box. */
{
 1010a18:	deffec04 	addi	sp,sp,-80
 1010a1c:	dfc01315 	stw	ra,76(sp)
 1010a20:	df001215 	stw	fp,72(sp)
 1010a24:	df001204 	addi	fp,sp,72
 1010a28:	e13fee15 	stw	r4,-72(fp)
 1010a2c:	e17fef15 	stw	r5,-68(fp)
 1010a30:	e1bff015 	stw	r6,-64(fp)
 1010a34:	e1fff115 	stw	r7,-60(fp)
	register unsigned int addr;
	register unsigned int limit_x = pixel_buffer->x_resolution;
 1010a38:	e0bfee17 	ldw	r2,-72(fp)
 1010a3c:	10800f17 	ldw	r2,60(r2)
 1010a40:	e0bffe15 	stw	r2,-8(fp)
	register unsigned int limit_y = pixel_buffer->y_resolution;
 1010a44:	e0bfee17 	ldw	r2,-72(fp)
 1010a48:	10801017 	ldw	r2,64(r2)
 1010a4c:	e0bffd15 	stw	r2,-12(fp)
	register unsigned int temp;
	register unsigned int l_x = x0;
 1010a50:	e0bfef17 	ldw	r2,-68(fp)
 1010a54:	e0bffb15 	stw	r2,-20(fp)
	register unsigned int r_x = x1;
 1010a58:	e0fff117 	ldw	r3,-60(fp)
 1010a5c:	e0fffa15 	stw	r3,-24(fp)
	register unsigned int t_y = y0;
 1010a60:	e13ff017 	ldw	r4,-64(fp)
 1010a64:	e13ff915 	stw	r4,-28(fp)
	register unsigned int b_y = y1;
 1010a68:	e0800217 	ldw	r2,8(fp)
 1010a6c:	e0bff815 	stw	r2,-32(fp)
	register unsigned int local_color = color;
 1010a70:	e0c00317 	ldw	r3,12(fp)
 1010a74:	e0fff715 	stw	r3,-36(fp)
	
	/* Check coordinates */
	if (l_x > r_x)
 1010a78:	e13ffa17 	ldw	r4,-24(fp)
 1010a7c:	e0bffb17 	ldw	r2,-20(fp)
 1010a80:	2080062e 	bgeu	r4,r2,1010a9c <alt_up_pixel_buffer_dma_draw_box+0x84>
	{
		temp = l_x;
 1010a84:	e0fffb17 	ldw	r3,-20(fp)
 1010a88:	e0fffc15 	stw	r3,-16(fp)
		l_x = r_x;
 1010a8c:	e13ffa17 	ldw	r4,-24(fp)
 1010a90:	e13ffb15 	stw	r4,-20(fp)
		r_x = temp;
 1010a94:	e0bffc17 	ldw	r2,-16(fp)
 1010a98:	e0bffa15 	stw	r2,-24(fp)
	}
	if (t_y > b_y)
 1010a9c:	e0fff817 	ldw	r3,-32(fp)
 1010aa0:	e13ff917 	ldw	r4,-28(fp)
 1010aa4:	1900062e 	bgeu	r3,r4,1010ac0 <alt_up_pixel_buffer_dma_draw_box+0xa8>
	{
		temp = t_y;
 1010aa8:	e0bff917 	ldw	r2,-28(fp)
 1010aac:	e0bffc15 	stw	r2,-16(fp)
		t_y = b_y;
 1010ab0:	e0fff817 	ldw	r3,-32(fp)
 1010ab4:	e0fff915 	stw	r3,-28(fp)
		b_y = temp;
 1010ab8:	e13ffc17 	ldw	r4,-16(fp)
 1010abc:	e13ff815 	stw	r4,-32(fp)
	}
	if ((l_x >= limit_x) || (t_y >= limit_y) || (r_x < 0) || (b_y < 0))
 1010ac0:	e0bffb17 	ldw	r2,-20(fp)
 1010ac4:	e0fffe17 	ldw	r3,-8(fp)
 1010ac8:	10c10d2e 	bgeu	r2,r3,1010f00 <alt_up_pixel_buffer_dma_draw_box+0x4e8>
 1010acc:	e13ff917 	ldw	r4,-28(fp)
 1010ad0:	e0bffd17 	ldw	r2,-12(fp)
 1010ad4:	20800136 	bltu	r4,r2,1010adc <alt_up_pixel_buffer_dma_draw_box+0xc4>
	{
		/* Drawing outside of the window, so don't bother. */
		return;
 1010ad8:	00010906 	br	1010f00 <alt_up_pixel_buffer_dma_draw_box+0x4e8>
	/* Clip the box and draw only within the confines of the screen. */
	if (l_x < 0)
	{
		l_x = 0;
	}
	if (r_x >= limit_x)
 1010adc:	e0fffa17 	ldw	r3,-24(fp)
 1010ae0:	e13ffe17 	ldw	r4,-8(fp)
 1010ae4:	19000336 	bltu	r3,r4,1010af4 <alt_up_pixel_buffer_dma_draw_box+0xdc>
	{
		r_x = limit_x - 1;
 1010ae8:	e0bffe17 	ldw	r2,-8(fp)
 1010aec:	10bfffc4 	addi	r2,r2,-1
 1010af0:	e0bffa15 	stw	r2,-24(fp)
	}
	if (t_y < 0)
	{
		t_y = 0;
	}
	if (b_y >= limit_y)
 1010af4:	e0fff817 	ldw	r3,-32(fp)
 1010af8:	e13ffd17 	ldw	r4,-12(fp)
 1010afc:	19000336 	bltu	r3,r4,1010b0c <alt_up_pixel_buffer_dma_draw_box+0xf4>
	{
		b_y = limit_y - 1;
 1010b00:	e0bffd17 	ldw	r2,-12(fp)
 1010b04:	10bfffc4 	addi	r2,r2,-1
 1010b08:	e0bff815 	stw	r2,-32(fp)
	}

	/* Set up the address to start clearing from and the screen boundaries. */
	if (backbuffer == 1)
 1010b0c:	e0800417 	ldw	r2,16(fp)
 1010b10:	10800058 	cmpnei	r2,r2,1
 1010b14:	1000041e 	bne	r2,zero,1010b28 <alt_up_pixel_buffer_dma_draw_box+0x110>
		addr = pixel_buffer->back_buffer_start_address;
 1010b18:	e0bfee17 	ldw	r2,-72(fp)
 1010b1c:	10800c17 	ldw	r2,48(r2)
 1010b20:	e0bfff15 	stw	r2,-4(fp)
 1010b24:	00000306 	br	1010b34 <alt_up_pixel_buffer_dma_draw_box+0x11c>
	else
		addr = pixel_buffer->buffer_start_address;
 1010b28:	e0bfee17 	ldw	r2,-72(fp)
 1010b2c:	10800b17 	ldw	r2,44(r2)
 1010b30:	e0bfff15 	stw	r2,-4(fp)

	/* Draw the box using one of the addressing modes. */
	if (pixel_buffer->addressing_mode == ALT_UP_PIXEL_BUFFER_XY_ADDRESS_MODE) {
 1010b34:	e0bfee17 	ldw	r2,-72(fp)
 1010b38:	10800d17 	ldw	r2,52(r2)
 1010b3c:	1004c03a 	cmpne	r2,r2,zero
 1010b40:	1000721e 	bne	r2,zero,1010d0c <alt_up_pixel_buffer_dma_draw_box+0x2f4>
		/* Draw a box of a given color on the screen using the XY addressing mode. */
		register unsigned int x,y;
		register unsigned int offset_y;
		offset_y = pixel_buffer->y_coord_offset;
 1010b44:	e0bfee17 	ldw	r2,-72(fp)
 1010b48:	10801317 	ldw	r2,76(r2)
 1010b4c:	e0bff415 	stw	r2,-48(fp)
		addr = addr + (t_y << offset_y);
 1010b50:	e0bff417 	ldw	r2,-48(fp)
 1010b54:	e0fff917 	ldw	r3,-28(fp)
 1010b58:	1884983a 	sll	r2,r3,r2
 1010b5c:	e13fff17 	ldw	r4,-4(fp)
 1010b60:	2089883a 	add	r4,r4,r2
 1010b64:	e13fff15 	stw	r4,-4(fp)
		
		/* This portion of the code is purposefully replicated. This is because having a text for
		 * the mode would unnecessarily slow down the drawing of a box. */
		if (pixel_buffer->color_mode == ALT_UP_8BIT_COLOR_MODE) {
 1010b68:	e0bfee17 	ldw	r2,-72(fp)
 1010b6c:	10800e17 	ldw	r2,56(r2)
 1010b70:	10800058 	cmpnei	r2,r2,1
 1010b74:	10001e1e 	bne	r2,zero,1010bf0 <alt_up_pixel_buffer_dma_draw_box+0x1d8>
			for (y = t_y; y <= b_y; y++)
 1010b78:	e0bff917 	ldw	r2,-28(fp)
 1010b7c:	e0bff515 	stw	r2,-44(fp)
 1010b80:	00001706 	br	1010be0 <alt_up_pixel_buffer_dma_draw_box+0x1c8>
			{
				for (x = l_x; x <= r_x; x++)
 1010b84:	e0fffb17 	ldw	r3,-20(fp)
 1010b88:	e0fff615 	stw	r3,-40(fp)
 1010b8c:	00000806 	br	1010bb0 <alt_up_pixel_buffer_dma_draw_box+0x198>
				{
					IOWR_8DIRECT(addr, x, local_color);
 1010b90:	e0ffff17 	ldw	r3,-4(fp)
 1010b94:	e0bff617 	ldw	r2,-40(fp)
 1010b98:	1885883a 	add	r2,r3,r2
 1010b9c:	e0fff717 	ldw	r3,-36(fp)
 1010ba0:	10c00025 	stbio	r3,0(r2)
		/* This portion of the code is purposefully replicated. This is because having a text for
		 * the mode would unnecessarily slow down the drawing of a box. */
		if (pixel_buffer->color_mode == ALT_UP_8BIT_COLOR_MODE) {
			for (y = t_y; y <= b_y; y++)
			{
				for (x = l_x; x <= r_x; x++)
 1010ba4:	e13ff617 	ldw	r4,-40(fp)
 1010ba8:	21000044 	addi	r4,r4,1
 1010bac:	e13ff615 	stw	r4,-40(fp)
 1010bb0:	e0bffa17 	ldw	r2,-24(fp)
 1010bb4:	e0fff617 	ldw	r3,-40(fp)
 1010bb8:	10fff52e 	bgeu	r2,r3,1010b90 <alt_up_pixel_buffer_dma_draw_box+0x178>
				{
					IOWR_8DIRECT(addr, x, local_color);
				}
				addr = addr + (1 << offset_y);
 1010bbc:	e0fff417 	ldw	r3,-48(fp)
 1010bc0:	00800044 	movi	r2,1
 1010bc4:	10c4983a 	sll	r2,r2,r3
 1010bc8:	e13fff17 	ldw	r4,-4(fp)
 1010bcc:	2089883a 	add	r4,r4,r2
 1010bd0:	e13fff15 	stw	r4,-4(fp)
		addr = addr + (t_y << offset_y);
		
		/* This portion of the code is purposefully replicated. This is because having a text for
		 * the mode would unnecessarily slow down the drawing of a box. */
		if (pixel_buffer->color_mode == ALT_UP_8BIT_COLOR_MODE) {
			for (y = t_y; y <= b_y; y++)
 1010bd4:	e0bff517 	ldw	r2,-44(fp)
 1010bd8:	10800044 	addi	r2,r2,1
 1010bdc:	e0bff515 	stw	r2,-44(fp)
 1010be0:	e0fff817 	ldw	r3,-32(fp)
 1010be4:	e13ff517 	ldw	r4,-44(fp)
 1010be8:	193fe62e 	bgeu	r3,r4,1010b84 <alt_up_pixel_buffer_dma_draw_box+0x16c>
 1010bec:	0000c406 	br	1010f00 <alt_up_pixel_buffer_dma_draw_box+0x4e8>
				{
					IOWR_8DIRECT(addr, x, local_color);
				}
				addr = addr + (1 << offset_y);
			}
		} else if (pixel_buffer->color_mode == ALT_UP_16BIT_COLOR_MODE) {
 1010bf0:	e0bfee17 	ldw	r2,-72(fp)
 1010bf4:	10800e17 	ldw	r2,56(r2)
 1010bf8:	10800098 	cmpnei	r2,r2,2
 1010bfc:	1000211e 	bne	r2,zero,1010c84 <alt_up_pixel_buffer_dma_draw_box+0x26c>
			for (y = t_y; y <= b_y; y++)
 1010c00:	e0bff917 	ldw	r2,-28(fp)
 1010c04:	e0bff515 	stw	r2,-44(fp)
 1010c08:	00001a06 	br	1010c74 <alt_up_pixel_buffer_dma_draw_box+0x25c>
			{
				for (x = l_x; x <= r_x; x++)
 1010c0c:	e0fffb17 	ldw	r3,-20(fp)
 1010c10:	e0fff615 	stw	r3,-40(fp)
 1010c14:	00000b06 	br	1010c44 <alt_up_pixel_buffer_dma_draw_box+0x22c>
				{
					IOWR_16DIRECT(addr, x << 1, local_color);
 1010c18:	e13ff617 	ldw	r4,-40(fp)
 1010c1c:	e13ff617 	ldw	r4,-40(fp)
 1010c20:	2105883a 	add	r2,r4,r4
 1010c24:	1007883a 	mov	r3,r2
 1010c28:	e0bfff17 	ldw	r2,-4(fp)
 1010c2c:	1885883a 	add	r2,r3,r2
 1010c30:	e0fff717 	ldw	r3,-36(fp)
 1010c34:	10c0002d 	sthio	r3,0(r2)
				addr = addr + (1 << offset_y);
			}
		} else if (pixel_buffer->color_mode == ALT_UP_16BIT_COLOR_MODE) {
			for (y = t_y; y <= b_y; y++)
			{
				for (x = l_x; x <= r_x; x++)
 1010c38:	e0bff617 	ldw	r2,-40(fp)
 1010c3c:	10800044 	addi	r2,r2,1
 1010c40:	e0bff615 	stw	r2,-40(fp)
 1010c44:	e0fffa17 	ldw	r3,-24(fp)
 1010c48:	e13ff617 	ldw	r4,-40(fp)
 1010c4c:	193ff22e 	bgeu	r3,r4,1010c18 <alt_up_pixel_buffer_dma_draw_box+0x200>
				{
					IOWR_16DIRECT(addr, x << 1, local_color);
				}
				addr = addr + (1 << offset_y);
 1010c50:	e0fff417 	ldw	r3,-48(fp)
 1010c54:	00800044 	movi	r2,1
 1010c58:	10c4983a 	sll	r2,r2,r3
 1010c5c:	e0ffff17 	ldw	r3,-4(fp)
 1010c60:	1887883a 	add	r3,r3,r2
 1010c64:	e0ffff15 	stw	r3,-4(fp)
					IOWR_8DIRECT(addr, x, local_color);
				}
				addr = addr + (1 << offset_y);
			}
		} else if (pixel_buffer->color_mode == ALT_UP_16BIT_COLOR_MODE) {
			for (y = t_y; y <= b_y; y++)
 1010c68:	e13ff517 	ldw	r4,-44(fp)
 1010c6c:	21000044 	addi	r4,r4,1
 1010c70:	e13ff515 	stw	r4,-44(fp)
 1010c74:	e0bff817 	ldw	r2,-32(fp)
 1010c78:	e0fff517 	ldw	r3,-44(fp)
 1010c7c:	10ffe32e 	bgeu	r2,r3,1010c0c <alt_up_pixel_buffer_dma_draw_box+0x1f4>
 1010c80:	00009f06 	br	1010f00 <alt_up_pixel_buffer_dma_draw_box+0x4e8>
				addr = addr + (1 << offset_y);
			}
		}
		else
		{
			for (y = t_y; y <= b_y; y++)
 1010c84:	e13ff917 	ldw	r4,-28(fp)
 1010c88:	e13ff515 	stw	r4,-44(fp)
 1010c8c:	00001b06 	br	1010cfc <alt_up_pixel_buffer_dma_draw_box+0x2e4>
			{
				for (x = l_x; x <= r_x; x++)
 1010c90:	e0bffb17 	ldw	r2,-20(fp)
 1010c94:	e0bff615 	stw	r2,-40(fp)
 1010c98:	00000c06 	br	1010ccc <alt_up_pixel_buffer_dma_draw_box+0x2b4>
				{
					IOWR_32DIRECT(addr, x << 2, local_color);
 1010c9c:	e0fff617 	ldw	r3,-40(fp)
 1010ca0:	e0fff617 	ldw	r3,-40(fp)
 1010ca4:	18c5883a 	add	r2,r3,r3
 1010ca8:	1085883a 	add	r2,r2,r2
 1010cac:	1007883a 	mov	r3,r2
 1010cb0:	e0bfff17 	ldw	r2,-4(fp)
 1010cb4:	1885883a 	add	r2,r3,r2
 1010cb8:	e0fff717 	ldw	r3,-36(fp)
 1010cbc:	10c00035 	stwio	r3,0(r2)
		}
		else
		{
			for (y = t_y; y <= b_y; y++)
			{
				for (x = l_x; x <= r_x; x++)
 1010cc0:	e13ff617 	ldw	r4,-40(fp)
 1010cc4:	21000044 	addi	r4,r4,1
 1010cc8:	e13ff615 	stw	r4,-40(fp)
 1010ccc:	e0bffa17 	ldw	r2,-24(fp)
 1010cd0:	e0fff617 	ldw	r3,-40(fp)
 1010cd4:	10fff12e 	bgeu	r2,r3,1010c9c <alt_up_pixel_buffer_dma_draw_box+0x284>
				{
					IOWR_32DIRECT(addr, x << 2, local_color);
				}
				addr = addr + (1 << offset_y);
 1010cd8:	e0fff417 	ldw	r3,-48(fp)
 1010cdc:	00800044 	movi	r2,1
 1010ce0:	10c4983a 	sll	r2,r2,r3
 1010ce4:	e13fff17 	ldw	r4,-4(fp)
 1010ce8:	2089883a 	add	r4,r4,r2
 1010cec:	e13fff15 	stw	r4,-4(fp)
				addr = addr + (1 << offset_y);
			}
		}
		else
		{
			for (y = t_y; y <= b_y; y++)
 1010cf0:	e0bff517 	ldw	r2,-44(fp)
 1010cf4:	10800044 	addi	r2,r2,1
 1010cf8:	e0bff515 	stw	r2,-44(fp)
 1010cfc:	e0fff817 	ldw	r3,-32(fp)
 1010d00:	e13ff517 	ldw	r4,-44(fp)
 1010d04:	193fe22e 	bgeu	r3,r4,1010c90 <alt_up_pixel_buffer_dma_draw_box+0x278>
 1010d08:	00007d06 	br	1010f00 <alt_up_pixel_buffer_dma_draw_box+0x4e8>
	} else {
		/* Draw a box of a given color on the screen using the linear addressing mode. */
		register unsigned int x,y;
		/* This portion of the code is purposefully replicated. This is because having a text for
		 * the mode would unnecessarily slow down the drawing of a box. */
		if (pixel_buffer->color_mode == ALT_UP_8BIT_COLOR_MODE) {
 1010d0c:	e0bfee17 	ldw	r2,-72(fp)
 1010d10:	10800e17 	ldw	r2,56(r2)
 1010d14:	10800058 	cmpnei	r2,r2,1
 1010d18:	1000221e 	bne	r2,zero,1010da4 <alt_up_pixel_buffer_dma_draw_box+0x38c>
			addr = addr + t_y * limit_x;
 1010d1c:	e13ff917 	ldw	r4,-28(fp)
 1010d20:	e17ffe17 	ldw	r5,-8(fp)
 1010d24:	1005a5c0 	call	1005a5c <__mulsi3>
 1010d28:	e0ffff17 	ldw	r3,-4(fp)
 1010d2c:	1887883a 	add	r3,r3,r2
 1010d30:	e0ffff15 	stw	r3,-4(fp)
			for (y = t_y; y <= b_y; y++)
 1010d34:	e13ff917 	ldw	r4,-28(fp)
 1010d38:	e13ff215 	stw	r4,-56(fp)
 1010d3c:	00001506 	br	1010d94 <alt_up_pixel_buffer_dma_draw_box+0x37c>
			{
				for (x = l_x; x <= r_x; x++)
 1010d40:	e0bffb17 	ldw	r2,-20(fp)
 1010d44:	e0bff315 	stw	r2,-52(fp)
 1010d48:	00000806 	br	1010d6c <alt_up_pixel_buffer_dma_draw_box+0x354>
				{
					IOWR_8DIRECT(addr, x, local_color);
 1010d4c:	e0ffff17 	ldw	r3,-4(fp)
 1010d50:	e0bff317 	ldw	r2,-52(fp)
 1010d54:	1885883a 	add	r2,r3,r2
 1010d58:	e0fff717 	ldw	r3,-36(fp)
 1010d5c:	10c00025 	stbio	r3,0(r2)
		 * the mode would unnecessarily slow down the drawing of a box. */
		if (pixel_buffer->color_mode == ALT_UP_8BIT_COLOR_MODE) {
			addr = addr + t_y * limit_x;
			for (y = t_y; y <= b_y; y++)
			{
				for (x = l_x; x <= r_x; x++)
 1010d60:	e0fff317 	ldw	r3,-52(fp)
 1010d64:	18c00044 	addi	r3,r3,1
 1010d68:	e0fff315 	stw	r3,-52(fp)
 1010d6c:	e13ffa17 	ldw	r4,-24(fp)
 1010d70:	e0bff317 	ldw	r2,-52(fp)
 1010d74:	20bff52e 	bgeu	r4,r2,1010d4c <alt_up_pixel_buffer_dma_draw_box+0x334>
				{
					IOWR_8DIRECT(addr, x, local_color);
				}
				addr = addr + limit_x;
 1010d78:	e0ffff17 	ldw	r3,-4(fp)
 1010d7c:	e13ffe17 	ldw	r4,-8(fp)
 1010d80:	1907883a 	add	r3,r3,r4
 1010d84:	e0ffff15 	stw	r3,-4(fp)
		register unsigned int x,y;
		/* This portion of the code is purposefully replicated. This is because having a text for
		 * the mode would unnecessarily slow down the drawing of a box. */
		if (pixel_buffer->color_mode == ALT_UP_8BIT_COLOR_MODE) {
			addr = addr + t_y * limit_x;
			for (y = t_y; y <= b_y; y++)
 1010d88:	e0bff217 	ldw	r2,-56(fp)
 1010d8c:	10800044 	addi	r2,r2,1
 1010d90:	e0bff215 	stw	r2,-56(fp)
 1010d94:	e0fff817 	ldw	r3,-32(fp)
 1010d98:	e13ff217 	ldw	r4,-56(fp)
 1010d9c:	193fe82e 	bgeu	r3,r4,1010d40 <alt_up_pixel_buffer_dma_draw_box+0x328>
 1010da0:	00005706 	br	1010f00 <alt_up_pixel_buffer_dma_draw_box+0x4e8>
				{
					IOWR_8DIRECT(addr, x, local_color);
				}
				addr = addr + limit_x;
			}
		} else if (pixel_buffer->color_mode == ALT_UP_16BIT_COLOR_MODE) {
 1010da4:	e0bfee17 	ldw	r2,-72(fp)
 1010da8:	10800e17 	ldw	r2,56(r2)
 1010dac:	10800098 	cmpnei	r2,r2,2
 1010db0:	1000291e 	bne	r2,zero,1010e58 <alt_up_pixel_buffer_dma_draw_box+0x440>
			limit_x = limit_x << 1;
 1010db4:	e0fffe17 	ldw	r3,-8(fp)
 1010db8:	e0fffe17 	ldw	r3,-8(fp)
 1010dbc:	18c5883a 	add	r2,r3,r3
 1010dc0:	e0bffe15 	stw	r2,-8(fp)
			addr = addr + t_y * limit_x;
 1010dc4:	e13ff917 	ldw	r4,-28(fp)
 1010dc8:	e17ffe17 	ldw	r5,-8(fp)
 1010dcc:	1005a5c0 	call	1005a5c <__mulsi3>
 1010dd0:	e13fff17 	ldw	r4,-4(fp)
 1010dd4:	2089883a 	add	r4,r4,r2
 1010dd8:	e13fff15 	stw	r4,-4(fp)
			for (y = t_y; y <= b_y; y++)
 1010ddc:	e0bff917 	ldw	r2,-28(fp)
 1010de0:	e0bff215 	stw	r2,-56(fp)
 1010de4:	00001806 	br	1010e48 <alt_up_pixel_buffer_dma_draw_box+0x430>
			{
				for (x = l_x; x <= r_x; x++)
 1010de8:	e0fffb17 	ldw	r3,-20(fp)
 1010dec:	e0fff315 	stw	r3,-52(fp)
 1010df0:	00000b06 	br	1010e20 <alt_up_pixel_buffer_dma_draw_box+0x408>
				{
					IOWR_16DIRECT(addr, x << 1, local_color);
 1010df4:	e13ff317 	ldw	r4,-52(fp)
 1010df8:	e13ff317 	ldw	r4,-52(fp)
 1010dfc:	2105883a 	add	r2,r4,r4
 1010e00:	1007883a 	mov	r3,r2
 1010e04:	e0bfff17 	ldw	r2,-4(fp)
 1010e08:	1885883a 	add	r2,r3,r2
 1010e0c:	e0fff717 	ldw	r3,-36(fp)
 1010e10:	10c0002d 	sthio	r3,0(r2)
		} else if (pixel_buffer->color_mode == ALT_UP_16BIT_COLOR_MODE) {
			limit_x = limit_x << 1;
			addr = addr + t_y * limit_x;
			for (y = t_y; y <= b_y; y++)
			{
				for (x = l_x; x <= r_x; x++)
 1010e14:	e0bff317 	ldw	r2,-52(fp)
 1010e18:	10800044 	addi	r2,r2,1
 1010e1c:	e0bff315 	stw	r2,-52(fp)
 1010e20:	e0fffa17 	ldw	r3,-24(fp)
 1010e24:	e13ff317 	ldw	r4,-52(fp)
 1010e28:	193ff22e 	bgeu	r3,r4,1010df4 <alt_up_pixel_buffer_dma_draw_box+0x3dc>
				{
					IOWR_16DIRECT(addr, x << 1, local_color);
				}
				addr = addr + limit_x;
 1010e2c:	e0bfff17 	ldw	r2,-4(fp)
 1010e30:	e0fffe17 	ldw	r3,-8(fp)
 1010e34:	10c5883a 	add	r2,r2,r3
 1010e38:	e0bfff15 	stw	r2,-4(fp)
				addr = addr + limit_x;
			}
		} else if (pixel_buffer->color_mode == ALT_UP_16BIT_COLOR_MODE) {
			limit_x = limit_x << 1;
			addr = addr + t_y * limit_x;
			for (y = t_y; y <= b_y; y++)
 1010e3c:	e13ff217 	ldw	r4,-56(fp)
 1010e40:	21000044 	addi	r4,r4,1
 1010e44:	e13ff215 	stw	r4,-56(fp)
 1010e48:	e0bff817 	ldw	r2,-32(fp)
 1010e4c:	e0fff217 	ldw	r3,-56(fp)
 1010e50:	10ffe52e 	bgeu	r2,r3,1010de8 <alt_up_pixel_buffer_dma_draw_box+0x3d0>
 1010e54:	00002a06 	br	1010f00 <alt_up_pixel_buffer_dma_draw_box+0x4e8>
				addr = addr + limit_x;
			}
		}
		else
		{
			limit_x = limit_x << 2;
 1010e58:	e13ffe17 	ldw	r4,-8(fp)
 1010e5c:	e13ffe17 	ldw	r4,-8(fp)
 1010e60:	2105883a 	add	r2,r4,r4
 1010e64:	1085883a 	add	r2,r2,r2
 1010e68:	e0bffe15 	stw	r2,-8(fp)
			addr = addr + t_y * limit_x;
 1010e6c:	e13ff917 	ldw	r4,-28(fp)
 1010e70:	e17ffe17 	ldw	r5,-8(fp)
 1010e74:	1005a5c0 	call	1005a5c <__mulsi3>
 1010e78:	e0ffff17 	ldw	r3,-4(fp)
 1010e7c:	1887883a 	add	r3,r3,r2
 1010e80:	e0ffff15 	stw	r3,-4(fp)
			for (y = t_y; y <= b_y; y++)
 1010e84:	e13ff917 	ldw	r4,-28(fp)
 1010e88:	e13ff215 	stw	r4,-56(fp)
 1010e8c:	00001906 	br	1010ef4 <alt_up_pixel_buffer_dma_draw_box+0x4dc>
			{
				for (x = l_x; x <= r_x; x++)
 1010e90:	e0bffb17 	ldw	r2,-20(fp)
 1010e94:	e0bff315 	stw	r2,-52(fp)
 1010e98:	00000c06 	br	1010ecc <alt_up_pixel_buffer_dma_draw_box+0x4b4>
				{
					IOWR_32DIRECT(addr, x << 2, local_color);
 1010e9c:	e0fff317 	ldw	r3,-52(fp)
 1010ea0:	e0fff317 	ldw	r3,-52(fp)
 1010ea4:	18c5883a 	add	r2,r3,r3
 1010ea8:	1085883a 	add	r2,r2,r2
 1010eac:	1007883a 	mov	r3,r2
 1010eb0:	e0bfff17 	ldw	r2,-4(fp)
 1010eb4:	1885883a 	add	r2,r3,r2
 1010eb8:	e0fff717 	ldw	r3,-36(fp)
 1010ebc:	10c00035 	stwio	r3,0(r2)
		{
			limit_x = limit_x << 2;
			addr = addr + t_y * limit_x;
			for (y = t_y; y <= b_y; y++)
			{
				for (x = l_x; x <= r_x; x++)
 1010ec0:	e13ff317 	ldw	r4,-52(fp)
 1010ec4:	21000044 	addi	r4,r4,1
 1010ec8:	e13ff315 	stw	r4,-52(fp)
 1010ecc:	e0bffa17 	ldw	r2,-24(fp)
 1010ed0:	e0fff317 	ldw	r3,-52(fp)
 1010ed4:	10fff12e 	bgeu	r2,r3,1010e9c <alt_up_pixel_buffer_dma_draw_box+0x484>
				{
					IOWR_32DIRECT(addr, x << 2, local_color);
				}
				addr = addr + limit_x;
 1010ed8:	e13fff17 	ldw	r4,-4(fp)
 1010edc:	e0bffe17 	ldw	r2,-8(fp)
 1010ee0:	2089883a 	add	r4,r4,r2
 1010ee4:	e13fff15 	stw	r4,-4(fp)
		}
		else
		{
			limit_x = limit_x << 2;
			addr = addr + t_y * limit_x;
			for (y = t_y; y <= b_y; y++)
 1010ee8:	e0fff217 	ldw	r3,-56(fp)
 1010eec:	18c00044 	addi	r3,r3,1
 1010ef0:	e0fff215 	stw	r3,-56(fp)
 1010ef4:	e13ff817 	ldw	r4,-32(fp)
 1010ef8:	e0bff217 	ldw	r2,-56(fp)
 1010efc:	20bfe42e 	bgeu	r4,r2,1010e90 <alt_up_pixel_buffer_dma_draw_box+0x478>
				}
				addr = addr + limit_x;
			}
		}
	}
}
 1010f00:	e037883a 	mov	sp,fp
 1010f04:	dfc00117 	ldw	ra,4(sp)
 1010f08:	df000017 	ldw	fp,0(sp)
 1010f0c:	dec00204 	addi	sp,sp,8
 1010f10:	f800283a 	ret

01010f14 <alt_up_pixel_buffer_dma_draw_hline>:

void alt_up_pixel_buffer_dma_draw_hline(alt_up_pixel_buffer_dma_dev *pixel_buffer, int x0, int x1, int y, int color, int backbuffer)
/* This method draws a horizontal line. This method is faster than using the line method because we know the direction of the line. */
{
 1010f14:	defff104 	addi	sp,sp,-60
 1010f18:	dfc00e15 	stw	ra,56(sp)
 1010f1c:	df000d15 	stw	fp,52(sp)
 1010f20:	df000d04 	addi	fp,sp,52
 1010f24:	e13ff315 	stw	r4,-52(fp)
 1010f28:	e17ff415 	stw	r5,-48(fp)
 1010f2c:	e1bff515 	stw	r6,-44(fp)
 1010f30:	e1fff615 	stw	r7,-40(fp)
	register unsigned int addr;
	register unsigned int limit_x = pixel_buffer->x_resolution;
 1010f34:	e0bff317 	ldw	r2,-52(fp)
 1010f38:	10800f17 	ldw	r2,60(r2)
 1010f3c:	e0bffe15 	stw	r2,-8(fp)
	register unsigned int limit_y = pixel_buffer->y_resolution;
 1010f40:	e0bff317 	ldw	r2,-52(fp)
 1010f44:	10801017 	ldw	r2,64(r2)
 1010f48:	e0bffd15 	stw	r2,-12(fp)
	register unsigned int temp;
	register unsigned int l_x = x0;
 1010f4c:	e0bff417 	ldw	r2,-48(fp)
 1010f50:	e0bffc15 	stw	r2,-16(fp)
	register unsigned int r_x = x1;
 1010f54:	e0fff517 	ldw	r3,-44(fp)
 1010f58:	e0fffb15 	stw	r3,-20(fp)
	register unsigned int line_y = y;
 1010f5c:	e13ff617 	ldw	r4,-40(fp)
 1010f60:	e13ffa15 	stw	r4,-24(fp)
	register unsigned int local_color = color;
 1010f64:	e0800217 	ldw	r2,8(fp)
 1010f68:	e0bff915 	stw	r2,-28(fp)
	
	/* Check coordinates */
	if (l_x > r_x)
 1010f6c:	e0fffb17 	ldw	r3,-20(fp)
 1010f70:	e13ffc17 	ldw	r4,-16(fp)
 1010f74:	1900042e 	bgeu	r3,r4,1010f88 <alt_up_pixel_buffer_dma_draw_hline+0x74>
	{
		temp = l_x;
 1010f78:	e0bffc17 	ldw	r2,-16(fp)
		l_x = r_x;
 1010f7c:	e0fffb17 	ldw	r3,-20(fp)
 1010f80:	e0fffc15 	stw	r3,-16(fp)
		r_x = temp;
 1010f84:	e0bffb15 	stw	r2,-20(fp)
	}
	if ((l_x >= limit_x) || (line_y >= limit_y) || (r_x < 0) || (line_y < 0))
 1010f88:	e13ffc17 	ldw	r4,-16(fp)
 1010f8c:	e0bffe17 	ldw	r2,-8(fp)
 1010f90:	2080b12e 	bgeu	r4,r2,1011258 <alt_up_pixel_buffer_dma_draw_hline+0x344>
 1010f94:	e13ffa17 	ldw	r4,-24(fp)
 1010f98:	e0fffd17 	ldw	r3,-12(fp)
 1010f9c:	20c00136 	bltu	r4,r3,1010fa4 <alt_up_pixel_buffer_dma_draw_hline+0x90>
	{
		/* Drawing outside of the window, so don't bother. */
		return;
 1010fa0:	0000ad06 	br	1011258 <alt_up_pixel_buffer_dma_draw_hline+0x344>
	/* Clip the box and draw only within the confines of the screen. */
	if (l_x < 0)
	{
		l_x = 0;
	}
	if (r_x >= limit_x)
 1010fa4:	e0bffb17 	ldw	r2,-20(fp)
 1010fa8:	e0fffe17 	ldw	r3,-8(fp)
 1010fac:	10c00336 	bltu	r2,r3,1010fbc <alt_up_pixel_buffer_dma_draw_hline+0xa8>
	{
		r_x = limit_x - 1;
 1010fb0:	e13ffe17 	ldw	r4,-8(fp)
 1010fb4:	213fffc4 	addi	r4,r4,-1
 1010fb8:	e13ffb15 	stw	r4,-20(fp)
	}

	/* Set up the address to start clearing from and the screen boundaries. */
	if (backbuffer == 1)
 1010fbc:	e0800317 	ldw	r2,12(fp)
 1010fc0:	10800058 	cmpnei	r2,r2,1
 1010fc4:	1000041e 	bne	r2,zero,1010fd8 <alt_up_pixel_buffer_dma_draw_hline+0xc4>
		addr = pixel_buffer->back_buffer_start_address;
 1010fc8:	e0bff317 	ldw	r2,-52(fp)
 1010fcc:	10800c17 	ldw	r2,48(r2)
 1010fd0:	e0bfff15 	stw	r2,-4(fp)
 1010fd4:	00000306 	br	1010fe4 <alt_up_pixel_buffer_dma_draw_hline+0xd0>
	else
		addr = pixel_buffer->buffer_start_address;
 1010fd8:	e0bff317 	ldw	r2,-52(fp)
 1010fdc:	10800b17 	ldw	r2,44(r2)
 1010fe0:	e0bfff15 	stw	r2,-4(fp)

	/* Draw a horizontal line using one of the addressing modes. */
	if (pixel_buffer->addressing_mode == ALT_UP_PIXEL_BUFFER_XY_ADDRESS_MODE) {
 1010fe4:	e0bff317 	ldw	r2,-52(fp)
 1010fe8:	10800d17 	ldw	r2,52(r2)
 1010fec:	1004c03a 	cmpne	r2,r2,zero
 1010ff0:	1000431e 	bne	r2,zero,1011100 <alt_up_pixel_buffer_dma_draw_hline+0x1ec>
		/* Draw a horizontal line of a given color on the screen using the XY addressing mode. */
		register unsigned int x;
		register unsigned int offset_y;
		offset_y = pixel_buffer->y_coord_offset;
 1010ff4:	e0bff317 	ldw	r2,-52(fp)
 1010ff8:	10801317 	ldw	r2,76(r2)
		addr = addr + (line_y << offset_y);
 1010ffc:	e0fffa17 	ldw	r3,-24(fp)
 1011000:	1884983a 	sll	r2,r3,r2
 1011004:	e13fff17 	ldw	r4,-4(fp)
 1011008:	2089883a 	add	r4,r4,r2
 101100c:	e13fff15 	stw	r4,-4(fp)
		
		/* This portion of the code is purposefully replicated. This is because having a text for
		 * the mode would unnecessarily slow down the drawing of a horizontal line. */
		if (pixel_buffer->color_mode == ALT_UP_8BIT_COLOR_MODE) {
 1011010:	e0bff317 	ldw	r2,-52(fp)
 1011014:	10800e17 	ldw	r2,56(r2)
 1011018:	10800058 	cmpnei	r2,r2,1
 101101c:	10000f1e 	bne	r2,zero,101105c <alt_up_pixel_buffer_dma_draw_hline+0x148>
			for (x = l_x; x <= r_x; x++)
 1011020:	e0bffc17 	ldw	r2,-16(fp)
 1011024:	e0bff815 	stw	r2,-32(fp)
 1011028:	00000806 	br	101104c <alt_up_pixel_buffer_dma_draw_hline+0x138>
			{
				IOWR_8DIRECT(addr, x, local_color);
 101102c:	e0ffff17 	ldw	r3,-4(fp)
 1011030:	e0bff817 	ldw	r2,-32(fp)
 1011034:	1885883a 	add	r2,r3,r2
 1011038:	e0fff917 	ldw	r3,-28(fp)
 101103c:	10c00025 	stbio	r3,0(r2)
		addr = addr + (line_y << offset_y);
		
		/* This portion of the code is purposefully replicated. This is because having a text for
		 * the mode would unnecessarily slow down the drawing of a horizontal line. */
		if (pixel_buffer->color_mode == ALT_UP_8BIT_COLOR_MODE) {
			for (x = l_x; x <= r_x; x++)
 1011040:	e0fff817 	ldw	r3,-32(fp)
 1011044:	18c00044 	addi	r3,r3,1
 1011048:	e0fff815 	stw	r3,-32(fp)
 101104c:	e13ffb17 	ldw	r4,-20(fp)
 1011050:	e0bff817 	ldw	r2,-32(fp)
 1011054:	20bff52e 	bgeu	r4,r2,101102c <alt_up_pixel_buffer_dma_draw_hline+0x118>
 1011058:	00007f06 	br	1011258 <alt_up_pixel_buffer_dma_draw_hline+0x344>
			{
				IOWR_8DIRECT(addr, x, local_color);
			}
		} else if (pixel_buffer->color_mode == ALT_UP_16BIT_COLOR_MODE) {
 101105c:	e0bff317 	ldw	r2,-52(fp)
 1011060:	10800e17 	ldw	r2,56(r2)
 1011064:	10800098 	cmpnei	r2,r2,2
 1011068:	1000121e 	bne	r2,zero,10110b4 <alt_up_pixel_buffer_dma_draw_hline+0x1a0>
			for (x = l_x; x <= r_x; x++)
 101106c:	e0fffc17 	ldw	r3,-16(fp)
 1011070:	e0fff815 	stw	r3,-32(fp)
 1011074:	00000b06 	br	10110a4 <alt_up_pixel_buffer_dma_draw_hline+0x190>
			{
				IOWR_16DIRECT(addr, x << 1, local_color);
 1011078:	e13ff817 	ldw	r4,-32(fp)
 101107c:	e13ff817 	ldw	r4,-32(fp)
 1011080:	2105883a 	add	r2,r4,r4
 1011084:	1007883a 	mov	r3,r2
 1011088:	e0bfff17 	ldw	r2,-4(fp)
 101108c:	1885883a 	add	r2,r3,r2
 1011090:	e0fff917 	ldw	r3,-28(fp)
 1011094:	10c0002d 	sthio	r3,0(r2)
			for (x = l_x; x <= r_x; x++)
			{
				IOWR_8DIRECT(addr, x, local_color);
			}
		} else if (pixel_buffer->color_mode == ALT_UP_16BIT_COLOR_MODE) {
			for (x = l_x; x <= r_x; x++)
 1011098:	e0bff817 	ldw	r2,-32(fp)
 101109c:	10800044 	addi	r2,r2,1
 10110a0:	e0bff815 	stw	r2,-32(fp)
 10110a4:	e0fffb17 	ldw	r3,-20(fp)
 10110a8:	e13ff817 	ldw	r4,-32(fp)
 10110ac:	193ff22e 	bgeu	r3,r4,1011078 <alt_up_pixel_buffer_dma_draw_hline+0x164>
 10110b0:	00006906 	br	1011258 <alt_up_pixel_buffer_dma_draw_hline+0x344>
				IOWR_16DIRECT(addr, x << 1, local_color);
			}
		}
		else
		{
			for (x = l_x; x <= r_x; x++)
 10110b4:	e0bffc17 	ldw	r2,-16(fp)
 10110b8:	e0bff815 	stw	r2,-32(fp)
 10110bc:	00000c06 	br	10110f0 <alt_up_pixel_buffer_dma_draw_hline+0x1dc>
			{
				IOWR_32DIRECT(addr, x << 2, local_color);
 10110c0:	e0fff817 	ldw	r3,-32(fp)
 10110c4:	e0fff817 	ldw	r3,-32(fp)
 10110c8:	18c5883a 	add	r2,r3,r3
 10110cc:	1085883a 	add	r2,r2,r2
 10110d0:	1007883a 	mov	r3,r2
 10110d4:	e0bfff17 	ldw	r2,-4(fp)
 10110d8:	1885883a 	add	r2,r3,r2
 10110dc:	e0fff917 	ldw	r3,-28(fp)
 10110e0:	10c00035 	stwio	r3,0(r2)
				IOWR_16DIRECT(addr, x << 1, local_color);
			}
		}
		else
		{
			for (x = l_x; x <= r_x; x++)
 10110e4:	e13ff817 	ldw	r4,-32(fp)
 10110e8:	21000044 	addi	r4,r4,1
 10110ec:	e13ff815 	stw	r4,-32(fp)
 10110f0:	e0bffb17 	ldw	r2,-20(fp)
 10110f4:	e0fff817 	ldw	r3,-32(fp)
 10110f8:	10fff12e 	bgeu	r2,r3,10110c0 <alt_up_pixel_buffer_dma_draw_hline+0x1ac>
 10110fc:	00005606 	br	1011258 <alt_up_pixel_buffer_dma_draw_hline+0x344>
	} else {
		/* Draw a horizontal line of a given color on the screen using the linear addressing mode. */
		register unsigned int x;
		/* This portion of the code is purposefully replicated. This is because having a text for
		 * the mode would unnecessarily slow down the drawing of a box. */
		if (pixel_buffer->color_mode == ALT_UP_8BIT_COLOR_MODE) {
 1011100:	e0bff317 	ldw	r2,-52(fp)
 1011104:	10800e17 	ldw	r2,56(r2)
 1011108:	10800058 	cmpnei	r2,r2,1
 101110c:	1000151e 	bne	r2,zero,1011164 <alt_up_pixel_buffer_dma_draw_hline+0x250>
			addr = addr + line_y * limit_x;
 1011110:	e13ffa17 	ldw	r4,-24(fp)
 1011114:	e17ffe17 	ldw	r5,-8(fp)
 1011118:	1005a5c0 	call	1005a5c <__mulsi3>
 101111c:	e13fff17 	ldw	r4,-4(fp)
 1011120:	2089883a 	add	r4,r4,r2
 1011124:	e13fff15 	stw	r4,-4(fp)
			for (x = l_x; x <= r_x; x++)
 1011128:	e0bffc17 	ldw	r2,-16(fp)
 101112c:	e0bff715 	stw	r2,-36(fp)
 1011130:	00000806 	br	1011154 <alt_up_pixel_buffer_dma_draw_hline+0x240>
			{
				IOWR_8DIRECT(addr, x, local_color);
 1011134:	e0ffff17 	ldw	r3,-4(fp)
 1011138:	e0bff717 	ldw	r2,-36(fp)
 101113c:	1885883a 	add	r2,r3,r2
 1011140:	e0fff917 	ldw	r3,-28(fp)
 1011144:	10c00025 	stbio	r3,0(r2)
		register unsigned int x;
		/* This portion of the code is purposefully replicated. This is because having a text for
		 * the mode would unnecessarily slow down the drawing of a box. */
		if (pixel_buffer->color_mode == ALT_UP_8BIT_COLOR_MODE) {
			addr = addr + line_y * limit_x;
			for (x = l_x; x <= r_x; x++)
 1011148:	e0fff717 	ldw	r3,-36(fp)
 101114c:	18c00044 	addi	r3,r3,1
 1011150:	e0fff715 	stw	r3,-36(fp)
 1011154:	e13ffb17 	ldw	r4,-20(fp)
 1011158:	e0bff717 	ldw	r2,-36(fp)
 101115c:	20bff52e 	bgeu	r4,r2,1011134 <alt_up_pixel_buffer_dma_draw_hline+0x220>
 1011160:	00003d06 	br	1011258 <alt_up_pixel_buffer_dma_draw_hline+0x344>
			{
				IOWR_8DIRECT(addr, x, local_color);
			}
		} else if (pixel_buffer->color_mode == ALT_UP_16BIT_COLOR_MODE) {
 1011164:	e0bff317 	ldw	r2,-52(fp)
 1011168:	10800e17 	ldw	r2,56(r2)
 101116c:	10800098 	cmpnei	r2,r2,2
 1011170:	10001c1e 	bne	r2,zero,10111e4 <alt_up_pixel_buffer_dma_draw_hline+0x2d0>
			limit_x = limit_x << 1;
 1011174:	e0fffe17 	ldw	r3,-8(fp)
 1011178:	e0fffe17 	ldw	r3,-8(fp)
 101117c:	18c5883a 	add	r2,r3,r3
 1011180:	e0bffe15 	stw	r2,-8(fp)
			addr = addr + line_y * limit_x;
 1011184:	e13ffa17 	ldw	r4,-24(fp)
 1011188:	e17ffe17 	ldw	r5,-8(fp)
 101118c:	1005a5c0 	call	1005a5c <__mulsi3>
 1011190:	e13fff17 	ldw	r4,-4(fp)
 1011194:	2089883a 	add	r4,r4,r2
 1011198:	e13fff15 	stw	r4,-4(fp)
			for (x = l_x; x <= r_x; x++)
 101119c:	e0bffc17 	ldw	r2,-16(fp)
 10111a0:	e0bff715 	stw	r2,-36(fp)
 10111a4:	00000b06 	br	10111d4 <alt_up_pixel_buffer_dma_draw_hline+0x2c0>
			{
				IOWR_16DIRECT(addr, x << 1, local_color);
 10111a8:	e0fff717 	ldw	r3,-36(fp)
 10111ac:	e0fff717 	ldw	r3,-36(fp)
 10111b0:	18c5883a 	add	r2,r3,r3
 10111b4:	1007883a 	mov	r3,r2
 10111b8:	e0bfff17 	ldw	r2,-4(fp)
 10111bc:	1885883a 	add	r2,r3,r2
 10111c0:	e0fff917 	ldw	r3,-28(fp)
 10111c4:	10c0002d 	sthio	r3,0(r2)
				IOWR_8DIRECT(addr, x, local_color);
			}
		} else if (pixel_buffer->color_mode == ALT_UP_16BIT_COLOR_MODE) {
			limit_x = limit_x << 1;
			addr = addr + line_y * limit_x;
			for (x = l_x; x <= r_x; x++)
 10111c8:	e13ff717 	ldw	r4,-36(fp)
 10111cc:	21000044 	addi	r4,r4,1
 10111d0:	e13ff715 	stw	r4,-36(fp)
 10111d4:	e0bffb17 	ldw	r2,-20(fp)
 10111d8:	e0fff717 	ldw	r3,-36(fp)
 10111dc:	10fff22e 	bgeu	r2,r3,10111a8 <alt_up_pixel_buffer_dma_draw_hline+0x294>
 10111e0:	00001d06 	br	1011258 <alt_up_pixel_buffer_dma_draw_hline+0x344>
				IOWR_16DIRECT(addr, x << 1, local_color);
			}
		}
		else
		{
			limit_x = limit_x << 2;
 10111e4:	e13ffe17 	ldw	r4,-8(fp)
 10111e8:	e13ffe17 	ldw	r4,-8(fp)
 10111ec:	2105883a 	add	r2,r4,r4
 10111f0:	1085883a 	add	r2,r2,r2
 10111f4:	e0bffe15 	stw	r2,-8(fp)
			addr = addr + line_y * limit_x;
 10111f8:	e13ffa17 	ldw	r4,-24(fp)
 10111fc:	e17ffe17 	ldw	r5,-8(fp)
 1011200:	1005a5c0 	call	1005a5c <__mulsi3>
 1011204:	e0ffff17 	ldw	r3,-4(fp)
 1011208:	1887883a 	add	r3,r3,r2
 101120c:	e0ffff15 	stw	r3,-4(fp)
			for (x = l_x; x <= r_x; x++)
 1011210:	e13ffc17 	ldw	r4,-16(fp)
 1011214:	e13ff715 	stw	r4,-36(fp)
 1011218:	00000c06 	br	101124c <alt_up_pixel_buffer_dma_draw_hline+0x338>
			{
				IOWR_32DIRECT(addr, x << 2, local_color);
 101121c:	e0fff717 	ldw	r3,-36(fp)
 1011220:	e0fff717 	ldw	r3,-36(fp)
 1011224:	18c5883a 	add	r2,r3,r3
 1011228:	1085883a 	add	r2,r2,r2
 101122c:	1007883a 	mov	r3,r2
 1011230:	e0bfff17 	ldw	r2,-4(fp)
 1011234:	1885883a 	add	r2,r3,r2
 1011238:	e0fff917 	ldw	r3,-28(fp)
 101123c:	10c00035 	stwio	r3,0(r2)
		}
		else
		{
			limit_x = limit_x << 2;
			addr = addr + line_y * limit_x;
			for (x = l_x; x <= r_x; x++)
 1011240:	e13ff717 	ldw	r4,-36(fp)
 1011244:	21000044 	addi	r4,r4,1
 1011248:	e13ff715 	stw	r4,-36(fp)
 101124c:	e0bffb17 	ldw	r2,-20(fp)
 1011250:	e0fff717 	ldw	r3,-36(fp)
 1011254:	10fff12e 	bgeu	r2,r3,101121c <alt_up_pixel_buffer_dma_draw_hline+0x308>
				IOWR_32DIRECT(addr, x << 2, local_color);
			}
			addr = addr + limit_x;
		}
	}
}
 1011258:	e037883a 	mov	sp,fp
 101125c:	dfc00117 	ldw	ra,4(sp)
 1011260:	df000017 	ldw	fp,0(sp)
 1011264:	dec00204 	addi	sp,sp,8
 1011268:	f800283a 	ret

0101126c <alt_up_pixel_buffer_dma_draw_vline>:


void alt_up_pixel_buffer_dma_draw_vline(alt_up_pixel_buffer_dma_dev *pixel_buffer, int x, int y0, int y1, int color, int backbuffer)
/* This method draws a vertical line. This method is faster than using the line method because we know the direction of the line. */

{
 101126c:	defff004 	addi	sp,sp,-64
 1011270:	dfc00f15 	stw	ra,60(sp)
 1011274:	df000e15 	stw	fp,56(sp)
 1011278:	df000e04 	addi	fp,sp,56
 101127c:	e13ff215 	stw	r4,-56(fp)
 1011280:	e17ff315 	stw	r5,-52(fp)
 1011284:	e1bff415 	stw	r6,-48(fp)
 1011288:	e1fff515 	stw	r7,-44(fp)
	register unsigned int addr;
	register unsigned int limit_x = pixel_buffer->x_resolution;
 101128c:	e0bff217 	ldw	r2,-56(fp)
 1011290:	10800f17 	ldw	r2,60(r2)
 1011294:	e0bffe15 	stw	r2,-8(fp)
	register unsigned int limit_y = pixel_buffer->y_resolution;
 1011298:	e0bff217 	ldw	r2,-56(fp)
 101129c:	10801017 	ldw	r2,64(r2)
 10112a0:	e0bffd15 	stw	r2,-12(fp)
	register unsigned int temp;
	register unsigned int line_x = x;
 10112a4:	e0bff317 	ldw	r2,-52(fp)
 10112a8:	e0bffc15 	stw	r2,-16(fp)
	register unsigned int t_y = y0;
 10112ac:	e0fff417 	ldw	r3,-48(fp)
 10112b0:	e0fffb15 	stw	r3,-20(fp)
	register unsigned int b_y = y1;
 10112b4:	e13ff517 	ldw	r4,-44(fp)
 10112b8:	e13ffa15 	stw	r4,-24(fp)
	register unsigned int local_color = color;
 10112bc:	e0800217 	ldw	r2,8(fp)
 10112c0:	e0bff915 	stw	r2,-28(fp)
	
	/* Check coordinates */
	if (t_y > b_y)
 10112c4:	e0fffa17 	ldw	r3,-24(fp)
 10112c8:	e13ffb17 	ldw	r4,-20(fp)
 10112cc:	1900042e 	bgeu	r3,r4,10112e0 <alt_up_pixel_buffer_dma_draw_vline+0x74>
	{
		temp = t_y;
 10112d0:	e0bffb17 	ldw	r2,-20(fp)
		t_y = b_y;
 10112d4:	e0fffa17 	ldw	r3,-24(fp)
 10112d8:	e0fffb15 	stw	r3,-20(fp)
		b_y = temp;
 10112dc:	e0bffa15 	stw	r2,-24(fp)
	}
	if ((line_x >= limit_x) || (t_y >= limit_y) || (line_x < 0) || (b_y < 0))
 10112e0:	e13ffc17 	ldw	r4,-16(fp)
 10112e4:	e0bffe17 	ldw	r2,-8(fp)
 10112e8:	2080d12e 	bgeu	r4,r2,1011630 <alt_up_pixel_buffer_dma_draw_vline+0x3c4>
 10112ec:	e0fffb17 	ldw	r3,-20(fp)
 10112f0:	e13ffd17 	ldw	r4,-12(fp)
 10112f4:	19000136 	bltu	r3,r4,10112fc <alt_up_pixel_buffer_dma_draw_vline+0x90>
	{
		/* Drawing outside of the window, so don't bother. */
		return;
 10112f8:	0000cd06 	br	1011630 <alt_up_pixel_buffer_dma_draw_vline+0x3c4>
	/* Clip the box and draw only within the confines of the screen. */
	if (t_y < 0)
	{
		t_y = 0;
	}
	if (b_y >= limit_y)
 10112fc:	e0bffa17 	ldw	r2,-24(fp)
 1011300:	e0fffd17 	ldw	r3,-12(fp)
 1011304:	10c00336 	bltu	r2,r3,1011314 <alt_up_pixel_buffer_dma_draw_vline+0xa8>
	{
		b_y = limit_y - 1;
 1011308:	e13ffd17 	ldw	r4,-12(fp)
 101130c:	213fffc4 	addi	r4,r4,-1
 1011310:	e13ffa15 	stw	r4,-24(fp)
	}

	/* Set up the address to start clearing from and the screen boundaries. */
	if (backbuffer == 1)
 1011314:	e0800317 	ldw	r2,12(fp)
 1011318:	10800058 	cmpnei	r2,r2,1
 101131c:	1000041e 	bne	r2,zero,1011330 <alt_up_pixel_buffer_dma_draw_vline+0xc4>
		addr = pixel_buffer->back_buffer_start_address;
 1011320:	e0bff217 	ldw	r2,-56(fp)
 1011324:	10800c17 	ldw	r2,48(r2)
 1011328:	e0bfff15 	stw	r2,-4(fp)
 101132c:	00000306 	br	101133c <alt_up_pixel_buffer_dma_draw_vline+0xd0>
	else
		addr = pixel_buffer->buffer_start_address;
 1011330:	e0bff217 	ldw	r2,-56(fp)
 1011334:	10800b17 	ldw	r2,44(r2)
 1011338:	e0bfff15 	stw	r2,-4(fp)

	/* Draw the vertical line using one of the addressing modes. */
	if (pixel_buffer->addressing_mode == ALT_UP_PIXEL_BUFFER_XY_ADDRESS_MODE) {
 101133c:	e0bff217 	ldw	r2,-56(fp)
 1011340:	10800d17 	ldw	r2,52(r2)
 1011344:	1004c03a 	cmpne	r2,r2,zero
 1011348:	1000571e 	bne	r2,zero,10114a8 <alt_up_pixel_buffer_dma_draw_vline+0x23c>
		/* Draw a vertical line of a given color on the screen using the XY addressing mode. */
		register unsigned int y;
		register unsigned int offset_y;
		offset_y = pixel_buffer->y_coord_offset;
 101134c:	e0bff217 	ldw	r2,-56(fp)
 1011350:	10801317 	ldw	r2,76(r2)
 1011354:	e0bff715 	stw	r2,-36(fp)
		addr = addr + (t_y << offset_y);
 1011358:	e0bff717 	ldw	r2,-36(fp)
 101135c:	e0fffb17 	ldw	r3,-20(fp)
 1011360:	1884983a 	sll	r2,r3,r2
 1011364:	e13fff17 	ldw	r4,-4(fp)
 1011368:	2089883a 	add	r4,r4,r2
 101136c:	e13fff15 	stw	r4,-4(fp)
		
		/* This portion of the code is purposefully replicated. This is because having a text for
		 * the mode would unnecessarily slow down the drawing of a box. */
		if (pixel_buffer->color_mode == ALT_UP_8BIT_COLOR_MODE) {
 1011370:	e0bff217 	ldw	r2,-56(fp)
 1011374:	10800e17 	ldw	r2,56(r2)
 1011378:	10800058 	cmpnei	r2,r2,1
 101137c:	1000151e 	bne	r2,zero,10113d4 <alt_up_pixel_buffer_dma_draw_vline+0x168>
			for (y = t_y; y <= b_y; y++)
 1011380:	e0bffb17 	ldw	r2,-20(fp)
 1011384:	e0bff815 	stw	r2,-32(fp)
 1011388:	00000e06 	br	10113c4 <alt_up_pixel_buffer_dma_draw_vline+0x158>
			{
				IOWR_8DIRECT(addr, line_x, local_color);
 101138c:	e0ffff17 	ldw	r3,-4(fp)
 1011390:	e0bffc17 	ldw	r2,-16(fp)
 1011394:	1885883a 	add	r2,r3,r2
 1011398:	e0fff917 	ldw	r3,-28(fp)
 101139c:	10c00025 	stbio	r3,0(r2)
				addr = addr + (1 << offset_y);
 10113a0:	e0fff717 	ldw	r3,-36(fp)
 10113a4:	00800044 	movi	r2,1
 10113a8:	10c4983a 	sll	r2,r2,r3
 10113ac:	e0ffff17 	ldw	r3,-4(fp)
 10113b0:	1887883a 	add	r3,r3,r2
 10113b4:	e0ffff15 	stw	r3,-4(fp)
		addr = addr + (t_y << offset_y);
		
		/* This portion of the code is purposefully replicated. This is because having a text for
		 * the mode would unnecessarily slow down the drawing of a box. */
		if (pixel_buffer->color_mode == ALT_UP_8BIT_COLOR_MODE) {
			for (y = t_y; y <= b_y; y++)
 10113b8:	e13ff817 	ldw	r4,-32(fp)
 10113bc:	21000044 	addi	r4,r4,1
 10113c0:	e13ff815 	stw	r4,-32(fp)
 10113c4:	e0bffa17 	ldw	r2,-24(fp)
 10113c8:	e0fff817 	ldw	r3,-32(fp)
 10113cc:	10ffef2e 	bgeu	r2,r3,101138c <alt_up_pixel_buffer_dma_draw_vline+0x120>
 10113d0:	00009706 	br	1011630 <alt_up_pixel_buffer_dma_draw_vline+0x3c4>
			{
				IOWR_8DIRECT(addr, line_x, local_color);
				addr = addr + (1 << offset_y);
			}
		} else if (pixel_buffer->color_mode == ALT_UP_16BIT_COLOR_MODE) {
 10113d4:	e0bff217 	ldw	r2,-56(fp)
 10113d8:	10800e17 	ldw	r2,56(r2)
 10113dc:	10800098 	cmpnei	r2,r2,2
 10113e0:	1000181e 	bne	r2,zero,1011444 <alt_up_pixel_buffer_dma_draw_vline+0x1d8>
			for (y = t_y; y <= b_y; y++)
 10113e4:	e13ffb17 	ldw	r4,-20(fp)
 10113e8:	e13ff815 	stw	r4,-32(fp)
 10113ec:	00001106 	br	1011434 <alt_up_pixel_buffer_dma_draw_vline+0x1c8>
			{
				IOWR_16DIRECT(addr, line_x << 1, local_color);
 10113f0:	e0fffc17 	ldw	r3,-16(fp)
 10113f4:	e0fffc17 	ldw	r3,-16(fp)
 10113f8:	18c5883a 	add	r2,r3,r3
 10113fc:	1007883a 	mov	r3,r2
 1011400:	e0bfff17 	ldw	r2,-4(fp)
 1011404:	1885883a 	add	r2,r3,r2
 1011408:	e0fff917 	ldw	r3,-28(fp)
 101140c:	10c0002d 	sthio	r3,0(r2)
				addr = addr + (1 << offset_y);
 1011410:	e0fff717 	ldw	r3,-36(fp)
 1011414:	00800044 	movi	r2,1
 1011418:	10c4983a 	sll	r2,r2,r3
 101141c:	e13fff17 	ldw	r4,-4(fp)
 1011420:	2089883a 	add	r4,r4,r2
 1011424:	e13fff15 	stw	r4,-4(fp)
			{
				IOWR_8DIRECT(addr, line_x, local_color);
				addr = addr + (1 << offset_y);
			}
		} else if (pixel_buffer->color_mode == ALT_UP_16BIT_COLOR_MODE) {
			for (y = t_y; y <= b_y; y++)
 1011428:	e0bff817 	ldw	r2,-32(fp)
 101142c:	10800044 	addi	r2,r2,1
 1011430:	e0bff815 	stw	r2,-32(fp)
 1011434:	e0fffa17 	ldw	r3,-24(fp)
 1011438:	e13ff817 	ldw	r4,-32(fp)
 101143c:	193fec2e 	bgeu	r3,r4,10113f0 <alt_up_pixel_buffer_dma_draw_vline+0x184>
 1011440:	00007b06 	br	1011630 <alt_up_pixel_buffer_dma_draw_vline+0x3c4>
				addr = addr + (1 << offset_y);
			}
		}
		else
		{
			for (y = t_y; y <= b_y; y++)
 1011444:	e0bffb17 	ldw	r2,-20(fp)
 1011448:	e0bff815 	stw	r2,-32(fp)
 101144c:	00001206 	br	1011498 <alt_up_pixel_buffer_dma_draw_vline+0x22c>
			{
				IOWR_32DIRECT(addr, line_x << 2, local_color);
 1011450:	e0fffc17 	ldw	r3,-16(fp)
 1011454:	e0fffc17 	ldw	r3,-16(fp)
 1011458:	18c5883a 	add	r2,r3,r3
 101145c:	1085883a 	add	r2,r2,r2
 1011460:	1007883a 	mov	r3,r2
 1011464:	e0bfff17 	ldw	r2,-4(fp)
 1011468:	1885883a 	add	r2,r3,r2
 101146c:	e0fff917 	ldw	r3,-28(fp)
 1011470:	10c00035 	stwio	r3,0(r2)
				addr = addr + (1 << offset_y);
 1011474:	e0fff717 	ldw	r3,-36(fp)
 1011478:	00800044 	movi	r2,1
 101147c:	10c4983a 	sll	r2,r2,r3
 1011480:	e13fff17 	ldw	r4,-4(fp)
 1011484:	2089883a 	add	r4,r4,r2
 1011488:	e13fff15 	stw	r4,-4(fp)
				addr = addr + (1 << offset_y);
			}
		}
		else
		{
			for (y = t_y; y <= b_y; y++)
 101148c:	e0bff817 	ldw	r2,-32(fp)
 1011490:	10800044 	addi	r2,r2,1
 1011494:	e0bff815 	stw	r2,-32(fp)
 1011498:	e0fffa17 	ldw	r3,-24(fp)
 101149c:	e13ff817 	ldw	r4,-32(fp)
 10114a0:	193feb2e 	bgeu	r3,r4,1011450 <alt_up_pixel_buffer_dma_draw_vline+0x1e4>
 10114a4:	00006206 	br	1011630 <alt_up_pixel_buffer_dma_draw_vline+0x3c4>
	} else {
		/* Draw a vertical line of a given color on the screen using the linear addressing mode. */
		register unsigned int y;
		/* This portion of the code is purposefully replicated. This is because having a text for
		 * the mode would unnecessarily slow down the drawing of a box. */
		if (pixel_buffer->color_mode == ALT_UP_8BIT_COLOR_MODE) {
 10114a8:	e0bff217 	ldw	r2,-56(fp)
 10114ac:	10800e17 	ldw	r2,56(r2)
 10114b0:	10800058 	cmpnei	r2,r2,1
 10114b4:	1000191e 	bne	r2,zero,101151c <alt_up_pixel_buffer_dma_draw_vline+0x2b0>
			addr = addr + t_y * limit_x;
 10114b8:	e13ffb17 	ldw	r4,-20(fp)
 10114bc:	e17ffe17 	ldw	r5,-8(fp)
 10114c0:	1005a5c0 	call	1005a5c <__mulsi3>
 10114c4:	e0ffff17 	ldw	r3,-4(fp)
 10114c8:	1887883a 	add	r3,r3,r2
 10114cc:	e0ffff15 	stw	r3,-4(fp)
			for (y = t_y; y <= b_y; y++)
 10114d0:	e13ffb17 	ldw	r4,-20(fp)
 10114d4:	e13ff615 	stw	r4,-40(fp)
 10114d8:	00000c06 	br	101150c <alt_up_pixel_buffer_dma_draw_vline+0x2a0>
			{
				IOWR_8DIRECT(addr, line_x, local_color);
 10114dc:	e0ffff17 	ldw	r3,-4(fp)
 10114e0:	e0bffc17 	ldw	r2,-16(fp)
 10114e4:	1885883a 	add	r2,r3,r2
 10114e8:	e0fff917 	ldw	r3,-28(fp)
 10114ec:	10c00025 	stbio	r3,0(r2)
				addr = addr + limit_x;
 10114f0:	e0bfff17 	ldw	r2,-4(fp)
 10114f4:	e0fffe17 	ldw	r3,-8(fp)
 10114f8:	10c5883a 	add	r2,r2,r3
 10114fc:	e0bfff15 	stw	r2,-4(fp)
		register unsigned int y;
		/* This portion of the code is purposefully replicated. This is because having a text for
		 * the mode would unnecessarily slow down the drawing of a box. */
		if (pixel_buffer->color_mode == ALT_UP_8BIT_COLOR_MODE) {
			addr = addr + t_y * limit_x;
			for (y = t_y; y <= b_y; y++)
 1011500:	e13ff617 	ldw	r4,-40(fp)
 1011504:	21000044 	addi	r4,r4,1
 1011508:	e13ff615 	stw	r4,-40(fp)
 101150c:	e0bffa17 	ldw	r2,-24(fp)
 1011510:	e0fff617 	ldw	r3,-40(fp)
 1011514:	10fff12e 	bgeu	r2,r3,10114dc <alt_up_pixel_buffer_dma_draw_vline+0x270>
 1011518:	00004506 	br	1011630 <alt_up_pixel_buffer_dma_draw_vline+0x3c4>
			{
				IOWR_8DIRECT(addr, line_x, local_color);
				addr = addr + limit_x;
			}
		} else if (pixel_buffer->color_mode == ALT_UP_16BIT_COLOR_MODE) {
 101151c:	e0bff217 	ldw	r2,-56(fp)
 1011520:	10800e17 	ldw	r2,56(r2)
 1011524:	10800098 	cmpnei	r2,r2,2
 1011528:	1000201e 	bne	r2,zero,10115ac <alt_up_pixel_buffer_dma_draw_vline+0x340>
			limit_x = limit_x << 1;
 101152c:	e13ffe17 	ldw	r4,-8(fp)
 1011530:	e13ffe17 	ldw	r4,-8(fp)
 1011534:	2105883a 	add	r2,r4,r4
 1011538:	e0bffe15 	stw	r2,-8(fp)
			addr = addr + t_y * limit_x;
 101153c:	e13ffb17 	ldw	r4,-20(fp)
 1011540:	e17ffe17 	ldw	r5,-8(fp)
 1011544:	1005a5c0 	call	1005a5c <__mulsi3>
 1011548:	e0ffff17 	ldw	r3,-4(fp)
 101154c:	1887883a 	add	r3,r3,r2
 1011550:	e0ffff15 	stw	r3,-4(fp)
			for (y = t_y; y <= b_y; y++)
 1011554:	e13ffb17 	ldw	r4,-20(fp)
 1011558:	e13ff615 	stw	r4,-40(fp)
 101155c:	00000f06 	br	101159c <alt_up_pixel_buffer_dma_draw_vline+0x330>
			{
				IOWR_16DIRECT(addr, line_x << 1, local_color);
 1011560:	e0fffc17 	ldw	r3,-16(fp)
 1011564:	e0fffc17 	ldw	r3,-16(fp)
 1011568:	18c5883a 	add	r2,r3,r3
 101156c:	1007883a 	mov	r3,r2
 1011570:	e0bfff17 	ldw	r2,-4(fp)
 1011574:	1885883a 	add	r2,r3,r2
 1011578:	e0fff917 	ldw	r3,-28(fp)
 101157c:	10c0002d 	sthio	r3,0(r2)
				addr = addr + limit_x;
 1011580:	e13fff17 	ldw	r4,-4(fp)
 1011584:	e0bffe17 	ldw	r2,-8(fp)
 1011588:	2089883a 	add	r4,r4,r2
 101158c:	e13fff15 	stw	r4,-4(fp)
				addr = addr + limit_x;
			}
		} else if (pixel_buffer->color_mode == ALT_UP_16BIT_COLOR_MODE) {
			limit_x = limit_x << 1;
			addr = addr + t_y * limit_x;
			for (y = t_y; y <= b_y; y++)
 1011590:	e0fff617 	ldw	r3,-40(fp)
 1011594:	18c00044 	addi	r3,r3,1
 1011598:	e0fff615 	stw	r3,-40(fp)
 101159c:	e13ffa17 	ldw	r4,-24(fp)
 10115a0:	e0bff617 	ldw	r2,-40(fp)
 10115a4:	20bfee2e 	bgeu	r4,r2,1011560 <alt_up_pixel_buffer_dma_draw_vline+0x2f4>
 10115a8:	00002106 	br	1011630 <alt_up_pixel_buffer_dma_draw_vline+0x3c4>
				addr = addr + limit_x;
			}
		}
		else
		{
			limit_x = limit_x << 2;
 10115ac:	e0fffe17 	ldw	r3,-8(fp)
 10115b0:	e0fffe17 	ldw	r3,-8(fp)
 10115b4:	18c5883a 	add	r2,r3,r3
 10115b8:	1085883a 	add	r2,r2,r2
 10115bc:	e0bffe15 	stw	r2,-8(fp)
			addr = addr + t_y * limit_x;
 10115c0:	e13ffb17 	ldw	r4,-20(fp)
 10115c4:	e17ffe17 	ldw	r5,-8(fp)
 10115c8:	1005a5c0 	call	1005a5c <__mulsi3>
 10115cc:	e13fff17 	ldw	r4,-4(fp)
 10115d0:	2089883a 	add	r4,r4,r2
 10115d4:	e13fff15 	stw	r4,-4(fp)
			for (y = t_y; y <= b_y; y++)
 10115d8:	e0bffb17 	ldw	r2,-20(fp)
 10115dc:	e0bff615 	stw	r2,-40(fp)
 10115e0:	00001006 	br	1011624 <alt_up_pixel_buffer_dma_draw_vline+0x3b8>
			{
				IOWR_32DIRECT(addr, line_x << 2, local_color);
 10115e4:	e0fffc17 	ldw	r3,-16(fp)
 10115e8:	e0fffc17 	ldw	r3,-16(fp)
 10115ec:	18c5883a 	add	r2,r3,r3
 10115f0:	1085883a 	add	r2,r2,r2
 10115f4:	1007883a 	mov	r3,r2
 10115f8:	e0bfff17 	ldw	r2,-4(fp)
 10115fc:	1885883a 	add	r2,r3,r2
 1011600:	e0fff917 	ldw	r3,-28(fp)
 1011604:	10c00035 	stwio	r3,0(r2)
				addr = addr + limit_x;
 1011608:	e13fff17 	ldw	r4,-4(fp)
 101160c:	e0bffe17 	ldw	r2,-8(fp)
 1011610:	2089883a 	add	r4,r4,r2
 1011614:	e13fff15 	stw	r4,-4(fp)
		}
		else
		{
			limit_x = limit_x << 2;
			addr = addr + t_y * limit_x;
			for (y = t_y; y <= b_y; y++)
 1011618:	e0fff617 	ldw	r3,-40(fp)
 101161c:	18c00044 	addi	r3,r3,1
 1011620:	e0fff615 	stw	r3,-40(fp)
 1011624:	e13ffa17 	ldw	r4,-24(fp)
 1011628:	e0bff617 	ldw	r2,-40(fp)
 101162c:	20bfed2e 	bgeu	r4,r2,10115e4 <alt_up_pixel_buffer_dma_draw_vline+0x378>
				IOWR_32DIRECT(addr, line_x << 2, local_color);
				addr = addr + limit_x;
			}
		}
	}
}
 1011630:	e037883a 	mov	sp,fp
 1011634:	dfc00117 	ldw	ra,4(sp)
 1011638:	df000017 	ldw	fp,0(sp)
 101163c:	dec00204 	addi	sp,sp,8
 1011640:	f800283a 	ret

01011644 <alt_up_pixel_buffer_dma_draw_rectangle>:

void alt_up_pixel_buffer_dma_draw_rectangle(alt_up_pixel_buffer_dma_dev *pixel_buffer, int x0, int y0, int x1, int y1, int color, int backbuffer)
{
 1011644:	defff804 	addi	sp,sp,-32
 1011648:	dfc00715 	stw	ra,28(sp)
 101164c:	df000615 	stw	fp,24(sp)
 1011650:	df000604 	addi	fp,sp,24
 1011654:	e13ffc15 	stw	r4,-16(fp)
 1011658:	e17ffd15 	stw	r5,-12(fp)
 101165c:	e1bffe15 	stw	r6,-8(fp)
 1011660:	e1ffff15 	stw	r7,-4(fp)
	alt_up_pixel_buffer_dma_draw_hline(pixel_buffer, x0, x1, y0, color, backbuffer);
 1011664:	e0800317 	ldw	r2,12(fp)
 1011668:	d8800015 	stw	r2,0(sp)
 101166c:	e0800417 	ldw	r2,16(fp)
 1011670:	d8800115 	stw	r2,4(sp)
 1011674:	e13ffc17 	ldw	r4,-16(fp)
 1011678:	e17ffd17 	ldw	r5,-12(fp)
 101167c:	e1bfff17 	ldw	r6,-4(fp)
 1011680:	e1fffe17 	ldw	r7,-8(fp)
 1011684:	1010f140 	call	1010f14 <alt_up_pixel_buffer_dma_draw_hline>
	alt_up_pixel_buffer_dma_draw_hline(pixel_buffer, x0, x1, y1, color, backbuffer);
 1011688:	e0800317 	ldw	r2,12(fp)
 101168c:	d8800015 	stw	r2,0(sp)
 1011690:	e0800417 	ldw	r2,16(fp)
 1011694:	d8800115 	stw	r2,4(sp)
 1011698:	e13ffc17 	ldw	r4,-16(fp)
 101169c:	e17ffd17 	ldw	r5,-12(fp)
 10116a0:	e1bfff17 	ldw	r6,-4(fp)
 10116a4:	e1c00217 	ldw	r7,8(fp)
 10116a8:	1010f140 	call	1010f14 <alt_up_pixel_buffer_dma_draw_hline>
	alt_up_pixel_buffer_dma_draw_vline(pixel_buffer, x0, y0, y1, color, backbuffer);
 10116ac:	e0800317 	ldw	r2,12(fp)
 10116b0:	d8800015 	stw	r2,0(sp)
 10116b4:	e0800417 	ldw	r2,16(fp)
 10116b8:	d8800115 	stw	r2,4(sp)
 10116bc:	e13ffc17 	ldw	r4,-16(fp)
 10116c0:	e17ffd17 	ldw	r5,-12(fp)
 10116c4:	e1bffe17 	ldw	r6,-8(fp)
 10116c8:	e1c00217 	ldw	r7,8(fp)
 10116cc:	101126c0 	call	101126c <alt_up_pixel_buffer_dma_draw_vline>
	alt_up_pixel_buffer_dma_draw_vline(pixel_buffer, x1, y0, y1, color, backbuffer);
 10116d0:	e0800317 	ldw	r2,12(fp)
 10116d4:	d8800015 	stw	r2,0(sp)
 10116d8:	e0800417 	ldw	r2,16(fp)
 10116dc:	d8800115 	stw	r2,4(sp)
 10116e0:	e13ffc17 	ldw	r4,-16(fp)
 10116e4:	e17fff17 	ldw	r5,-4(fp)
 10116e8:	e1bffe17 	ldw	r6,-8(fp)
 10116ec:	e1c00217 	ldw	r7,8(fp)
 10116f0:	101126c0 	call	101126c <alt_up_pixel_buffer_dma_draw_vline>
}
 10116f4:	e037883a 	mov	sp,fp
 10116f8:	dfc00117 	ldw	ra,4(sp)
 10116fc:	df000017 	ldw	fp,0(sp)
 1011700:	dec00204 	addi	sp,sp,8
 1011704:	f800283a 	ret

01011708 <helper_plot_pixel>:

void helper_plot_pixel(register unsigned int buffer_start, register int line_size, register int x, register int y, register int color, register int mode)
/* This is a helper function that draws a pixel at a given location. Note that no boundary checks are made,
 * so drawing off-screen may cause unpredictable side effects. */
{
 1011708:	defffa04 	addi	sp,sp,-24
 101170c:	dfc00515 	stw	ra,20(sp)
 1011710:	df000415 	stw	fp,16(sp)
 1011714:	df000404 	addi	fp,sp,16
 1011718:	e13ffc15 	stw	r4,-16(fp)
 101171c:	e17ffd15 	stw	r5,-12(fp)
 1011720:	e1bffe15 	stw	r6,-8(fp)
 1011724:	e1ffff15 	stw	r7,-4(fp)
	if (mode == 0)
 1011728:	e0c00317 	ldw	r3,12(fp)
 101172c:	1804c03a 	cmpne	r2,r3,zero
 1011730:	10000b1e 	bne	r2,zero,1011760 <helper_plot_pixel+0x58>
		IOWR_8DIRECT(buffer_start, line_size*y+x, color);
 1011734:	e13ffd17 	ldw	r4,-12(fp)
 1011738:	e17fff17 	ldw	r5,-4(fp)
 101173c:	1005a5c0 	call	1005a5c <__mulsi3>
 1011740:	e0fffe17 	ldw	r3,-8(fp)
 1011744:	10c5883a 	add	r2,r2,r3
 1011748:	1007883a 	mov	r3,r2
 101174c:	e0bffc17 	ldw	r2,-16(fp)
 1011750:	1885883a 	add	r2,r3,r2
 1011754:	e0c00217 	ldw	r3,8(fp)
 1011758:	10c00025 	stbio	r3,0(r2)
 101175c:	00001b06 	br	10117cc <helper_plot_pixel+0xc4>
	else if (mode == 1)
 1011760:	e0c00317 	ldw	r3,12(fp)
 1011764:	18800058 	cmpnei	r2,r3,1
 1011768:	10000c1e 	bne	r2,zero,101179c <helper_plot_pixel+0x94>
		IOWR_16DIRECT(buffer_start, (line_size*y+x) << 1, color);
 101176c:	e13ffd17 	ldw	r4,-12(fp)
 1011770:	e17fff17 	ldw	r5,-4(fp)
 1011774:	1005a5c0 	call	1005a5c <__mulsi3>
 1011778:	e0fffe17 	ldw	r3,-8(fp)
 101177c:	10c5883a 	add	r2,r2,r3
 1011780:	1085883a 	add	r2,r2,r2
 1011784:	1007883a 	mov	r3,r2
 1011788:	e0bffc17 	ldw	r2,-16(fp)
 101178c:	1885883a 	add	r2,r3,r2
 1011790:	e0c00217 	ldw	r3,8(fp)
 1011794:	10c0002d 	sthio	r3,0(r2)
 1011798:	00000c06 	br	10117cc <helper_plot_pixel+0xc4>
	else
		IOWR_32DIRECT(buffer_start, (line_size*y+x) << 2, color);
 101179c:	e13ffd17 	ldw	r4,-12(fp)
 10117a0:	e17fff17 	ldw	r5,-4(fp)
 10117a4:	1005a5c0 	call	1005a5c <__mulsi3>
 10117a8:	e0fffe17 	ldw	r3,-8(fp)
 10117ac:	10c5883a 	add	r2,r2,r3
 10117b0:	1085883a 	add	r2,r2,r2
 10117b4:	1085883a 	add	r2,r2,r2
 10117b8:	1007883a 	mov	r3,r2
 10117bc:	e0bffc17 	ldw	r2,-16(fp)
 10117c0:	1885883a 	add	r2,r3,r2
 10117c4:	e0c00217 	ldw	r3,8(fp)
 10117c8:	10c00035 	stwio	r3,0(r2)
}
 10117cc:	e037883a 	mov	sp,fp
 10117d0:	dfc00117 	ldw	ra,4(sp)
 10117d4:	df000017 	ldw	fp,0(sp)
 10117d8:	dec00204 	addi	sp,sp,8
 10117dc:	f800283a 	ret

010117e0 <alt_up_pixel_buffer_dma_draw_line>:

void alt_up_pixel_buffer_dma_draw_line(alt_up_pixel_buffer_dma_dev *pixel_buffer, int x0, int y0, int x1, int y1, int color, int backbuffer)
/* This function draws a line between points (x0, y0) and (x1, y1). The function does not check if it draws a pixel within screen boundaries.
 * users should ensure that the line is drawn within the screen boundaries. */
{
 10117e0:	deffe404 	addi	sp,sp,-112
 10117e4:	dfc01b15 	stw	ra,108(sp)
 10117e8:	df001a15 	stw	fp,104(sp)
 10117ec:	df001a04 	addi	fp,sp,104
 10117f0:	e13fe815 	stw	r4,-96(fp)
 10117f4:	e17fe915 	stw	r5,-92(fp)
 10117f8:	e1bfea15 	stw	r6,-88(fp)
 10117fc:	e1ffeb15 	stw	r7,-84(fp)
	register int x_0 = x0;
 1011800:	e0bfe917 	ldw	r2,-92(fp)
 1011804:	e0bffa15 	stw	r2,-24(fp)
	register int y_0 = y0;
 1011808:	e0ffea17 	ldw	r3,-88(fp)
 101180c:	e0fff915 	stw	r3,-28(fp)
	register int x_1 = x1;
 1011810:	e13feb17 	ldw	r4,-84(fp)
 1011814:	e13ff815 	stw	r4,-32(fp)
	register int y_1 = y1;
 1011818:	e0800217 	ldw	r2,8(fp)
 101181c:	e0bff715 	stw	r2,-36(fp)
	register char steep = (ABS(y_1 - y_0) > ABS(x_1 - x_0)) ? 1 : 0;
 1011820:	e0fff717 	ldw	r3,-36(fp)
 1011824:	e13ff917 	ldw	r4,-28(fp)
 1011828:	1905c83a 	sub	r2,r3,r4
 101182c:	e0bfff15 	stw	r2,-4(fp)
 1011830:	e0ffff17 	ldw	r3,-4(fp)
 1011834:	1804403a 	cmpge	r2,r3,zero
 1011838:	1000031e 	bne	r2,zero,1011848 <alt_up_pixel_buffer_dma_draw_line+0x68>
 101183c:	e13fff17 	ldw	r4,-4(fp)
 1011840:	0109c83a 	sub	r4,zero,r4
 1011844:	e13fff15 	stw	r4,-4(fp)
 1011848:	e0fff817 	ldw	r3,-32(fp)
 101184c:	e13ffa17 	ldw	r4,-24(fp)
 1011850:	1905c83a 	sub	r2,r3,r4
 1011854:	e0bffe15 	stw	r2,-8(fp)
 1011858:	e0fffe17 	ldw	r3,-8(fp)
 101185c:	1804403a 	cmpge	r2,r3,zero
 1011860:	1000031e 	bne	r2,zero,1011870 <alt_up_pixel_buffer_dma_draw_line+0x90>
 1011864:	e13ffe17 	ldw	r4,-8(fp)
 1011868:	0109c83a 	sub	r4,zero,r4
 101186c:	e13ffe15 	stw	r4,-8(fp)
 1011870:	e0fffe17 	ldw	r3,-8(fp)
 1011874:	e13fff17 	ldw	r4,-4(fp)
 1011878:	1904803a 	cmplt	r2,r3,r4
 101187c:	e0bff605 	stb	r2,-40(fp)
	register int deltax, deltay, error, ystep, x, y;
	register int color_mode =	(pixel_buffer->color_mode == ALT_UP_8BIT_COLOR_MODE) ? 0 :
								(pixel_buffer->color_mode == ALT_UP_16BIT_COLOR_MODE) ? 1 : 2;
 1011880:	e0bfe817 	ldw	r2,-96(fp)
 1011884:	10800e17 	ldw	r2,56(r2)
 1011888:	10800060 	cmpeqi	r2,r2,1
 101188c:	10000c1e 	bne	r2,zero,10118c0 <alt_up_pixel_buffer_dma_draw_line+0xe0>
 1011890:	e0bfe817 	ldw	r2,-96(fp)
 1011894:	10800e17 	ldw	r2,56(r2)
 1011898:	10800098 	cmpnei	r2,r2,2
 101189c:	1000031e 	bne	r2,zero,10118ac <alt_up_pixel_buffer_dma_draw_line+0xcc>
 10118a0:	00800044 	movi	r2,1
 10118a4:	e0bffc15 	stw	r2,-16(fp)
 10118a8:	00000206 	br	10118b4 <alt_up_pixel_buffer_dma_draw_line+0xd4>
 10118ac:	00c00084 	movi	r3,2
 10118b0:	e0fffc15 	stw	r3,-16(fp)
 10118b4:	e13ffc17 	ldw	r4,-16(fp)
 10118b8:	e13ffd15 	stw	r4,-12(fp)
 10118bc:	00000106 	br	10118c4 <alt_up_pixel_buffer_dma_draw_line+0xe4>
 10118c0:	e03ffd15 	stw	zero,-12(fp)
 10118c4:	e0bffd17 	ldw	r2,-12(fp)
 10118c8:	e0bfef15 	stw	r2,-68(fp)
	register int line_color = color;
 10118cc:	e0c00317 	ldw	r3,12(fp)
 10118d0:	e0ffee15 	stw	r3,-72(fp)
	register unsigned int buffer_start;
	register int line_size = (pixel_buffer->addressing_mode == ALT_UP_PIXEL_BUFFER_XY_ADDRESS_MODE) ? (1 << (pixel_buffer->y_coord_offset-color_mode)) : pixel_buffer->x_resolution;
 10118d4:	e0bfe817 	ldw	r2,-96(fp)
 10118d8:	10800d17 	ldw	r2,52(r2)
 10118dc:	1004c03a 	cmpne	r2,r2,zero
 10118e0:	1000091e 	bne	r2,zero,1011908 <alt_up_pixel_buffer_dma_draw_line+0x128>
 10118e4:	e0bfe817 	ldw	r2,-96(fp)
 10118e8:	10c01317 	ldw	r3,76(r2)
 10118ec:	e0bfef17 	ldw	r2,-68(fp)
 10118f0:	1885c83a 	sub	r2,r3,r2
 10118f4:	1007883a 	mov	r3,r2
 10118f8:	00800044 	movi	r2,1
 10118fc:	10c4983a 	sll	r2,r2,r3
 1011900:	e0bffb15 	stw	r2,-20(fp)
 1011904:	00000306 	br	1011914 <alt_up_pixel_buffer_dma_draw_line+0x134>
 1011908:	e0bfe817 	ldw	r2,-96(fp)
 101190c:	10800f17 	ldw	r2,60(r2)
 1011910:	e0bffb15 	stw	r2,-20(fp)
 1011914:	e13ffb17 	ldw	r4,-20(fp)
 1011918:	e13fec15 	stw	r4,-80(fp)

	if (backbuffer == 1)
 101191c:	e0800417 	ldw	r2,16(fp)
 1011920:	10800058 	cmpnei	r2,r2,1
 1011924:	1000041e 	bne	r2,zero,1011938 <alt_up_pixel_buffer_dma_draw_line+0x158>
		buffer_start = pixel_buffer->back_buffer_start_address;
 1011928:	e0bfe817 	ldw	r2,-96(fp)
 101192c:	10800c17 	ldw	r2,48(r2)
 1011930:	e0bfed15 	stw	r2,-76(fp)
 1011934:	00000306 	br	1011944 <alt_up_pixel_buffer_dma_draw_line+0x164>
	else
		buffer_start = pixel_buffer->buffer_start_address;
 1011938:	e0bfe817 	ldw	r2,-96(fp)
 101193c:	10800b17 	ldw	r2,44(r2)
 1011940:	e0bfed15 	stw	r2,-76(fp)

	/* Preprocessing inputs */
	if (steep > 0) {
 1011944:	e0fff603 	ldbu	r3,-40(fp)
 1011948:	18803fcc 	andi	r2,r3,255
 101194c:	1080201c 	xori	r2,r2,128
 1011950:	10bfe004 	addi	r2,r2,-128
 1011954:	10800050 	cmplti	r2,r2,1
 1011958:	10000c1e 	bne	r2,zero,101198c <alt_up_pixel_buffer_dma_draw_line+0x1ac>
		// Swap x_0 and y_0
		error = x_0;
 101195c:	e13ffa17 	ldw	r4,-24(fp)
 1011960:	e13ff315 	stw	r4,-52(fp)
		x_0 = y_0;
 1011964:	e0bff917 	ldw	r2,-28(fp)
 1011968:	e0bffa15 	stw	r2,-24(fp)
		y_0 = error;
 101196c:	e0fff317 	ldw	r3,-52(fp)
 1011970:	e0fff915 	stw	r3,-28(fp)
		// Swap x_1 and y_1
		error = x_1;
 1011974:	e13ff817 	ldw	r4,-32(fp)
 1011978:	e13ff315 	stw	r4,-52(fp)
		x_1 = y_1;
 101197c:	e0bff717 	ldw	r2,-36(fp)
 1011980:	e0bff815 	stw	r2,-32(fp)
		y_1 = error;
 1011984:	e0fff317 	ldw	r3,-52(fp)
 1011988:	e0fff715 	stw	r3,-36(fp)
	}
	if (x_0 > x_1) {
 101198c:	e13ff817 	ldw	r4,-32(fp)
 1011990:	e0bffa17 	ldw	r2,-24(fp)
 1011994:	20800c0e 	bge	r4,r2,10119c8 <alt_up_pixel_buffer_dma_draw_line+0x1e8>
		// Swap x_0 and x_1
		error = x_0;
 1011998:	e0fffa17 	ldw	r3,-24(fp)
 101199c:	e0fff315 	stw	r3,-52(fp)
		x_0 = x_1;
 10119a0:	e13ff817 	ldw	r4,-32(fp)
 10119a4:	e13ffa15 	stw	r4,-24(fp)
		x_1 = error;
 10119a8:	e0bff317 	ldw	r2,-52(fp)
 10119ac:	e0bff815 	stw	r2,-32(fp)
		// Swap y_0 and y_1
		error = y_0;
 10119b0:	e0fff917 	ldw	r3,-28(fp)
 10119b4:	e0fff315 	stw	r3,-52(fp)
		y_0 = y_1;
 10119b8:	e13ff717 	ldw	r4,-36(fp)
 10119bc:	e13ff915 	stw	r4,-28(fp)
		y_1 = error;
 10119c0:	e0bff317 	ldw	r2,-52(fp)
 10119c4:	e0bff715 	stw	r2,-36(fp)
	}

	/* Setup local variables */
	deltax = x_1 - x_0;
 10119c8:	e0fff817 	ldw	r3,-32(fp)
 10119cc:	e13ffa17 	ldw	r4,-24(fp)
 10119d0:	1907c83a 	sub	r3,r3,r4
 10119d4:	e0fff515 	stw	r3,-44(fp)
	deltay = ABS(y_1 - y_0);
 10119d8:	e0fff717 	ldw	r3,-36(fp)
 10119dc:	e13ff917 	ldw	r4,-28(fp)
 10119e0:	1905c83a 	sub	r2,r3,r4
 10119e4:	e0bff415 	stw	r2,-48(fp)
 10119e8:	e0fff417 	ldw	r3,-48(fp)
 10119ec:	1804403a 	cmpge	r2,r3,zero
 10119f0:	1000031e 	bne	r2,zero,1011a00 <alt_up_pixel_buffer_dma_draw_line+0x220>
 10119f4:	e13ff417 	ldw	r4,-48(fp)
 10119f8:	0109c83a 	sub	r4,zero,r4
 10119fc:	e13ff415 	stw	r4,-48(fp)
	error = -(deltax / 2); 
 1011a00:	e0fff517 	ldw	r3,-44(fp)
 1011a04:	1804d7fa 	srli	r2,r3,31
 1011a08:	e13ff517 	ldw	r4,-44(fp)
 1011a0c:	1105883a 	add	r2,r2,r4
 1011a10:	1005d07a 	srai	r2,r2,1
 1011a14:	0085c83a 	sub	r2,zero,r2
 1011a18:	e0bff315 	stw	r2,-52(fp)
	y = y_0;
 1011a1c:	e0bff917 	ldw	r2,-28(fp)
 1011a20:	e0bff015 	stw	r2,-64(fp)
	if (y_0 < y_1)
 1011a24:	e0fff917 	ldw	r3,-28(fp)
 1011a28:	e13ff717 	ldw	r4,-36(fp)
 1011a2c:	1900030e 	bge	r3,r4,1011a3c <alt_up_pixel_buffer_dma_draw_line+0x25c>
		ystep = 1;
 1011a30:	00800044 	movi	r2,1
 1011a34:	e0bff215 	stw	r2,-56(fp)
 1011a38:	00000206 	br	1011a44 <alt_up_pixel_buffer_dma_draw_line+0x264>
	else
		ystep = -1;
 1011a3c:	00ffffc4 	movi	r3,-1
 1011a40:	e0fff215 	stw	r3,-56(fp)

	/* Draw a line - either go along the x axis (steep = 0) or along the y axis (steep = 1). The code is replicated to
	 * compile well on low optimization levels. */
	if (steep == 1)
 1011a44:	e13ff603 	ldbu	r4,-40(fp)
 1011a48:	20803fcc 	andi	r2,r4,255
 1011a4c:	1080201c 	xori	r2,r2,128
 1011a50:	10bfe004 	addi	r2,r2,-128
 1011a54:	10800058 	cmpnei	r2,r2,1
 1011a58:	1000221e 	bne	r2,zero,1011ae4 <alt_up_pixel_buffer_dma_draw_line+0x304>
	{
		for (x=x_0; x <= x_1; x++) {
 1011a5c:	e0bffa17 	ldw	r2,-24(fp)
 1011a60:	e0bff115 	stw	r2,-60(fp)
 1011a64:	00001b06 	br	1011ad4 <alt_up_pixel_buffer_dma_draw_line+0x2f4>
			helper_plot_pixel(buffer_start, line_size, y, x, line_color, color_mode);
 1011a68:	e0ffee17 	ldw	r3,-72(fp)
 1011a6c:	d8c00015 	stw	r3,0(sp)
 1011a70:	e13fef17 	ldw	r4,-68(fp)
 1011a74:	d9000115 	stw	r4,4(sp)
 1011a78:	e13fed17 	ldw	r4,-76(fp)
 1011a7c:	e17fec17 	ldw	r5,-80(fp)
 1011a80:	e1bff017 	ldw	r6,-64(fp)
 1011a84:	e1fff117 	ldw	r7,-60(fp)
 1011a88:	10117080 	call	1011708 <helper_plot_pixel>
			error = error + deltay;
 1011a8c:	e0bff317 	ldw	r2,-52(fp)
 1011a90:	e0fff417 	ldw	r3,-48(fp)
 1011a94:	10c5883a 	add	r2,r2,r3
 1011a98:	e0bff315 	stw	r2,-52(fp)
			if (error > 0) {
 1011a9c:	e13ff317 	ldw	r4,-52(fp)
 1011aa0:	20800050 	cmplti	r2,r4,1
 1011aa4:	1000081e 	bne	r2,zero,1011ac8 <alt_up_pixel_buffer_dma_draw_line+0x2e8>
				y = y + ystep;
 1011aa8:	e0bff017 	ldw	r2,-64(fp)
 1011aac:	e0fff217 	ldw	r3,-56(fp)
 1011ab0:	10c5883a 	add	r2,r2,r3
 1011ab4:	e0bff015 	stw	r2,-64(fp)
				error = error - deltax;
 1011ab8:	e13ff317 	ldw	r4,-52(fp)
 1011abc:	e0bff517 	ldw	r2,-44(fp)
 1011ac0:	2089c83a 	sub	r4,r4,r2
 1011ac4:	e13ff315 	stw	r4,-52(fp)

	/* Draw a line - either go along the x axis (steep = 0) or along the y axis (steep = 1). The code is replicated to
	 * compile well on low optimization levels. */
	if (steep == 1)
	{
		for (x=x_0; x <= x_1; x++) {
 1011ac8:	e0fff117 	ldw	r3,-60(fp)
 1011acc:	18c00044 	addi	r3,r3,1
 1011ad0:	e0fff115 	stw	r3,-60(fp)
 1011ad4:	e13ff817 	ldw	r4,-32(fp)
 1011ad8:	e0bff117 	ldw	r2,-60(fp)
 1011adc:	20bfe20e 	bge	r4,r2,1011a68 <alt_up_pixel_buffer_dma_draw_line+0x288>
 1011ae0:	00002106 	br	1011b68 <alt_up_pixel_buffer_dma_draw_line+0x388>
			}
		}
	}
	else
	{
		for (x=x_0; x <= x_1; x++) {
 1011ae4:	e0fffa17 	ldw	r3,-24(fp)
 1011ae8:	e0fff115 	stw	r3,-60(fp)
 1011aec:	00001b06 	br	1011b5c <alt_up_pixel_buffer_dma_draw_line+0x37c>
			helper_plot_pixel(buffer_start, line_size, x, y, line_color, color_mode);
 1011af0:	e13fee17 	ldw	r4,-72(fp)
 1011af4:	d9000015 	stw	r4,0(sp)
 1011af8:	e0bfef17 	ldw	r2,-68(fp)
 1011afc:	d8800115 	stw	r2,4(sp)
 1011b00:	e13fed17 	ldw	r4,-76(fp)
 1011b04:	e17fec17 	ldw	r5,-80(fp)
 1011b08:	e1bff117 	ldw	r6,-60(fp)
 1011b0c:	e1fff017 	ldw	r7,-64(fp)
 1011b10:	10117080 	call	1011708 <helper_plot_pixel>
			error = error + deltay;
 1011b14:	e0fff317 	ldw	r3,-52(fp)
 1011b18:	e13ff417 	ldw	r4,-48(fp)
 1011b1c:	1907883a 	add	r3,r3,r4
 1011b20:	e0fff315 	stw	r3,-52(fp)
			if (error > 0) {
 1011b24:	e0fff317 	ldw	r3,-52(fp)
 1011b28:	18800050 	cmplti	r2,r3,1
 1011b2c:	1000081e 	bne	r2,zero,1011b50 <alt_up_pixel_buffer_dma_draw_line+0x370>
				y = y + ystep;
 1011b30:	e13ff017 	ldw	r4,-64(fp)
 1011b34:	e0bff217 	ldw	r2,-56(fp)
 1011b38:	2089883a 	add	r4,r4,r2
 1011b3c:	e13ff015 	stw	r4,-64(fp)
				error = error - deltax;
 1011b40:	e0fff317 	ldw	r3,-52(fp)
 1011b44:	e13ff517 	ldw	r4,-44(fp)
 1011b48:	1907c83a 	sub	r3,r3,r4
 1011b4c:	e0fff315 	stw	r3,-52(fp)
			}
		}
	}
	else
	{
		for (x=x_0; x <= x_1; x++) {
 1011b50:	e0bff117 	ldw	r2,-60(fp)
 1011b54:	10800044 	addi	r2,r2,1
 1011b58:	e0bff115 	stw	r2,-60(fp)
 1011b5c:	e0fff817 	ldw	r3,-32(fp)
 1011b60:	e13ff117 	ldw	r4,-60(fp)
 1011b64:	193fe20e 	bge	r3,r4,1011af0 <alt_up_pixel_buffer_dma_draw_line+0x310>
				y = y + ystep;
				error = error - deltax;
			}
		}
	}
}
 1011b68:	e037883a 	mov	sp,fp
 1011b6c:	dfc00117 	ldw	ra,4(sp)
 1011b70:	df000017 	ldw	fp,0(sp)
 1011b74:	dec00204 	addi	sp,sp,8
 1011b78:	f800283a 	ret

01011b7c <alt_alarm_start>:
 */ 

int alt_alarm_start (alt_alarm* alarm, alt_u32 nticks,
                     alt_u32 (*callback) (void* context),
                     void* context)
{
 1011b7c:	defff404 	addi	sp,sp,-48
 1011b80:	df000b15 	stw	fp,44(sp)
 1011b84:	df000b04 	addi	fp,sp,44
 1011b88:	e13ffb15 	stw	r4,-20(fp)
 1011b8c:	e17ffc15 	stw	r5,-16(fp)
 1011b90:	e1bffd15 	stw	r6,-12(fp)
 1011b94:	e1fffe15 	stw	r7,-8(fp)
  alt_irq_context irq_context;
  alt_u32 current_nticks = 0;
 1011b98:	e03ff915 	stw	zero,-28(fp)
 1011b9c:	00804174 	movhi	r2,261
 1011ba0:	10a83504 	addi	r2,r2,-24364
 1011ba4:	10800017 	ldw	r2,0(r2)
  
  if (alt_ticks_per_second ())
 1011ba8:	1005003a 	cmpeq	r2,r2,zero
 1011bac:	1000411e 	bne	r2,zero,1011cb4 <alt_alarm_start+0x138>
  {
    if (alarm)
 1011bb0:	e0bffb17 	ldw	r2,-20(fp)
 1011bb4:	1005003a 	cmpeq	r2,r2,zero
 1011bb8:	10003b1e 	bne	r2,zero,1011ca8 <alt_alarm_start+0x12c>
    {
      alarm->callback = callback;
 1011bbc:	e0fffb17 	ldw	r3,-20(fp)
 1011bc0:	e0bffd17 	ldw	r2,-12(fp)
 1011bc4:	18800315 	stw	r2,12(r3)
      alarm->context  = context;
 1011bc8:	e0fffb17 	ldw	r3,-20(fp)
 1011bcc:	e0bffe17 	ldw	r2,-8(fp)
 1011bd0:	18800515 	stw	r2,20(r3)
static ALT_INLINE alt_irq_context ALT_ALWAYS_INLINE 
       alt_irq_disable_all (void)
{
  alt_irq_context context;

  NIOS2_READ_STATUS (context);
 1011bd4:	0005303a 	rdctl	r2,status
 1011bd8:	e0bff815 	stw	r2,-32(fp)

  NIOS2_WRITE_STATUS (context & ~NIOS2_STATUS_PIE_MSK);
 1011bdc:	e0fff817 	ldw	r3,-32(fp)
 1011be0:	00bfff84 	movi	r2,-2
 1011be4:	1884703a 	and	r2,r3,r2
 1011be8:	1001703a 	wrctl	status,r2
  
  return context;
 1011bec:	e0bff817 	ldw	r2,-32(fp)
 
      irq_context = alt_irq_disable_all ();
 1011bf0:	e0bffa15 	stw	r2,-24(fp)
 * alt_nticks() returns the elapsed number of system clock ticks since reset.
 */

static ALT_INLINE alt_u32 ALT_ALWAYS_INLINE alt_nticks (void)
{
  return _alt_nticks;
 1011bf4:	00804174 	movhi	r2,261
 1011bf8:	10a83604 	addi	r2,r2,-24360
 1011bfc:	10800017 	ldw	r2,0(r2)
      
      current_nticks = alt_nticks();
 1011c00:	e0bff915 	stw	r2,-28(fp)
      
      alarm->time = nticks + current_nticks + 1; 
 1011c04:	e0fffc17 	ldw	r3,-16(fp)
 1011c08:	e0bff917 	ldw	r2,-28(fp)
 1011c0c:	1885883a 	add	r2,r3,r2
 1011c10:	10c00044 	addi	r3,r2,1
 1011c14:	e0bffb17 	ldw	r2,-20(fp)
 1011c18:	10c00215 	stw	r3,8(r2)
      /* 
       * If the desired alarm time causes a roll-over, set the rollover
       * flag. This will prevent the subsequent tick event from causing
       * an alarm too early.
       */
      if(alarm->time < current_nticks)
 1011c1c:	e0bffb17 	ldw	r2,-20(fp)
 1011c20:	10c00217 	ldw	r3,8(r2)
 1011c24:	e0bff917 	ldw	r2,-28(fp)
 1011c28:	1880042e 	bgeu	r3,r2,1011c3c <alt_alarm_start+0xc0>
      {
        alarm->rollover = 1;
 1011c2c:	e0fffb17 	ldw	r3,-20(fp)
 1011c30:	00800044 	movi	r2,1
 1011c34:	18800405 	stb	r2,16(r3)
 1011c38:	00000206 	br	1011c44 <alt_alarm_start+0xc8>
      }
      else
      {
        alarm->rollover = 0;
 1011c3c:	e0bffb17 	ldw	r2,-20(fp)
 1011c40:	10000405 	stb	zero,16(r2)
      }
    
      alt_llist_insert (&alt_alarm_list, &alarm->llist);
 1011c44:	e0fffb17 	ldw	r3,-20(fp)
 1011c48:	00804174 	movhi	r2,261
 1011c4c:	10a16504 	addi	r2,r2,-31340
 1011c50:	e0bff615 	stw	r2,-40(fp)
 1011c54:	e0fff715 	stw	r3,-36(fp)
 */

static ALT_INLINE void ALT_ALWAYS_INLINE alt_llist_insert(alt_llist* list, 
                alt_llist* entry)
{
  entry->previous = list;
 1011c58:	e0fff717 	ldw	r3,-36(fp)
 1011c5c:	e0bff617 	ldw	r2,-40(fp)
 1011c60:	18800115 	stw	r2,4(r3)
  entry->next     = list->next;
 1011c64:	e0bff617 	ldw	r2,-40(fp)
 1011c68:	10c00017 	ldw	r3,0(r2)
 1011c6c:	e0bff717 	ldw	r2,-36(fp)
 1011c70:	10c00015 	stw	r3,0(r2)

  list->next->previous = entry;
 1011c74:	e0bff617 	ldw	r2,-40(fp)
 1011c78:	10c00017 	ldw	r3,0(r2)
 1011c7c:	e0bff717 	ldw	r2,-36(fp)
 1011c80:	18800115 	stw	r2,4(r3)
  list->next           = entry;
 1011c84:	e0fff617 	ldw	r3,-40(fp)
 1011c88:	e0bff717 	ldw	r2,-36(fp)
 1011c8c:	18800015 	stw	r2,0(r3)
 1011c90:	e0bffa17 	ldw	r2,-24(fp)
 1011c94:	e0bff515 	stw	r2,-44(fp)
  status &= ~NIOS2_STATUS_PIE_MSK;
  status |= (context & NIOS2_STATUS_PIE_MSK);
  
  NIOS2_WRITE_STATUS (status);
#else
  NIOS2_WRITE_STATUS (context);
 1011c98:	e0bff517 	ldw	r2,-44(fp)
 1011c9c:	1001703a 	wrctl	status,r2
      alt_irq_enable_all (irq_context);

      return 0;
 1011ca0:	e03fff15 	stw	zero,-4(fp)
 1011ca4:	00000506 	br	1011cbc <alt_alarm_start+0x140>
    }
    else
    {
      return -EINVAL;
 1011ca8:	00bffa84 	movi	r2,-22
 1011cac:	e0bfff15 	stw	r2,-4(fp)
 1011cb0:	00000206 	br	1011cbc <alt_alarm_start+0x140>
    }
  }
  else
  {
    return -ENOTSUP;
 1011cb4:	00bfde84 	movi	r2,-134
 1011cb8:	e0bfff15 	stw	r2,-4(fp)
 1011cbc:	e0bfff17 	ldw	r2,-4(fp)
  }
}
 1011cc0:	e037883a 	mov	sp,fp
 1011cc4:	df000017 	ldw	fp,0(sp)
 1011cc8:	dec00104 	addi	sp,sp,4
 1011ccc:	f800283a 	ret

01011cd0 <alt_dcache_flush_all>:
/*
 * alt_dcache_flush_all() is called to flush the entire data cache.
 */

void alt_dcache_flush_all (void)
{
 1011cd0:	deffff04 	addi	sp,sp,-4
 1011cd4:	df000015 	stw	fp,0(sp)
 1011cd8:	d839883a 	mov	fp,sp
  for (i = (char*) 0; i < (char*) NIOS2_DCACHE_SIZE; i+= NIOS2_DCACHE_LINE_SIZE)
  { 
    __asm__ volatile ("flushd (%0)" :: "r" (i));
  }
#endif /* NIOS2_DCACHE_SIZE > 0 */
}
 1011cdc:	e037883a 	mov	sp,fp
 1011ce0:	df000017 	ldw	fp,0(sp)
 1011ce4:	dec00104 	addi	sp,sp,4
 1011ce8:	f800283a 	ret

01011cec <alt_dev_llist_insert>:
/*
 *
 */

int alt_dev_llist_insert (alt_dev_llist* dev, alt_llist* list)
{
 1011cec:	defff904 	addi	sp,sp,-28
 1011cf0:	dfc00615 	stw	ra,24(sp)
 1011cf4:	df000515 	stw	fp,20(sp)
 1011cf8:	df000504 	addi	fp,sp,20
 1011cfc:	e13ffd15 	stw	r4,-12(fp)
 1011d00:	e17ffe15 	stw	r5,-8(fp)
  /*
   * check that the device exists, and that it has a valid name.
   */

  if (!dev || !dev->name)
 1011d04:	e0bffd17 	ldw	r2,-12(fp)
 1011d08:	1005003a 	cmpeq	r2,r2,zero
 1011d0c:	1000041e 	bne	r2,zero,1011d20 <alt_dev_llist_insert+0x34>
 1011d10:	e0bffd17 	ldw	r2,-12(fp)
 1011d14:	10800217 	ldw	r2,8(r2)
 1011d18:	1004c03a 	cmpne	r2,r2,zero
 1011d1c:	1000071e 	bne	r2,zero,1011d3c <alt_dev_llist_insert+0x50>
  {
    ALT_ERRNO = EINVAL;
 1011d20:	1011da00 	call	1011da0 <alt_get_errno>
 1011d24:	1007883a 	mov	r3,r2
 1011d28:	00800584 	movi	r2,22
 1011d2c:	18800015 	stw	r2,0(r3)
    return -EINVAL;
 1011d30:	00bffa84 	movi	r2,-22
 1011d34:	e0bfff15 	stw	r2,-4(fp)
 1011d38:	00001306 	br	1011d88 <alt_dev_llist_insert+0x9c>
  
  /*
   * register the device.
   */
  
  alt_llist_insert(list, &dev->llist);
 1011d3c:	e0fffd17 	ldw	r3,-12(fp)
 1011d40:	e0bffe17 	ldw	r2,-8(fp)
 1011d44:	e0bffb15 	stw	r2,-20(fp)
 1011d48:	e0fffc15 	stw	r3,-16(fp)
 */

static ALT_INLINE void ALT_ALWAYS_INLINE alt_llist_insert(alt_llist* list, 
                alt_llist* entry)
{
  entry->previous = list;
 1011d4c:	e0fffc17 	ldw	r3,-16(fp)
 1011d50:	e0bffb17 	ldw	r2,-20(fp)
 1011d54:	18800115 	stw	r2,4(r3)
  entry->next     = list->next;
 1011d58:	e0bffb17 	ldw	r2,-20(fp)
 1011d5c:	10c00017 	ldw	r3,0(r2)
 1011d60:	e0bffc17 	ldw	r2,-16(fp)
 1011d64:	10c00015 	stw	r3,0(r2)

  list->next->previous = entry;
 1011d68:	e0bffb17 	ldw	r2,-20(fp)
 1011d6c:	10c00017 	ldw	r3,0(r2)
 1011d70:	e0bffc17 	ldw	r2,-16(fp)
 1011d74:	18800115 	stw	r2,4(r3)
  list->next           = entry;
 1011d78:	e0fffb17 	ldw	r3,-20(fp)
 1011d7c:	e0bffc17 	ldw	r2,-16(fp)
 1011d80:	18800015 	stw	r2,0(r3)

  return 0;  
 1011d84:	e03fff15 	stw	zero,-4(fp)
 1011d88:	e0bfff17 	ldw	r2,-4(fp)
}
 1011d8c:	e037883a 	mov	sp,fp
 1011d90:	dfc00117 	ldw	ra,4(sp)
 1011d94:	df000017 	ldw	fp,0(sp)
 1011d98:	dec00204 	addi	sp,sp,8
 1011d9c:	f800283a 	ret

01011da0 <alt_get_errno>:
#undef errno

extern int errno;

static ALT_INLINE int* alt_get_errno(void)
{
 1011da0:	defffd04 	addi	sp,sp,-12
 1011da4:	dfc00215 	stw	ra,8(sp)
 1011da8:	df000115 	stw	fp,4(sp)
 1011dac:	df000104 	addi	fp,sp,4
  return ((alt_errno) ? alt_errno() : &errno);
 1011db0:	00804174 	movhi	r2,261
 1011db4:	10a16304 	addi	r2,r2,-31348
 1011db8:	10800017 	ldw	r2,0(r2)
 1011dbc:	1005003a 	cmpeq	r2,r2,zero
 1011dc0:	1000061e 	bne	r2,zero,1011ddc <alt_get_errno+0x3c>
 1011dc4:	00804174 	movhi	r2,261
 1011dc8:	10a16304 	addi	r2,r2,-31348
 1011dcc:	10800017 	ldw	r2,0(r2)
 1011dd0:	103ee83a 	callr	r2
 1011dd4:	e0bfff15 	stw	r2,-4(fp)
 1011dd8:	00000306 	br	1011de8 <alt_get_errno+0x48>
 1011ddc:	00804174 	movhi	r2,261
 1011de0:	10a82a04 	addi	r2,r2,-24408
 1011de4:	e0bfff15 	stw	r2,-4(fp)
 1011de8:	e0bfff17 	ldw	r2,-4(fp)
}
 1011dec:	e037883a 	mov	sp,fp
 1011df0:	dfc00117 	ldw	ra,4(sp)
 1011df4:	df000017 	ldw	fp,0(sp)
 1011df8:	dec00204 	addi	sp,sp,8
 1011dfc:	f800283a 	ret

01011e00 <_do_ctors>:
/*
 * Run the C++ static constructors.
 */

void _do_ctors(void)
{
 1011e00:	defffd04 	addi	sp,sp,-12
 1011e04:	dfc00215 	stw	ra,8(sp)
 1011e08:	df000115 	stw	fp,4(sp)
 1011e0c:	df000104 	addi	fp,sp,4
  constructor* ctor;

  for (ctor = &__CTOR_END__[-1]; ctor >= __CTOR_LIST__; ctor--)
 1011e10:	00bfff04 	movi	r2,-4
 1011e14:	00c04074 	movhi	r3,257
 1011e18:	18cb2504 	addi	r3,r3,11412
 1011e1c:	1885883a 	add	r2,r3,r2
 1011e20:	e0bfff15 	stw	r2,-4(fp)
 1011e24:	00000606 	br	1011e40 <_do_ctors+0x40>
        (*ctor) (); 
 1011e28:	e0bfff17 	ldw	r2,-4(fp)
 1011e2c:	10800017 	ldw	r2,0(r2)
 1011e30:	103ee83a 	callr	r2

void _do_ctors(void)
{
  constructor* ctor;

  for (ctor = &__CTOR_END__[-1]; ctor >= __CTOR_LIST__; ctor--)
 1011e34:	e0bfff17 	ldw	r2,-4(fp)
 1011e38:	10bfff04 	addi	r2,r2,-4
 1011e3c:	e0bfff15 	stw	r2,-4(fp)
 1011e40:	e0ffff17 	ldw	r3,-4(fp)
 1011e44:	00804074 	movhi	r2,257
 1011e48:	108b2404 	addi	r2,r2,11408
 1011e4c:	18bff62e 	bgeu	r3,r2,1011e28 <_do_ctors+0x28>
        (*ctor) (); 
}
 1011e50:	e037883a 	mov	sp,fp
 1011e54:	dfc00117 	ldw	ra,4(sp)
 1011e58:	df000017 	ldw	fp,0(sp)
 1011e5c:	dec00204 	addi	sp,sp,8
 1011e60:	f800283a 	ret

01011e64 <_do_dtors>:
/*
 * Run the C++ static destructors.
 */

void _do_dtors(void)
{
 1011e64:	defffd04 	addi	sp,sp,-12
 1011e68:	dfc00215 	stw	ra,8(sp)
 1011e6c:	df000115 	stw	fp,4(sp)
 1011e70:	df000104 	addi	fp,sp,4
  destructor* dtor;

  for (dtor = &__DTOR_END__[-1]; dtor >= __DTOR_LIST__; dtor--)
 1011e74:	00bfff04 	movi	r2,-4
 1011e78:	00c04074 	movhi	r3,257
 1011e7c:	18cb2504 	addi	r3,r3,11412
 1011e80:	1885883a 	add	r2,r3,r2
 1011e84:	e0bfff15 	stw	r2,-4(fp)
 1011e88:	00000606 	br	1011ea4 <_do_dtors+0x40>
        (*dtor) (); 
 1011e8c:	e0bfff17 	ldw	r2,-4(fp)
 1011e90:	10800017 	ldw	r2,0(r2)
 1011e94:	103ee83a 	callr	r2

void _do_dtors(void)
{
  destructor* dtor;

  for (dtor = &__DTOR_END__[-1]; dtor >= __DTOR_LIST__; dtor--)
 1011e98:	e0bfff17 	ldw	r2,-4(fp)
 1011e9c:	10bfff04 	addi	r2,r2,-4
 1011ea0:	e0bfff15 	stw	r2,-4(fp)
 1011ea4:	e0ffff17 	ldw	r3,-4(fp)
 1011ea8:	00804074 	movhi	r2,257
 1011eac:	108b2504 	addi	r2,r2,11412
 1011eb0:	18bff62e 	bgeu	r3,r2,1011e8c <_do_dtors+0x28>
        (*dtor) (); 
}
 1011eb4:	e037883a 	mov	sp,fp
 1011eb8:	dfc00117 	ldw	ra,4(sp)
 1011ebc:	df000017 	ldw	fp,0(sp)
 1011ec0:	dec00204 	addi	sp,sp,8
 1011ec4:	f800283a 	ret

01011ec8 <alt_find_dev>:
 * "name" must be an exact match for the devices registered name for a match to
 * be found.
 */
 
alt_dev* alt_find_dev(const char* name, alt_llist* llist)
{
 1011ec8:	defff904 	addi	sp,sp,-28
 1011ecc:	dfc00615 	stw	ra,24(sp)
 1011ed0:	df000515 	stw	fp,20(sp)
 1011ed4:	df000504 	addi	fp,sp,20
 1011ed8:	e13ffd15 	stw	r4,-12(fp)
 1011edc:	e17ffe15 	stw	r5,-8(fp)
  alt_dev* next = (alt_dev*) llist->next;
 1011ee0:	e0bffe17 	ldw	r2,-8(fp)
 1011ee4:	10800017 	ldw	r2,0(r2)
 1011ee8:	e0bffc15 	stw	r2,-16(fp)
  alt_32 len;

  len  = strlen(name) + 1;
 1011eec:	e13ffd17 	ldw	r4,-12(fp)
 1011ef0:	1006ae40 	call	1006ae4 <strlen>
 1011ef4:	10800044 	addi	r2,r2,1
 1011ef8:	e0bffb15 	stw	r2,-20(fp)
  /*
   * Check each list entry in turn, until a match is found, or we reach the
   * end of the list (i.e. next winds up pointing back to the list head).
   */ 

  while (next != (alt_dev*) llist)
 1011efc:	00000d06 	br	1011f34 <alt_find_dev+0x6c>
    /* 
     * memcmp() is used here rather than strcmp() in order to reduce the size
     * of the executable.
     */

    if (!memcmp (next->name, name, len))
 1011f00:	e0bffc17 	ldw	r2,-16(fp)
 1011f04:	11000217 	ldw	r4,8(r2)
 1011f08:	e1bffb17 	ldw	r6,-20(fp)
 1011f0c:	e17ffd17 	ldw	r5,-12(fp)
 1011f10:	10128d40 	call	10128d4 <memcmp>
 1011f14:	1004c03a 	cmpne	r2,r2,zero
 1011f18:	1000031e 	bne	r2,zero,1011f28 <alt_find_dev+0x60>
    {
      /* match found */

      return next;
 1011f1c:	e0bffc17 	ldw	r2,-16(fp)
 1011f20:	e0bfff15 	stw	r2,-4(fp)
 1011f24:	00000706 	br	1011f44 <alt_find_dev+0x7c>
    }
    next = (alt_dev*) next->llist.next;
 1011f28:	e0bffc17 	ldw	r2,-16(fp)
 1011f2c:	10800017 	ldw	r2,0(r2)
 1011f30:	e0bffc15 	stw	r2,-16(fp)
  /*
   * Check each list entry in turn, until a match is found, or we reach the
   * end of the list (i.e. next winds up pointing back to the list head).
   */ 

  while (next != (alt_dev*) llist)
 1011f34:	e0fffe17 	ldw	r3,-8(fp)
 1011f38:	e0bffc17 	ldw	r2,-16(fp)
 1011f3c:	10fff01e 	bne	r2,r3,1011f00 <alt_find_dev+0x38>
    next = (alt_dev*) next->llist.next;
  }
  
  /* No match found */
  
  return NULL;
 1011f40:	e03fff15 	stw	zero,-4(fp)
 1011f44:	e0bfff17 	ldw	r2,-4(fp)
}
 1011f48:	e037883a 	mov	sp,fp
 1011f4c:	dfc00117 	ldw	ra,4(sp)
 1011f50:	df000017 	ldw	fp,0(sp)
 1011f54:	dec00204 	addi	sp,sp,8
 1011f58:	f800283a 	ret

01011f5c <alt_icache_flush_all>:
/*
 * alt_icache_flush_all() is called to flush the entire instruction cache.
 */

void alt_icache_flush_all (void)
{
 1011f5c:	deffff04 	addi	sp,sp,-4
 1011f60:	df000015 	stw	fp,0(sp)
 1011f64:	d839883a 	mov	fp,sp
#if NIOS2_ICACHE_SIZE > 0
  alt_icache_flush (0, NIOS2_ICACHE_SIZE);
#endif
}
 1011f68:	e037883a 	mov	sp,fp
 1011f6c:	df000017 	ldw	fp,0(sp)
 1011f70:	dec00104 	addi	sp,sp,4
 1011f74:	f800283a 	ret

01011f78 <alt_ic_isr_register>:
  * @param irq              IRQ number
  * @return                 0 if successful, else error (-1)
  */
int alt_ic_isr_register(alt_u32 ic_id, alt_u32 irq, alt_isr_func isr, 
  void *isr_context, void *flags)
{
 1011f78:	defff904 	addi	sp,sp,-28
 1011f7c:	dfc00615 	stw	ra,24(sp)
 1011f80:	df000515 	stw	fp,20(sp)
 1011f84:	df000504 	addi	fp,sp,20
 1011f88:	e13ffc15 	stw	r4,-16(fp)
 1011f8c:	e17ffd15 	stw	r5,-12(fp)
 1011f90:	e1bffe15 	stw	r6,-8(fp)
 1011f94:	e1ffff15 	stw	r7,-4(fp)
    return alt_iic_isr_register(ic_id, irq, isr, isr_context, flags);
 1011f98:	e0800217 	ldw	r2,8(fp)
 1011f9c:	d8800015 	stw	r2,0(sp)
 1011fa0:	e13ffc17 	ldw	r4,-16(fp)
 1011fa4:	e17ffd17 	ldw	r5,-12(fp)
 1011fa8:	e1bffe17 	ldw	r6,-8(fp)
 1011fac:	e1ffff17 	ldw	r7,-4(fp)
 1011fb0:	101214c0 	call	101214c <alt_iic_isr_register>
}  
 1011fb4:	e037883a 	mov	sp,fp
 1011fb8:	dfc00117 	ldw	ra,4(sp)
 1011fbc:	df000017 	ldw	fp,0(sp)
 1011fc0:	dec00204 	addi	sp,sp,8
 1011fc4:	f800283a 	ret

01011fc8 <alt_ic_irq_enable>:
  * @param ic_id            Ignored.
  * @param irq              IRQ number
  * @return                 0 if successful, else error (-1)
  */
int alt_ic_irq_enable (alt_u32 ic_id, alt_u32 irq)
{
 1011fc8:	defff904 	addi	sp,sp,-28
 1011fcc:	df000615 	stw	fp,24(sp)
 1011fd0:	df000604 	addi	fp,sp,24
 1011fd4:	e13ffe15 	stw	r4,-8(fp)
 1011fd8:	e17fff15 	stw	r5,-4(fp)
 1011fdc:	e0bfff17 	ldw	r2,-4(fp)
 1011fe0:	e0bffc15 	stw	r2,-16(fp)
static ALT_INLINE alt_irq_context ALT_ALWAYS_INLINE 
       alt_irq_disable_all (void)
{
  alt_irq_context context;

  NIOS2_READ_STATUS (context);
 1011fe4:	0005303a 	rdctl	r2,status
 1011fe8:	e0bffb15 	stw	r2,-20(fp)

  NIOS2_WRITE_STATUS (context & ~NIOS2_STATUS_PIE_MSK);
 1011fec:	e0fffb17 	ldw	r3,-20(fp)
 1011ff0:	00bfff84 	movi	r2,-2
 1011ff4:	1884703a 	and	r2,r3,r2
 1011ff8:	1001703a 	wrctl	status,r2
  
  return context;
 1011ffc:	e0bffb17 	ldw	r2,-20(fp)
static ALT_INLINE int ALT_ALWAYS_INLINE alt_irq_enable (alt_u32 id)
{
  alt_irq_context  status;
  extern volatile alt_u32 alt_irq_active;

  status = alt_irq_disable_all ();
 1012000:	e0bffd15 	stw	r2,-12(fp)

  alt_irq_active |= (1 << id);
 1012004:	e0fffc17 	ldw	r3,-16(fp)
 1012008:	00800044 	movi	r2,1
 101200c:	10c4983a 	sll	r2,r2,r3
 1012010:	1007883a 	mov	r3,r2
 1012014:	00804174 	movhi	r2,261
 1012018:	10a83704 	addi	r2,r2,-24356
 101201c:	10800017 	ldw	r2,0(r2)
 1012020:	1886b03a 	or	r3,r3,r2
 1012024:	00804174 	movhi	r2,261
 1012028:	10a83704 	addi	r2,r2,-24356
 101202c:	10c00015 	stw	r3,0(r2)
  NIOS2_WRITE_IENABLE (alt_irq_active);
 1012030:	00804174 	movhi	r2,261
 1012034:	10a83704 	addi	r2,r2,-24356
 1012038:	10800017 	ldw	r2,0(r2)
 101203c:	100170fa 	wrctl	ienable,r2
 1012040:	e0bffd17 	ldw	r2,-12(fp)
 1012044:	e0bffa15 	stw	r2,-24(fp)
  status &= ~NIOS2_STATUS_PIE_MSK;
  status |= (context & NIOS2_STATUS_PIE_MSK);
  
  NIOS2_WRITE_STATUS (status);
#else
  NIOS2_WRITE_STATUS (context);
 1012048:	e0bffa17 	ldw	r2,-24(fp)
 101204c:	1001703a 	wrctl	status,r2

  alt_irq_enable_all(status);

  return 0;
 1012050:	0005883a 	mov	r2,zero
    return alt_irq_enable(irq);
}
 1012054:	e037883a 	mov	sp,fp
 1012058:	df000017 	ldw	fp,0(sp)
 101205c:	dec00104 	addi	sp,sp,4
 1012060:	f800283a 	ret

01012064 <alt_ic_irq_disable>:
  * @param ic_id            Ignored.
  * @param irq              IRQ number
  * @return                 0 if successful, else error (-1)
  */
int alt_ic_irq_disable(alt_u32 ic_id, alt_u32 irq)
{
 1012064:	defff904 	addi	sp,sp,-28
 1012068:	df000615 	stw	fp,24(sp)
 101206c:	df000604 	addi	fp,sp,24
 1012070:	e13ffe15 	stw	r4,-8(fp)
 1012074:	e17fff15 	stw	r5,-4(fp)
 1012078:	e0bfff17 	ldw	r2,-4(fp)
 101207c:	e0bffc15 	stw	r2,-16(fp)
static ALT_INLINE alt_irq_context ALT_ALWAYS_INLINE 
       alt_irq_disable_all (void)
{
  alt_irq_context context;

  NIOS2_READ_STATUS (context);
 1012080:	0005303a 	rdctl	r2,status
 1012084:	e0bffb15 	stw	r2,-20(fp)

  NIOS2_WRITE_STATUS (context & ~NIOS2_STATUS_PIE_MSK);
 1012088:	e0fffb17 	ldw	r3,-20(fp)
 101208c:	00bfff84 	movi	r2,-2
 1012090:	1884703a 	and	r2,r3,r2
 1012094:	1001703a 	wrctl	status,r2
  
  return context;
 1012098:	e0bffb17 	ldw	r2,-20(fp)
static ALT_INLINE int ALT_ALWAYS_INLINE alt_irq_disable (alt_u32 id)
{
  alt_irq_context  status;
  extern volatile alt_u32 alt_irq_active;

  status = alt_irq_disable_all ();
 101209c:	e0bffd15 	stw	r2,-12(fp)

  alt_irq_active &= ~(1 << id);
 10120a0:	e0fffc17 	ldw	r3,-16(fp)
 10120a4:	00800044 	movi	r2,1
 10120a8:	10c4983a 	sll	r2,r2,r3
 10120ac:	0084303a 	nor	r2,zero,r2
 10120b0:	1007883a 	mov	r3,r2
 10120b4:	00804174 	movhi	r2,261
 10120b8:	10a83704 	addi	r2,r2,-24356
 10120bc:	10800017 	ldw	r2,0(r2)
 10120c0:	1886703a 	and	r3,r3,r2
 10120c4:	00804174 	movhi	r2,261
 10120c8:	10a83704 	addi	r2,r2,-24356
 10120cc:	10c00015 	stw	r3,0(r2)
  NIOS2_WRITE_IENABLE (alt_irq_active);
 10120d0:	00804174 	movhi	r2,261
 10120d4:	10a83704 	addi	r2,r2,-24356
 10120d8:	10800017 	ldw	r2,0(r2)
 10120dc:	100170fa 	wrctl	ienable,r2
 10120e0:	e0bffd17 	ldw	r2,-12(fp)
 10120e4:	e0bffa15 	stw	r2,-24(fp)
  status &= ~NIOS2_STATUS_PIE_MSK;
  status |= (context & NIOS2_STATUS_PIE_MSK);
  
  NIOS2_WRITE_STATUS (status);
#else
  NIOS2_WRITE_STATUS (context);
 10120e8:	e0bffa17 	ldw	r2,-24(fp)
 10120ec:	1001703a 	wrctl	status,r2

  alt_irq_enable_all(status);

  return 0;
 10120f0:	0005883a 	mov	r2,zero
    return alt_irq_disable(irq);
}
 10120f4:	e037883a 	mov	sp,fp
 10120f8:	df000017 	ldw	fp,0(sp)
 10120fc:	dec00104 	addi	sp,sp,4
 1012100:	f800283a 	ret

01012104 <alt_ic_irq_enabled>:
  * @param irq              IRQ number
  * @return                 Zero if corresponding interrupt is disabled and
  *                         non-zero otherwise.
  */
alt_u32 alt_ic_irq_enabled(alt_u32 ic_id, alt_u32 irq)
{
 1012104:	defffc04 	addi	sp,sp,-16
 1012108:	df000315 	stw	fp,12(sp)
 101210c:	df000304 	addi	fp,sp,12
 1012110:	e13ffe15 	stw	r4,-8(fp)
 1012114:	e17fff15 	stw	r5,-4(fp)
    alt_u32 irq_enabled;

    NIOS2_READ_IENABLE(irq_enabled);
 1012118:	000530fa 	rdctl	r2,ienable
 101211c:	e0bffd15 	stw	r2,-12(fp)

    return (irq_enabled & (1 << irq)) ? 1: 0;
 1012120:	e0ffff17 	ldw	r3,-4(fp)
 1012124:	00800044 	movi	r2,1
 1012128:	10c4983a 	sll	r2,r2,r3
 101212c:	1007883a 	mov	r3,r2
 1012130:	e0bffd17 	ldw	r2,-12(fp)
 1012134:	1884703a 	and	r2,r3,r2
 1012138:	1004c03a 	cmpne	r2,r2,zero
}
 101213c:	e037883a 	mov	sp,fp
 1012140:	df000017 	ldw	fp,0(sp)
 1012144:	dec00104 	addi	sp,sp,4
 1012148:	f800283a 	ret

0101214c <alt_iic_isr_register>:
  * @param flags            
  * @return                 0 if successful, else error (-1)
  */
int alt_iic_isr_register(alt_u32 ic_id, alt_u32 irq, alt_isr_func isr, 
  void *isr_context, void *flags)
{
 101214c:	defff404 	addi	sp,sp,-48
 1012150:	dfc00b15 	stw	ra,44(sp)
 1012154:	df000a15 	stw	fp,40(sp)
 1012158:	df000a04 	addi	fp,sp,40
 101215c:	e13ffb15 	stw	r4,-20(fp)
 1012160:	e17ffc15 	stw	r5,-16(fp)
 1012164:	e1bffd15 	stw	r6,-12(fp)
 1012168:	e1fffe15 	stw	r7,-8(fp)
  int rc = -EINVAL;  
 101216c:	00bffa84 	movi	r2,-22
 1012170:	e0bffa15 	stw	r2,-24(fp)
  int id = irq;             /* IRQ interpreted as the interrupt ID. */
 1012174:	e0bffc17 	ldw	r2,-16(fp)
 1012178:	e0bff915 	stw	r2,-28(fp)
  alt_irq_context status;

  if (id < ALT_NIRQ)
 101217c:	e0bff917 	ldw	r2,-28(fp)
 1012180:	10800808 	cmpgei	r2,r2,32
 1012184:	1000291e 	bne	r2,zero,101222c <alt_iic_isr_register+0xe0>
static ALT_INLINE alt_irq_context ALT_ALWAYS_INLINE 
       alt_irq_disable_all (void)
{
  alt_irq_context context;

  NIOS2_READ_STATUS (context);
 1012188:	0005303a 	rdctl	r2,status
 101218c:	e0bff715 	stw	r2,-36(fp)

  NIOS2_WRITE_STATUS (context & ~NIOS2_STATUS_PIE_MSK);
 1012190:	e0fff717 	ldw	r3,-36(fp)
 1012194:	00bfff84 	movi	r2,-2
 1012198:	1884703a 	and	r2,r3,r2
 101219c:	1001703a 	wrctl	status,r2
  
  return context;
 10121a0:	e0bff717 	ldw	r2,-36(fp)
     * interrupts are disabled while the handler tables are updated to ensure
     * that an interrupt doesn't occur while the tables are in an inconsistant
     * state.
     */

    status = alt_irq_disable_all();
 10121a4:	e0bff815 	stw	r2,-32(fp)

    alt_irq[id].handler = isr;
 10121a8:	e0bff917 	ldw	r2,-28(fp)
 10121ac:	00c04174 	movhi	r3,261
 10121b0:	18e84204 	addi	r3,r3,-24312
 10121b4:	100490fa 	slli	r2,r2,3
 10121b8:	10c7883a 	add	r3,r2,r3
 10121bc:	e0bffd17 	ldw	r2,-12(fp)
 10121c0:	18800015 	stw	r2,0(r3)
    alt_irq[id].context = isr_context;
 10121c4:	e0bff917 	ldw	r2,-28(fp)
 10121c8:	00c04174 	movhi	r3,261
 10121cc:	18e84204 	addi	r3,r3,-24312
 10121d0:	100490fa 	slli	r2,r2,3
 10121d4:	10c5883a 	add	r2,r2,r3
 10121d8:	10c00104 	addi	r3,r2,4
 10121dc:	e0bffe17 	ldw	r2,-8(fp)
 10121e0:	18800015 	stw	r2,0(r3)

    rc = (isr) ? alt_ic_irq_enable(ic_id, id) : alt_ic_irq_disable(ic_id, id);
 10121e4:	e0bffd17 	ldw	r2,-12(fp)
 10121e8:	1005003a 	cmpeq	r2,r2,zero
 10121ec:	1000051e 	bne	r2,zero,1012204 <alt_iic_isr_register+0xb8>
 10121f0:	e17ff917 	ldw	r5,-28(fp)
 10121f4:	e13ffb17 	ldw	r4,-20(fp)
 10121f8:	1011fc80 	call	1011fc8 <alt_ic_irq_enable>
 10121fc:	e0bfff15 	stw	r2,-4(fp)
 1012200:	00000406 	br	1012214 <alt_iic_isr_register+0xc8>
 1012204:	e17ff917 	ldw	r5,-28(fp)
 1012208:	e13ffb17 	ldw	r4,-20(fp)
 101220c:	10120640 	call	1012064 <alt_ic_irq_disable>
 1012210:	e0bfff15 	stw	r2,-4(fp)
 1012214:	e0bfff17 	ldw	r2,-4(fp)
 1012218:	e0bffa15 	stw	r2,-24(fp)
 101221c:	e0bff817 	ldw	r2,-32(fp)
 1012220:	e0bff615 	stw	r2,-40(fp)
  status &= ~NIOS2_STATUS_PIE_MSK;
  status |= (context & NIOS2_STATUS_PIE_MSK);
  
  NIOS2_WRITE_STATUS (status);
#else
  NIOS2_WRITE_STATUS (context);
 1012224:	e0bff617 	ldw	r2,-40(fp)
 1012228:	1001703a 	wrctl	status,r2

    alt_irq_enable_all(status);
  }

  return rc; 
 101222c:	e0bffa17 	ldw	r2,-24(fp)
}
 1012230:	e037883a 	mov	sp,fp
 1012234:	dfc00117 	ldw	ra,4(sp)
 1012238:	df000017 	ldw	fp,0(sp)
 101223c:	dec00204 	addi	sp,sp,8
 1012240:	f800283a 	ret

01012244 <alt_open_fd>:
 * If the device can not be succesfully opened, then the input file descriptor
 * remains unchanged.
 */

static void alt_open_fd(alt_fd* fd, const char* name, int flags, int mode)
{
 1012244:	defff804 	addi	sp,sp,-32
 1012248:	dfc00715 	stw	ra,28(sp)
 101224c:	df000615 	stw	fp,24(sp)
 1012250:	dc000515 	stw	r16,20(sp)
 1012254:	df000504 	addi	fp,sp,20
 1012258:	e13ffc15 	stw	r4,-16(fp)
 101225c:	e17ffd15 	stw	r5,-12(fp)
 1012260:	e1bffe15 	stw	r6,-8(fp)
 1012264:	e1ffff15 	stw	r7,-4(fp)
  int old;

  old = open (name, flags, mode);
 1012268:	e13ffd17 	ldw	r4,-12(fp)
 101226c:	e17ffe17 	ldw	r5,-8(fp)
 1012270:	e1bfff17 	ldw	r6,-4(fp)
 1012274:	101248c0 	call	101248c <open>
 1012278:	e0bffb15 	stw	r2,-20(fp)

  if (old >= 0)
 101227c:	e0bffb17 	ldw	r2,-20(fp)
 1012280:	1004803a 	cmplt	r2,r2,zero
 1012284:	10001f1e 	bne	r2,zero,1012304 <alt_open_fd+0xc0>
  {
    fd->dev      = alt_fd_list[old].dev;
 1012288:	e13ffb17 	ldw	r4,-20(fp)
 101228c:	04004134 	movhi	r16,260
 1012290:	841cb904 	addi	r16,r16,29412
 1012294:	01400304 	movi	r5,12
 1012298:	1005a5c0 	call	1005a5c <__mulsi3>
 101229c:	1405883a 	add	r2,r2,r16
 10122a0:	10c00017 	ldw	r3,0(r2)
 10122a4:	e0bffc17 	ldw	r2,-16(fp)
 10122a8:	10c00015 	stw	r3,0(r2)
    fd->priv     = alt_fd_list[old].priv;
 10122ac:	e13ffb17 	ldw	r4,-20(fp)
 10122b0:	04004134 	movhi	r16,260
 10122b4:	841cb904 	addi	r16,r16,29412
 10122b8:	01400304 	movi	r5,12
 10122bc:	1005a5c0 	call	1005a5c <__mulsi3>
 10122c0:	1405883a 	add	r2,r2,r16
 10122c4:	10800104 	addi	r2,r2,4
 10122c8:	10c00017 	ldw	r3,0(r2)
 10122cc:	e0bffc17 	ldw	r2,-16(fp)
 10122d0:	10c00115 	stw	r3,4(r2)
    fd->fd_flags = alt_fd_list[old].fd_flags;
 10122d4:	e13ffb17 	ldw	r4,-20(fp)
 10122d8:	04004134 	movhi	r16,260
 10122dc:	841cb904 	addi	r16,r16,29412
 10122e0:	01400304 	movi	r5,12
 10122e4:	1005a5c0 	call	1005a5c <__mulsi3>
 10122e8:	1405883a 	add	r2,r2,r16
 10122ec:	10800204 	addi	r2,r2,8
 10122f0:	10c00017 	ldw	r3,0(r2)
 10122f4:	e0bffc17 	ldw	r2,-16(fp)
 10122f8:	10c00215 	stw	r3,8(r2)

    alt_release_fd (old);
 10122fc:	e13ffb17 	ldw	r4,-20(fp)
 1012300:	100f06c0 	call	100f06c <alt_release_fd>
  }
} 
 1012304:	e037883a 	mov	sp,fp
 1012308:	dfc00217 	ldw	ra,8(sp)
 101230c:	df000117 	ldw	fp,4(sp)
 1012310:	dc000017 	ldw	r16,0(sp)
 1012314:	dec00304 	addi	sp,sp,12
 1012318:	f800283a 	ret

0101231c <alt_io_redirect>:
 */
 
void alt_io_redirect(const char* stdout_dev, 
                     const char* stdin_dev, 
                     const char* stderr_dev)
{
 101231c:	defffb04 	addi	sp,sp,-20
 1012320:	dfc00415 	stw	ra,16(sp)
 1012324:	df000315 	stw	fp,12(sp)
 1012328:	df000304 	addi	fp,sp,12
 101232c:	e13ffd15 	stw	r4,-12(fp)
 1012330:	e17ffe15 	stw	r5,-8(fp)
 1012334:	e1bfff15 	stw	r6,-4(fp)
  /* Redirect the channels */

  alt_open_fd (&alt_fd_list[STDOUT_FILENO], stdout_dev, O_WRONLY, 0777);
 1012338:	01004134 	movhi	r4,260
 101233c:	211cbc04 	addi	r4,r4,29424
 1012340:	e17ffd17 	ldw	r5,-12(fp)
 1012344:	01800044 	movi	r6,1
 1012348:	01c07fc4 	movi	r7,511
 101234c:	10122440 	call	1012244 <alt_open_fd>
  alt_open_fd (&alt_fd_list[STDIN_FILENO], stdin_dev, O_RDONLY, 0777);
 1012350:	01004134 	movhi	r4,260
 1012354:	211cb904 	addi	r4,r4,29412
 1012358:	e17ffe17 	ldw	r5,-8(fp)
 101235c:	000d883a 	mov	r6,zero
 1012360:	01c07fc4 	movi	r7,511
 1012364:	10122440 	call	1012244 <alt_open_fd>
  alt_open_fd (&alt_fd_list[STDERR_FILENO], stderr_dev, O_WRONLY, 0777);
 1012368:	01004134 	movhi	r4,260
 101236c:	211cbf04 	addi	r4,r4,29436
 1012370:	e17fff17 	ldw	r5,-4(fp)
 1012374:	01800044 	movi	r6,1
 1012378:	01c07fc4 	movi	r7,511
 101237c:	10122440 	call	1012244 <alt_open_fd>
}  
 1012380:	e037883a 	mov	sp,fp
 1012384:	dfc00117 	ldw	ra,4(sp)
 1012388:	df000017 	ldw	fp,0(sp)
 101238c:	dec00204 	addi	sp,sp,8
 1012390:	f800283a 	ret

01012394 <alt_file_locked>:
 * performed for devices. Filesystems are required to handle the ioctl() call
 * themselves, and report the error from the filesystems open() function. 
 */ 

static int alt_file_locked (alt_fd* fd)
{
 1012394:	defffa04 	addi	sp,sp,-24
 1012398:	dfc00515 	stw	ra,20(sp)
 101239c:	df000415 	stw	fp,16(sp)
 10123a0:	dc000315 	stw	r16,12(sp)
 10123a4:	df000304 	addi	fp,sp,12
 10123a8:	e13ffe15 	stw	r4,-8(fp)

  /*
   * Mark the file descriptor as belonging to a device.
   */

  fd->fd_flags |= ALT_FD_DEV;
 10123ac:	e0bffe17 	ldw	r2,-8(fp)
 10123b0:	10800217 	ldw	r2,8(r2)
 10123b4:	10d00034 	orhi	r3,r2,16384
 10123b8:	e0bffe17 	ldw	r2,-8(fp)
 10123bc:	10c00215 	stw	r3,8(r2)
  /*
   * Loop through all current file descriptors searching for one that's locked
   * for exclusive access. If a match is found, generate an error.
   */

  for (i = 0; i <= alt_max_fd; i++)
 10123c0:	e03ffd15 	stw	zero,-12(fp)
 10123c4:	00002306 	br	1012454 <alt_file_locked+0xc0>
  {
    if ((alt_fd_list[i].dev == fd->dev) &&
 10123c8:	e13ffd17 	ldw	r4,-12(fp)
 10123cc:	04004134 	movhi	r16,260
 10123d0:	841cb904 	addi	r16,r16,29412
 10123d4:	01400304 	movi	r5,12
 10123d8:	1005a5c0 	call	1005a5c <__mulsi3>
 10123dc:	1405883a 	add	r2,r2,r16
 10123e0:	10c00017 	ldw	r3,0(r2)
 10123e4:	e0bffe17 	ldw	r2,-8(fp)
 10123e8:	10800017 	ldw	r2,0(r2)
 10123ec:	1880161e 	bne	r3,r2,1012448 <alt_file_locked+0xb4>
 10123f0:	e13ffd17 	ldw	r4,-12(fp)
 10123f4:	04004134 	movhi	r16,260
 10123f8:	841cb904 	addi	r16,r16,29412
 10123fc:	01400304 	movi	r5,12
 1012400:	1005a5c0 	call	1005a5c <__mulsi3>
 1012404:	1405883a 	add	r2,r2,r16
 1012408:	10800204 	addi	r2,r2,8
 101240c:	10800017 	ldw	r2,0(r2)
 1012410:	1004403a 	cmpge	r2,r2,zero
 1012414:	10000c1e 	bne	r2,zero,1012448 <alt_file_locked+0xb4>
 1012418:	e13ffd17 	ldw	r4,-12(fp)
 101241c:	01400304 	movi	r5,12
 1012420:	1005a5c0 	call	1005a5c <__mulsi3>
 1012424:	1007883a 	mov	r3,r2
 1012428:	00804134 	movhi	r2,260
 101242c:	109cb904 	addi	r2,r2,29412
 1012430:	1887883a 	add	r3,r3,r2
 1012434:	e0bffe17 	ldw	r2,-8(fp)
 1012438:	18800326 	beq	r3,r2,1012448 <alt_file_locked+0xb4>
        (alt_fd_list[i].fd_flags & ALT_FD_EXCL) &&
        (&alt_fd_list[i] != fd))
    {
      return -EACCES;
 101243c:	00bffcc4 	movi	r2,-13
 1012440:	e0bfff15 	stw	r2,-4(fp)
 1012444:	00000a06 	br	1012470 <alt_file_locked+0xdc>
  /*
   * Loop through all current file descriptors searching for one that's locked
   * for exclusive access. If a match is found, generate an error.
   */

  for (i = 0; i <= alt_max_fd; i++)
 1012448:	e0bffd17 	ldw	r2,-12(fp)
 101244c:	10800044 	addi	r2,r2,1
 1012450:	e0bffd15 	stw	r2,-12(fp)
 1012454:	00804174 	movhi	r2,261
 1012458:	10a16204 	addi	r2,r2,-31352
 101245c:	10800017 	ldw	r2,0(r2)
 1012460:	1007883a 	mov	r3,r2
 1012464:	e0bffd17 	ldw	r2,-12(fp)
 1012468:	18bfd72e 	bgeu	r3,r2,10123c8 <alt_file_locked+0x34>
    }
  }
  
  /* The device is not locked */
 
  return 0;
 101246c:	e03fff15 	stw	zero,-4(fp)
 1012470:	e0bfff17 	ldw	r2,-4(fp)
}
 1012474:	e037883a 	mov	sp,fp
 1012478:	dfc00217 	ldw	ra,8(sp)
 101247c:	df000117 	ldw	fp,4(sp)
 1012480:	dc000017 	ldw	r16,0(sp)
 1012484:	dec00304 	addi	sp,sp,12
 1012488:	f800283a 	ret

0101248c <open>:
 *
 * ALT_OPEN is mapped onto the open() system call in alt_syscall.h
 */
 
int ALT_OPEN (const char* file, int flags, int mode)
{ 
 101248c:	defff404 	addi	sp,sp,-48
 1012490:	dfc00b15 	stw	ra,44(sp)
 1012494:	df000a15 	stw	fp,40(sp)
 1012498:	df000a04 	addi	fp,sp,40
 101249c:	e13ffb15 	stw	r4,-20(fp)
 10124a0:	e17ffc15 	stw	r5,-16(fp)
 10124a4:	e1bffd15 	stw	r6,-12(fp)
  alt_dev* dev;
  alt_fd*  fd;
  int index  = -1;
 10124a8:	00bfffc4 	movi	r2,-1
 10124ac:	e0bff815 	stw	r2,-32(fp)
  int status = -ENODEV;
 10124b0:	00bffb44 	movi	r2,-19
 10124b4:	e0bff715 	stw	r2,-36(fp)
  int isafs = 0;
 10124b8:	e03ff615 	stw	zero,-40(fp)
  /* 
   * Check the device list, to see if a device with a matching name is 
   * registered.
   */
  
  if (!(dev = alt_find_dev (file, &alt_dev_list)))
 10124bc:	e13ffb17 	ldw	r4,-20(fp)
 10124c0:	01404174 	movhi	r5,261
 10124c4:	29616004 	addi	r5,r5,-31360
 10124c8:	1011ec80 	call	1011ec8 <alt_find_dev>
 10124cc:	e0bffa15 	stw	r2,-24(fp)
 10124d0:	e0bffa17 	ldw	r2,-24(fp)
 10124d4:	1004c03a 	cmpne	r2,r2,zero
 10124d8:	1000051e 	bne	r2,zero,10124f0 <open+0x64>
  {
    /* No matching device, so try the filesystem list */

    dev   = alt_find_file (file);
 10124dc:	e13ffb17 	ldw	r4,-20(fp)
 10124e0:	10126980 	call	1012698 <alt_find_file>
 10124e4:	e0bffa15 	stw	r2,-24(fp)
    isafs = 1;
 10124e8:	00800044 	movi	r2,1
 10124ec:	e0bff615 	stw	r2,-40(fp)

  /* 
   * If a matching device or filesystem is found, allocate a file descriptor. 
   */

  if (dev)
 10124f0:	e0bffa17 	ldw	r2,-24(fp)
 10124f4:	1005003a 	cmpeq	r2,r2,zero
 10124f8:	1000311e 	bne	r2,zero,10125c0 <open+0x134>
  {
    if ((index = alt_get_fd (dev)) < 0)
 10124fc:	e13ffa17 	ldw	r4,-24(fp)
 1012500:	10127b80 	call	10127b8 <alt_get_fd>
 1012504:	e0bff815 	stw	r2,-32(fp)
 1012508:	e0bff817 	ldw	r2,-32(fp)
 101250c:	1004403a 	cmpge	r2,r2,zero
 1012510:	1000031e 	bne	r2,zero,1012520 <open+0x94>
    {
      status = index;
 1012514:	e0bff817 	ldw	r2,-32(fp)
 1012518:	e0bff715 	stw	r2,-36(fp)
 101251c:	00002a06 	br	10125c8 <open+0x13c>
    }
    else
    {
      fd = &alt_fd_list[index];
 1012520:	e13ff817 	ldw	r4,-32(fp)
 1012524:	01400304 	movi	r5,12
 1012528:	1005a5c0 	call	1005a5c <__mulsi3>
 101252c:	1007883a 	mov	r3,r2
 1012530:	00804134 	movhi	r2,260
 1012534:	109cb904 	addi	r2,r2,29412
 1012538:	1885883a 	add	r2,r3,r2
 101253c:	e0bff915 	stw	r2,-28(fp)
      fd->fd_flags = (flags & ~ALT_FD_FLAGS_MASK);
 1012540:	e0fffc17 	ldw	r3,-16(fp)
 1012544:	00900034 	movhi	r2,16384
 1012548:	10bfffc4 	addi	r2,r2,-1
 101254c:	1886703a 	and	r3,r3,r2
 1012550:	e0bff917 	ldw	r2,-28(fp)
 1012554:	10c00215 	stw	r3,8(r2)
      
      /* If this is a device, ensure it isn't already locked */

      if (isafs || ((status = alt_file_locked (fd)) >= 0))
 1012558:	e0bff617 	ldw	r2,-40(fp)
 101255c:	1004c03a 	cmpne	r2,r2,zero
 1012560:	1000061e 	bne	r2,zero,101257c <open+0xf0>
 1012564:	e13ff917 	ldw	r4,-28(fp)
 1012568:	10123940 	call	1012394 <alt_file_locked>
 101256c:	e0bff715 	stw	r2,-36(fp)
 1012570:	e0bff717 	ldw	r2,-36(fp)
 1012574:	1004803a 	cmplt	r2,r2,zero
 1012578:	1000131e 	bne	r2,zero,10125c8 <open+0x13c>
        /* 
         * If the device or filesystem provides an open() callback function,
         * call it now to perform any device/filesystem specific operations.
         */
    
        status = (dev->open) ? dev->open(fd, file, flags, mode): 0;
 101257c:	e0bffa17 	ldw	r2,-24(fp)
 1012580:	10800317 	ldw	r2,12(r2)
 1012584:	1005003a 	cmpeq	r2,r2,zero
 1012588:	1000091e 	bne	r2,zero,10125b0 <open+0x124>
 101258c:	e0bffa17 	ldw	r2,-24(fp)
 1012590:	10800317 	ldw	r2,12(r2)
 1012594:	e13ff917 	ldw	r4,-28(fp)
 1012598:	e17ffb17 	ldw	r5,-20(fp)
 101259c:	e1bffc17 	ldw	r6,-16(fp)
 10125a0:	e1fffd17 	ldw	r7,-12(fp)
 10125a4:	103ee83a 	callr	r2
 10125a8:	e0bfff15 	stw	r2,-4(fp)
 10125ac:	00000106 	br	10125b4 <open+0x128>
 10125b0:	e03fff15 	stw	zero,-4(fp)
 10125b4:	e0bfff17 	ldw	r2,-4(fp)
 10125b8:	e0bff715 	stw	r2,-36(fp)
 10125bc:	00000206 	br	10125c8 <open+0x13c>
      }
    }
  }
  else
  {
    status = -ENODEV;
 10125c0:	00bffb44 	movi	r2,-19
 10125c4:	e0bff715 	stw	r2,-36(fp)
  }

  /* Allocation failed, so clean up and return an error */ 

  if (status < 0)
 10125c8:	e0bff717 	ldw	r2,-36(fp)
 10125cc:	1004403a 	cmpge	r2,r2,zero
 10125d0:	1000091e 	bne	r2,zero,10125f8 <open+0x16c>
  {
    alt_release_fd (index);  
 10125d4:	e13ff817 	ldw	r4,-32(fp)
 10125d8:	100f06c0 	call	100f06c <alt_release_fd>
    ALT_ERRNO = -status;
 10125dc:	10126180 	call	1012618 <alt_get_errno>
 10125e0:	e0fff717 	ldw	r3,-36(fp)
 10125e4:	00c7c83a 	sub	r3,zero,r3
 10125e8:	10c00015 	stw	r3,0(r2)
    return -1;
 10125ec:	00bfffc4 	movi	r2,-1
 10125f0:	e0bffe15 	stw	r2,-8(fp)
 10125f4:	00000206 	br	1012600 <open+0x174>
  }
  
  /* return the reference upon success */

  return index;
 10125f8:	e0bff817 	ldw	r2,-32(fp)
 10125fc:	e0bffe15 	stw	r2,-8(fp)
 1012600:	e0bffe17 	ldw	r2,-8(fp)
}
 1012604:	e037883a 	mov	sp,fp
 1012608:	dfc00117 	ldw	ra,4(sp)
 101260c:	df000017 	ldw	fp,0(sp)
 1012610:	dec00204 	addi	sp,sp,8
 1012614:	f800283a 	ret

01012618 <alt_get_errno>:
#undef errno

extern int errno;

static ALT_INLINE int* alt_get_errno(void)
{
 1012618:	defffd04 	addi	sp,sp,-12
 101261c:	dfc00215 	stw	ra,8(sp)
 1012620:	df000115 	stw	fp,4(sp)
 1012624:	df000104 	addi	fp,sp,4
  return ((alt_errno) ? alt_errno() : &errno);
 1012628:	00804174 	movhi	r2,261
 101262c:	10a16304 	addi	r2,r2,-31348
 1012630:	10800017 	ldw	r2,0(r2)
 1012634:	1005003a 	cmpeq	r2,r2,zero
 1012638:	1000061e 	bne	r2,zero,1012654 <alt_get_errno+0x3c>
 101263c:	00804174 	movhi	r2,261
 1012640:	10a16304 	addi	r2,r2,-31348
 1012644:	10800017 	ldw	r2,0(r2)
 1012648:	103ee83a 	callr	r2
 101264c:	e0bfff15 	stw	r2,-4(fp)
 1012650:	00000306 	br	1012660 <alt_get_errno+0x48>
 1012654:	00804174 	movhi	r2,261
 1012658:	10a82a04 	addi	r2,r2,-24408
 101265c:	e0bfff15 	stw	r2,-4(fp)
 1012660:	e0bfff17 	ldw	r2,-4(fp)
}
 1012664:	e037883a 	mov	sp,fp
 1012668:	dfc00117 	ldw	ra,4(sp)
 101266c:	df000017 	ldw	fp,0(sp)
 1012670:	dec00204 	addi	sp,sp,8
 1012674:	f800283a 	ret

01012678 <altera_nios2_qsys_irq_init>:
/*
 * To initialize the internal interrupt controller, just clear the IENABLE
 * register so that all possible IRQs are disabled.
 */
void altera_nios2_qsys_irq_init(void) 
{
 1012678:	deffff04 	addi	sp,sp,-4
 101267c:	df000015 	stw	fp,0(sp)
 1012680:	d839883a 	mov	fp,sp
    NIOS2_WRITE_IENABLE(0);
 1012684:	000170fa 	wrctl	ienable,zero
}
 1012688:	e037883a 	mov	sp,fp
 101268c:	df000017 	ldw	fp,0(sp)
 1012690:	dec00104 	addi	sp,sp,4
 1012694:	f800283a 	ret

01012698 <alt_find_file>:
 * either '/' or '\0' is the prefix of the filename. For example the filename:
 * "/myfilesystem/junk.txt" would match: "/myfilesystem", but not: "/myfile". 
 */
 
alt_dev* alt_find_file (const char* name)
{
 1012698:	defffa04 	addi	sp,sp,-24
 101269c:	dfc00515 	stw	ra,20(sp)
 10126a0:	df000415 	stw	fp,16(sp)
 10126a4:	df000404 	addi	fp,sp,16
 10126a8:	e13ffe15 	stw	r4,-8(fp)
  alt_dev* next = (alt_dev*) alt_fs_list.next;   
 10126ac:	00804174 	movhi	r2,261
 10126b0:	10a15e04 	addi	r2,r2,-31368
 10126b4:	10800017 	ldw	r2,0(r2)
 10126b8:	e0bffd15 	stw	r2,-12(fp)
  /*
   * Check each list entry in turn, until a match is found, or we reach the
   * end of the list (i.e. next winds up pointing back to the list head).
   */ 
 
  while (next != (alt_dev*) &alt_fs_list)
 10126bc:	00003306 	br	101278c <alt_find_file+0xf4>
  {
    len = strlen(next->name);
 10126c0:	e0bffd17 	ldw	r2,-12(fp)
 10126c4:	11000217 	ldw	r4,8(r2)
 10126c8:	1006ae40 	call	1006ae4 <strlen>
 10126cc:	e0bffc15 	stw	r2,-16(fp)
    
    if (next->name[len-1] == '/')
 10126d0:	e0bffd17 	ldw	r2,-12(fp)
 10126d4:	10c00217 	ldw	r3,8(r2)
 10126d8:	e0bffc17 	ldw	r2,-16(fp)
 10126dc:	1885883a 	add	r2,r3,r2
 10126e0:	10bfffc4 	addi	r2,r2,-1
 10126e4:	10800003 	ldbu	r2,0(r2)
 10126e8:	10803fcc 	andi	r2,r2,255
 10126ec:	1080201c 	xori	r2,r2,128
 10126f0:	10bfe004 	addi	r2,r2,-128
 10126f4:	10800bd8 	cmpnei	r2,r2,47
 10126f8:	1000031e 	bne	r2,zero,1012708 <alt_find_file+0x70>
    {
      len -= 1;
 10126fc:	e0bffc17 	ldw	r2,-16(fp)
 1012700:	10bfffc4 	addi	r2,r2,-1
 1012704:	e0bffc15 	stw	r2,-16(fp)
    }

    if (((name[len] == '/') || (name[len] == '\0')) && 
 1012708:	e0bffc17 	ldw	r2,-16(fp)
 101270c:	1007883a 	mov	r3,r2
 1012710:	e0bffe17 	ldw	r2,-8(fp)
 1012714:	1885883a 	add	r2,r3,r2
 1012718:	10800003 	ldbu	r2,0(r2)
 101271c:	10803fcc 	andi	r2,r2,255
 1012720:	1080201c 	xori	r2,r2,128
 1012724:	10bfe004 	addi	r2,r2,-128
 1012728:	10800be0 	cmpeqi	r2,r2,47
 101272c:	10000a1e 	bne	r2,zero,1012758 <alt_find_file+0xc0>
 1012730:	e0bffc17 	ldw	r2,-16(fp)
 1012734:	1007883a 	mov	r3,r2
 1012738:	e0bffe17 	ldw	r2,-8(fp)
 101273c:	1885883a 	add	r2,r3,r2
 1012740:	10800003 	ldbu	r2,0(r2)
 1012744:	10803fcc 	andi	r2,r2,255
 1012748:	1080201c 	xori	r2,r2,128
 101274c:	10bfe004 	addi	r2,r2,-128
 1012750:	1004c03a 	cmpne	r2,r2,zero
 1012754:	10000a1e 	bne	r2,zero,1012780 <alt_find_file+0xe8>
 1012758:	e0bffd17 	ldw	r2,-12(fp)
 101275c:	11000217 	ldw	r4,8(r2)
 1012760:	e1bffc17 	ldw	r6,-16(fp)
 1012764:	e17ffe17 	ldw	r5,-8(fp)
 1012768:	10128d40 	call	10128d4 <memcmp>
 101276c:	1004c03a 	cmpne	r2,r2,zero
 1012770:	1000031e 	bne	r2,zero,1012780 <alt_find_file+0xe8>
        !memcmp (next->name, name, len))
    {
      /* match found */

      return next;
 1012774:	e0bffd17 	ldw	r2,-12(fp)
 1012778:	e0bfff15 	stw	r2,-4(fp)
 101277c:	00000806 	br	10127a0 <alt_find_file+0x108>
    }
    next = (alt_dev*) next->llist.next;
 1012780:	e0bffd17 	ldw	r2,-12(fp)
 1012784:	10800017 	ldw	r2,0(r2)
 1012788:	e0bffd15 	stw	r2,-12(fp)
  /*
   * Check each list entry in turn, until a match is found, or we reach the
   * end of the list (i.e. next winds up pointing back to the list head).
   */ 
 
  while (next != (alt_dev*) &alt_fs_list)
 101278c:	00c04174 	movhi	r3,261
 1012790:	18e15e04 	addi	r3,r3,-31368
 1012794:	e0bffd17 	ldw	r2,-12(fp)
 1012798:	10ffc91e 	bne	r2,r3,10126c0 <alt_find_file+0x28>
    next = (alt_dev*) next->llist.next;
  }
  
  /* No match found */
  
  return NULL;     
 101279c:	e03fff15 	stw	zero,-4(fp)
 10127a0:	e0bfff17 	ldw	r2,-4(fp)
}
 10127a4:	e037883a 	mov	sp,fp
 10127a8:	dfc00117 	ldw	ra,4(sp)
 10127ac:	df000017 	ldw	fp,0(sp)
 10127b0:	dec00204 	addi	sp,sp,8
 10127b4:	f800283a 	ret

010127b8 <alt_get_fd>:
 * the offset of the file descriptor within the file descriptor array). A
 * negative value indicates failure.
 */

int alt_get_fd (alt_dev* dev)
{
 10127b8:	defffa04 	addi	sp,sp,-24
 10127bc:	dfc00515 	stw	ra,20(sp)
 10127c0:	df000415 	stw	fp,16(sp)
 10127c4:	dc000315 	stw	r16,12(sp)
 10127c8:	df000304 	addi	fp,sp,12
 10127cc:	e13fff15 	stw	r4,-4(fp)
  alt_32 i;
  int rc = -EMFILE;
 10127d0:	00bffa04 	movi	r2,-24
 10127d4:	e0bffd15 	stw	r2,-12(fp)
   * indicates the highest file descriptor ever allocated. This is used to
   * improve efficency when searching the file descriptor list, and 
   * therefore reduce contention on the alt_fd_list_lock semaphore. 
   */

  for (i = 0; i < ALT_MAX_FD; i++)
 10127d8:	e03ffe15 	stw	zero,-8(fp)
 10127dc:	00002006 	br	1012860 <alt_get_fd+0xa8>
  {
    if (!alt_fd_list[i].dev)
 10127e0:	e13ffe17 	ldw	r4,-8(fp)
 10127e4:	04004134 	movhi	r16,260
 10127e8:	841cb904 	addi	r16,r16,29412
 10127ec:	01400304 	movi	r5,12
 10127f0:	1005a5c0 	call	1005a5c <__mulsi3>
 10127f4:	1405883a 	add	r2,r2,r16
 10127f8:	10800017 	ldw	r2,0(r2)
 10127fc:	1004c03a 	cmpne	r2,r2,zero
 1012800:	1000141e 	bne	r2,zero,1012854 <alt_get_fd+0x9c>
    {
      alt_fd_list[i].dev = dev;
 1012804:	e13ffe17 	ldw	r4,-8(fp)
 1012808:	04004134 	movhi	r16,260
 101280c:	841cb904 	addi	r16,r16,29412
 1012810:	01400304 	movi	r5,12
 1012814:	1005a5c0 	call	1005a5c <__mulsi3>
 1012818:	1407883a 	add	r3,r2,r16
 101281c:	e0bfff17 	ldw	r2,-4(fp)
 1012820:	18800015 	stw	r2,0(r3)
      if (i > alt_max_fd)
 1012824:	00804174 	movhi	r2,261
 1012828:	10a16204 	addi	r2,r2,-31352
 101282c:	10c00017 	ldw	r3,0(r2)
 1012830:	e0bffe17 	ldw	r2,-8(fp)
 1012834:	1880040e 	bge	r3,r2,1012848 <alt_get_fd+0x90>
      {
        alt_max_fd = i;
 1012838:	00c04174 	movhi	r3,261
 101283c:	18e16204 	addi	r3,r3,-31352
 1012840:	e0bffe17 	ldw	r2,-8(fp)
 1012844:	18800015 	stw	r2,0(r3)
      }
      rc = i;
 1012848:	e0bffe17 	ldw	r2,-8(fp)
 101284c:	e0bffd15 	stw	r2,-12(fp)
      goto alt_get_fd_exit;
 1012850:	00000606 	br	101286c <alt_get_fd+0xb4>
   * indicates the highest file descriptor ever allocated. This is used to
   * improve efficency when searching the file descriptor list, and 
   * therefore reduce contention on the alt_fd_list_lock semaphore. 
   */

  for (i = 0; i < ALT_MAX_FD; i++)
 1012854:	e0bffe17 	ldw	r2,-8(fp)
 1012858:	10800044 	addi	r2,r2,1
 101285c:	e0bffe15 	stw	r2,-8(fp)
 1012860:	e0bffe17 	ldw	r2,-8(fp)
 1012864:	10800810 	cmplti	r2,r2,32
 1012868:	103fdd1e 	bne	r2,zero,10127e0 <alt_get_fd+0x28>
   * file descriptor pool.
   */

  ALT_SEM_POST(alt_fd_list_lock);

  return rc;
 101286c:	e0bffd17 	ldw	r2,-12(fp)
}
 1012870:	e037883a 	mov	sp,fp
 1012874:	dfc00217 	ldw	ra,8(sp)
 1012878:	df000117 	ldw	fp,4(sp)
 101287c:	dc000017 	ldw	r16,0(sp)
 1012880:	dec00304 	addi	sp,sp,12
 1012884:	f800283a 	ret

01012888 <atexit>:
 1012888:	200b883a 	mov	r5,r4
 101288c:	000d883a 	mov	r6,zero
 1012890:	0009883a 	mov	r4,zero
 1012894:	000f883a 	mov	r7,zero
 1012898:	10129481 	jmpi	1012948 <__register_exitproc>

0101289c <exit>:
 101289c:	defffe04 	addi	sp,sp,-8
 10128a0:	000b883a 	mov	r5,zero
 10128a4:	dc000015 	stw	r16,0(sp)
 10128a8:	dfc00115 	stw	ra,4(sp)
 10128ac:	2021883a 	mov	r16,r4
 10128b0:	1012a800 	call	1012a80 <__call_exitprocs>
 10128b4:	00804174 	movhi	r2,261
 10128b8:	10a15b04 	addi	r2,r2,-31380
 10128bc:	11000017 	ldw	r4,0(r2)
 10128c0:	20800f17 	ldw	r2,60(r4)
 10128c4:	10000126 	beq	r2,zero,10128cc <exit+0x30>
 10128c8:	103ee83a 	callr	r2
 10128cc:	8009883a 	mov	r4,r16
 10128d0:	1012c700 	call	1012c70 <_exit>

010128d4 <memcmp>:
 10128d4:	00c000c4 	movi	r3,3
 10128d8:	1980032e 	bgeu	r3,r6,10128e8 <memcmp+0x14>
 10128dc:	2144b03a 	or	r2,r4,r5
 10128e0:	10c4703a 	and	r2,r2,r3
 10128e4:	10000f26 	beq	r2,zero,1012924 <memcmp+0x50>
 10128e8:	31ffffc4 	addi	r7,r6,-1
 10128ec:	3000061e 	bne	r6,zero,1012908 <memcmp+0x34>
 10128f0:	00000a06 	br	101291c <memcmp+0x48>
 10128f4:	39ffffc4 	addi	r7,r7,-1
 10128f8:	00bfffc4 	movi	r2,-1
 10128fc:	21000044 	addi	r4,r4,1
 1012900:	29400044 	addi	r5,r5,1
 1012904:	38800526 	beq	r7,r2,101291c <memcmp+0x48>
 1012908:	20c00003 	ldbu	r3,0(r4)
 101290c:	28800003 	ldbu	r2,0(r5)
 1012910:	18bff826 	beq	r3,r2,10128f4 <memcmp+0x20>
 1012914:	1885c83a 	sub	r2,r3,r2
 1012918:	f800283a 	ret
 101291c:	0005883a 	mov	r2,zero
 1012920:	f800283a 	ret
 1012924:	180f883a 	mov	r7,r3
 1012928:	20c00017 	ldw	r3,0(r4)
 101292c:	28800017 	ldw	r2,0(r5)
 1012930:	18bfed1e 	bne	r3,r2,10128e8 <memcmp+0x14>
 1012934:	31bfff04 	addi	r6,r6,-4
 1012938:	21000104 	addi	r4,r4,4
 101293c:	29400104 	addi	r5,r5,4
 1012940:	39bff936 	bltu	r7,r6,1012928 <memcmp+0x54>
 1012944:	003fe806 	br	10128e8 <memcmp+0x14>

01012948 <__register_exitproc>:
 1012948:	defffa04 	addi	sp,sp,-24
 101294c:	00804174 	movhi	r2,261
 1012950:	10a15b04 	addi	r2,r2,-31380
 1012954:	dc000015 	stw	r16,0(sp)
 1012958:	14000017 	ldw	r16,0(r2)
 101295c:	dd000415 	stw	r20,16(sp)
 1012960:	2829883a 	mov	r20,r5
 1012964:	81405217 	ldw	r5,328(r16)
 1012968:	dcc00315 	stw	r19,12(sp)
 101296c:	dc800215 	stw	r18,8(sp)
 1012970:	dc400115 	stw	r17,4(sp)
 1012974:	dfc00515 	stw	ra,20(sp)
 1012978:	2023883a 	mov	r17,r4
 101297c:	3027883a 	mov	r19,r6
 1012980:	3825883a 	mov	r18,r7
 1012984:	28002526 	beq	r5,zero,1012a1c <__register_exitproc+0xd4>
 1012988:	29000117 	ldw	r4,4(r5)
 101298c:	008007c4 	movi	r2,31
 1012990:	11002716 	blt	r2,r4,1012a30 <__register_exitproc+0xe8>
 1012994:	8800101e 	bne	r17,zero,10129d8 <__register_exitproc+0x90>
 1012998:	2105883a 	add	r2,r4,r4
 101299c:	1085883a 	add	r2,r2,r2
 10129a0:	20c00044 	addi	r3,r4,1
 10129a4:	1145883a 	add	r2,r2,r5
 10129a8:	0009883a 	mov	r4,zero
 10129ac:	15000215 	stw	r20,8(r2)
 10129b0:	28c00115 	stw	r3,4(r5)
 10129b4:	2005883a 	mov	r2,r4
 10129b8:	dfc00517 	ldw	ra,20(sp)
 10129bc:	dd000417 	ldw	r20,16(sp)
 10129c0:	dcc00317 	ldw	r19,12(sp)
 10129c4:	dc800217 	ldw	r18,8(sp)
 10129c8:	dc400117 	ldw	r17,4(sp)
 10129cc:	dc000017 	ldw	r16,0(sp)
 10129d0:	dec00604 	addi	sp,sp,24
 10129d4:	f800283a 	ret
 10129d8:	29802204 	addi	r6,r5,136
 10129dc:	00800044 	movi	r2,1
 10129e0:	110e983a 	sll	r7,r2,r4
 10129e4:	30c04017 	ldw	r3,256(r6)
 10129e8:	2105883a 	add	r2,r4,r4
 10129ec:	1085883a 	add	r2,r2,r2
 10129f0:	1185883a 	add	r2,r2,r6
 10129f4:	19c6b03a 	or	r3,r3,r7
 10129f8:	14802015 	stw	r18,128(r2)
 10129fc:	14c00015 	stw	r19,0(r2)
 1012a00:	00800084 	movi	r2,2
 1012a04:	30c04015 	stw	r3,256(r6)
 1012a08:	88bfe31e 	bne	r17,r2,1012998 <__register_exitproc+0x50>
 1012a0c:	30804117 	ldw	r2,260(r6)
 1012a10:	11c4b03a 	or	r2,r2,r7
 1012a14:	30804115 	stw	r2,260(r6)
 1012a18:	003fdf06 	br	1012998 <__register_exitproc+0x50>
 1012a1c:	00804174 	movhi	r2,261
 1012a20:	10a88204 	addi	r2,r2,-24056
 1012a24:	100b883a 	mov	r5,r2
 1012a28:	80805215 	stw	r2,328(r16)
 1012a2c:	003fd606 	br	1012988 <__register_exitproc+0x40>
 1012a30:	00804034 	movhi	r2,256
 1012a34:	10985804 	addi	r2,r2,24928
 1012a38:	1000021e 	bne	r2,zero,1012a44 <__register_exitproc+0xfc>
 1012a3c:	013fffc4 	movi	r4,-1
 1012a40:	003fdc06 	br	10129b4 <__register_exitproc+0x6c>
 1012a44:	01006404 	movi	r4,400
 1012a48:	103ee83a 	callr	r2
 1012a4c:	1007883a 	mov	r3,r2
 1012a50:	103ffa26 	beq	r2,zero,1012a3c <__register_exitproc+0xf4>
 1012a54:	80805217 	ldw	r2,328(r16)
 1012a58:	180b883a 	mov	r5,r3
 1012a5c:	18000115 	stw	zero,4(r3)
 1012a60:	18800015 	stw	r2,0(r3)
 1012a64:	80c05215 	stw	r3,328(r16)
 1012a68:	18006215 	stw	zero,392(r3)
 1012a6c:	18006315 	stw	zero,396(r3)
 1012a70:	0009883a 	mov	r4,zero
 1012a74:	883fc826 	beq	r17,zero,1012998 <__register_exitproc+0x50>
 1012a78:	003fd706 	br	10129d8 <__register_exitproc+0x90>

01012a7c <register_fini>:
 1012a7c:	f800283a 	ret

01012a80 <__call_exitprocs>:
 1012a80:	00804174 	movhi	r2,261
 1012a84:	10a15b04 	addi	r2,r2,-31380
 1012a88:	10800017 	ldw	r2,0(r2)
 1012a8c:	defff304 	addi	sp,sp,-52
 1012a90:	df000b15 	stw	fp,44(sp)
 1012a94:	d8800115 	stw	r2,4(sp)
 1012a98:	00804034 	movhi	r2,256
 1012a9c:	10985304 	addi	r2,r2,24908
 1012aa0:	1005003a 	cmpeq	r2,r2,zero
 1012aa4:	d8800215 	stw	r2,8(sp)
 1012aa8:	d8800117 	ldw	r2,4(sp)
 1012aac:	dd400815 	stw	r21,32(sp)
 1012ab0:	dd000715 	stw	r20,28(sp)
 1012ab4:	10805204 	addi	r2,r2,328
 1012ab8:	dfc00c15 	stw	ra,48(sp)
 1012abc:	ddc00a15 	stw	r23,40(sp)
 1012ac0:	dd800915 	stw	r22,36(sp)
 1012ac4:	dcc00615 	stw	r19,24(sp)
 1012ac8:	dc800515 	stw	r18,20(sp)
 1012acc:	dc400415 	stw	r17,16(sp)
 1012ad0:	dc000315 	stw	r16,12(sp)
 1012ad4:	282b883a 	mov	r21,r5
 1012ad8:	2039883a 	mov	fp,r4
 1012adc:	d8800015 	stw	r2,0(sp)
 1012ae0:	2829003a 	cmpeq	r20,r5,zero
 1012ae4:	d8800117 	ldw	r2,4(sp)
 1012ae8:	14405217 	ldw	r17,328(r2)
 1012aec:	88001026 	beq	r17,zero,1012b30 <__call_exitprocs+0xb0>
 1012af0:	ddc00017 	ldw	r23,0(sp)
 1012af4:	88800117 	ldw	r2,4(r17)
 1012af8:	8c802204 	addi	r18,r17,136
 1012afc:	143fffc4 	addi	r16,r2,-1
 1012b00:	80000916 	blt	r16,zero,1012b28 <__call_exitprocs+0xa8>
 1012b04:	05bfffc4 	movi	r22,-1
 1012b08:	a000151e 	bne	r20,zero,1012b60 <__call_exitprocs+0xe0>
 1012b0c:	8409883a 	add	r4,r16,r16
 1012b10:	2105883a 	add	r2,r4,r4
 1012b14:	1485883a 	add	r2,r2,r18
 1012b18:	10c02017 	ldw	r3,128(r2)
 1012b1c:	a8c01126 	beq	r21,r3,1012b64 <__call_exitprocs+0xe4>
 1012b20:	843fffc4 	addi	r16,r16,-1
 1012b24:	85bff81e 	bne	r16,r22,1012b08 <__call_exitprocs+0x88>
 1012b28:	d8800217 	ldw	r2,8(sp)
 1012b2c:	10003126 	beq	r2,zero,1012bf4 <__call_exitprocs+0x174>
 1012b30:	dfc00c17 	ldw	ra,48(sp)
 1012b34:	df000b17 	ldw	fp,44(sp)
 1012b38:	ddc00a17 	ldw	r23,40(sp)
 1012b3c:	dd800917 	ldw	r22,36(sp)
 1012b40:	dd400817 	ldw	r21,32(sp)
 1012b44:	dd000717 	ldw	r20,28(sp)
 1012b48:	dcc00617 	ldw	r19,24(sp)
 1012b4c:	dc800517 	ldw	r18,20(sp)
 1012b50:	dc400417 	ldw	r17,16(sp)
 1012b54:	dc000317 	ldw	r16,12(sp)
 1012b58:	dec00d04 	addi	sp,sp,52
 1012b5c:	f800283a 	ret
 1012b60:	8409883a 	add	r4,r16,r16
 1012b64:	88c00117 	ldw	r3,4(r17)
 1012b68:	2105883a 	add	r2,r4,r4
 1012b6c:	1445883a 	add	r2,r2,r17
 1012b70:	18ffffc4 	addi	r3,r3,-1
 1012b74:	11800217 	ldw	r6,8(r2)
 1012b78:	1c001526 	beq	r3,r16,1012bd0 <__call_exitprocs+0x150>
 1012b7c:	10000215 	stw	zero,8(r2)
 1012b80:	303fe726 	beq	r6,zero,1012b20 <__call_exitprocs+0xa0>
 1012b84:	00c00044 	movi	r3,1
 1012b88:	1c06983a 	sll	r3,r3,r16
 1012b8c:	90804017 	ldw	r2,256(r18)
 1012b90:	8cc00117 	ldw	r19,4(r17)
 1012b94:	1884703a 	and	r2,r3,r2
 1012b98:	10001426 	beq	r2,zero,1012bec <__call_exitprocs+0x16c>
 1012b9c:	90804117 	ldw	r2,260(r18)
 1012ba0:	1884703a 	and	r2,r3,r2
 1012ba4:	10000c1e 	bne	r2,zero,1012bd8 <__call_exitprocs+0x158>
 1012ba8:	2105883a 	add	r2,r4,r4
 1012bac:	1485883a 	add	r2,r2,r18
 1012bb0:	11400017 	ldw	r5,0(r2)
 1012bb4:	e009883a 	mov	r4,fp
 1012bb8:	303ee83a 	callr	r6
 1012bbc:	88800117 	ldw	r2,4(r17)
 1012bc0:	98bfc81e 	bne	r19,r2,1012ae4 <__call_exitprocs+0x64>
 1012bc4:	b8800017 	ldw	r2,0(r23)
 1012bc8:	147fd526 	beq	r2,r17,1012b20 <__call_exitprocs+0xa0>
 1012bcc:	003fc506 	br	1012ae4 <__call_exitprocs+0x64>
 1012bd0:	8c000115 	stw	r16,4(r17)
 1012bd4:	003fea06 	br	1012b80 <__call_exitprocs+0x100>
 1012bd8:	2105883a 	add	r2,r4,r4
 1012bdc:	1485883a 	add	r2,r2,r18
 1012be0:	11000017 	ldw	r4,0(r2)
 1012be4:	303ee83a 	callr	r6
 1012be8:	003ff406 	br	1012bbc <__call_exitprocs+0x13c>
 1012bec:	303ee83a 	callr	r6
 1012bf0:	003ff206 	br	1012bbc <__call_exitprocs+0x13c>
 1012bf4:	88800117 	ldw	r2,4(r17)
 1012bf8:	1000081e 	bne	r2,zero,1012c1c <__call_exitprocs+0x19c>
 1012bfc:	89000017 	ldw	r4,0(r17)
 1012c00:	20000726 	beq	r4,zero,1012c20 <__call_exitprocs+0x1a0>
 1012c04:	b9000015 	stw	r4,0(r23)
 1012c08:	8809883a 	mov	r4,r17
 1012c0c:	100614c0 	call	100614c <free>
 1012c10:	bc400017 	ldw	r17,0(r23)
 1012c14:	883fb71e 	bne	r17,zero,1012af4 <__call_exitprocs+0x74>
 1012c18:	003fc506 	br	1012b30 <__call_exitprocs+0xb0>
 1012c1c:	89000017 	ldw	r4,0(r17)
 1012c20:	882f883a 	mov	r23,r17
 1012c24:	2023883a 	mov	r17,r4
 1012c28:	883fb21e 	bne	r17,zero,1012af4 <__call_exitprocs+0x74>
 1012c2c:	003fc006 	br	1012b30 <__call_exitprocs+0xb0>

01012c30 <alt_sim_halt>:

/*
 * Routine called on exit.
 */
static ALT_ALWAYS_INLINE void alt_sim_halt(int exit_code)
{
 1012c30:	defffd04 	addi	sp,sp,-12
 1012c34:	df000215 	stw	fp,8(sp)
 1012c38:	df000204 	addi	fp,sp,8
 1012c3c:	e13fff15 	stw	r4,-4(fp)
  int r2 = exit_code;
 1012c40:	e0bfff17 	ldw	r2,-4(fp)
 1012c44:	e0bffe15 	stw	r2,-8(fp)
  __asm__ volatile ("\n0:\n\taddi %0,%0, -1\n\tbgt %0,zero,0b" : : "r" (ALT_CPU_FREQ/100) ); /* Delay for >30ms */

  __asm__ volatile ("break 2" : : "D02"(r2), "D03"(r3) ALT_GMON_DATA );

#else /* !DEBUG_STUB */
  if (r2) {
 1012c48:	e0bffe17 	ldw	r2,-8(fp)
 1012c4c:	1005003a 	cmpeq	r2,r2,zero
 1012c50:	1000021e 	bne	r2,zero,1012c5c <alt_sim_halt+0x2c>
    ALT_SIM_FAIL();
 1012c54:	002af070 	cmpltui	zero,zero,43969
 1012c58:	00000106 	br	1012c60 <alt_sim_halt+0x30>
  } else {
    ALT_SIM_PASS();
 1012c5c:	002af0b0 	cmpltui	zero,zero,43970
  }
#endif /* DEBUG_STUB */
}
 1012c60:	e037883a 	mov	sp,fp
 1012c64:	df000017 	ldw	fp,0(sp)
 1012c68:	dec00104 	addi	sp,sp,4
 1012c6c:	f800283a 	ret

01012c70 <_exit>:
 *
 * ALT_EXIT is mapped onto the _exit() system call in alt_syscall.h
 */

void ALT_EXIT (int exit_code)
{
 1012c70:	defffd04 	addi	sp,sp,-12
 1012c74:	dfc00215 	stw	ra,8(sp)
 1012c78:	df000115 	stw	fp,4(sp)
 1012c7c:	df000104 	addi	fp,sp,4
 1012c80:	e13fff15 	stw	r4,-4(fp)
  ALT_OS_STOP();

  /* Provide notification to the simulator that we've stopped */

  ALT_LOG_PRINT_BOOT("[alt_exit.c] Calling ALT_SIM_HALT().\r\n");
  ALT_SIM_HALT(exit_code);
 1012c84:	e13fff17 	ldw	r4,-4(fp)
 1012c88:	1012c300 	call	1012c30 <alt_sim_halt>

  /* spin forever, since there's no where to go back to */

  ALT_LOG_PRINT_BOOT("[alt_exit.c] Spinning forever.\r\n");
  while (1);
 1012c8c:	003fff06 	br	1012c8c <_exit+0x1c>
 1012c90:	01012a7c 	xorhi	r4,zero,1193
