
exercise5.elf:     file format elf32-littlenios2
exercise5.elf
architecture: nios2, flags 0x00000112:
EXEC_P, HAS_SYMS, D_PAGED
start address 0x010001b4

Program Header:
    LOAD off    0x00001000 vaddr 0x01000000 paddr 0x01000000 align 2**12
         filesz 0x00000020 memsz 0x00000020 flags r-x
    LOAD off    0x00001020 vaddr 0x01000020 paddr 0x01000020 align 2**12
         filesz 0x00046a88 memsz 0x00046a88 flags r-x
    LOAD off    0x00047aa8 vaddr 0x01046aa8 paddr 0x010485a0 align 2**12
         filesz 0x00001af8 memsz 0x00001af8 flags rw-
    LOAD off    0x0004a098 vaddr 0x0104a098 paddr 0x0104a098 align 2**12
         filesz 0x00000000 memsz 0x00000300 flags rw-

Sections:
Idx Name          Size      VMA       LMA       File off  Algn
  0 .entry        00000020  01000000  01000000  00001000  2**5
                  CONTENTS, ALLOC, LOAD, READONLY, CODE
  1 .exceptions   00000194  01000020  01000020  00001020  2**2
                  CONTENTS, ALLOC, LOAD, READONLY, CODE
  2 .text         00012ae0  010001b4  010001b4  000011b4  2**2
                  CONTENTS, ALLOC, LOAD, READONLY, CODE
  3 .rodata       00033e14  01012c94  01012c94  00013c94  2**2
                  CONTENTS, ALLOC, LOAD, READONLY, DATA
  4 .rwdata       00001af8  01046aa8  010485a0  00047aa8  2**2
                  CONTENTS, ALLOC, LOAD, DATA, SMALL_DATA
  5 .bss          00000300  0104a098  0104a098  0004a098  2**2
                  ALLOC, SMALL_DATA
  6 .comment      00000026  00000000  00000000  000495a0  2**0
                  CONTENTS, READONLY
  7 .debug_aranges 00000ef8  00000000  00000000  000495c8  2**3
                  CONTENTS, READONLY, DEBUGGING
  8 .debug_pubnames 000019cb  00000000  00000000  0004a4c0  2**0
                  CONTENTS, READONLY, DEBUGGING
  9 .debug_info   0002ad8b  00000000  00000000  0004be8b  2**0
                  CONTENTS, READONLY, DEBUGGING
 10 .debug_abbrev 000092dc  00000000  00000000  00076c16  2**0
                  CONTENTS, READONLY, DEBUGGING
 11 .debug_line   00018c1a  00000000  00000000  0007fef2  2**0
                  CONTENTS, READONLY, DEBUGGING
 12 .debug_frame  00002004  00000000  00000000  00098b0c  2**2
                  CONTENTS, READONLY, DEBUGGING
 13 .debug_str    00002b32  00000000  00000000  0009ab10  2**0
                  CONTENTS, READONLY, DEBUGGING
 14 .debug_loc    0000dd98  00000000  00000000  0009d642  2**0
                  CONTENTS, READONLY, DEBUGGING
 15 .debug_alt_sim_info 00000010  00000000  00000000  000ab3dc  2**2
                  CONTENTS, READONLY, DEBUGGING
 16 .debug_ranges 00000a70  00000000  00000000  000ab3f0  2**3
                  CONTENTS, READONLY, DEBUGGING
 17 .thread_model 00000003  00000000  00000000  000afc61  2**0
                  CONTENTS, READONLY
 18 .cpu          0000000c  00000000  00000000  000afc64  2**0
                  CONTENTS, READONLY
 19 .qsys         00000001  00000000  00000000  000afc70  2**0
                  CONTENTS, READONLY
 20 .simulation_enabled 00000001  00000000  00000000  000afc71  2**0
                  CONTENTS, READONLY
 21 .stderr_dev   0000000b  00000000  00000000  000afc72  2**0
                  CONTENTS, READONLY
 22 .stdin_dev    0000000b  00000000  00000000  000afc7d  2**0
                  CONTENTS, READONLY
 23 .stdout_dev   0000000b  00000000  00000000  000afc88  2**0
                  CONTENTS, READONLY
 24 .sopc_system_name 0000000c  00000000  00000000  000afc93  2**0
                  CONTENTS, READONLY
 25 .quartus_project_dir 0000003e  00000000  00000000  000afc9f  2**0
                  CONTENTS, READONLY
 26 .sopcinfo     000657e1  00000000  00000000  000afcdd  2**0
                  CONTENTS, READONLY
SYMBOL TABLE:
01000000 l    d  .entry	00000000 .entry
01000020 l    d  .exceptions	00000000 .exceptions
010001b4 l    d  .text	00000000 .text
01012c94 l    d  .rodata	00000000 .rodata
01046aa8 l    d  .rwdata	00000000 .rwdata
0104a098 l    d  .bss	00000000 .bss
00000000 l    d  .comment	00000000 .comment
00000000 l    d  .debug_aranges	00000000 .debug_aranges
00000000 l    d  .debug_pubnames	00000000 .debug_pubnames
00000000 l    d  .debug_info	00000000 .debug_info
00000000 l    d  .debug_abbrev	00000000 .debug_abbrev
00000000 l    d  .debug_line	00000000 .debug_line
00000000 l    d  .debug_frame	00000000 .debug_frame
00000000 l    d  .debug_str	00000000 .debug_str
00000000 l    d  .debug_loc	00000000 .debug_loc
00000000 l    d  .debug_alt_sim_info	00000000 .debug_alt_sim_info
00000000 l    d  .debug_ranges	00000000 .debug_ranges
010001ec l       .text	00000000 alt_after_alt_main
00000000 l    df *ABS*	00000000 alt_irq_handler.c
00000000 l    df *ABS*	00000000 cannonman_animated.c
01012c94 l     O .rodata	00009601 GROUND_pixel_data
0101c298 l     O .rodata	000007d1 PLAYER_1_pixel_data
0101ca6c l     O .rodata	000007d1 PLAYER_2_pixel_data
0101d240 l     O .rodata	00000754 CANNON_1_pixel_data
0101d994 l     O .rodata	00000754 CANNON_1_FRAME2_pixel_data
0101e0e8 l     O .rodata	00000754 CANNON_1_FRAME3_pixel_data
0101e83c l     O .rodata	00000754 CANNON_2_pixel_data
0101ef90 l     O .rodata	00000754 CANNON_2_FRAME2_pixel_data
0101f6e4 l     O .rodata	00000754 CANNON_2_FRAME3_pixel_data
0101fe38 l     O .rodata	0000003d BOMB_pixel_data
0101fe78 l     O .rodata	00000f79 P1BOX_pixel_data
01020df4 l     O .rodata	00000f79 P2BOX_pixel_data
01021d70 l     O .rodata	00005461 P1WINS_pixel_data
010271d4 l     O .rodata	00005461 P2WINS_pixel_data
00000000 l    df *ABS*	00000000 cannonman_main.c
00000000 l    df *ABS*	00000000 bomb.c
0102c6c0 l     O .rodata	0000003d BOMB_pixel_data
00000000 l    df *ABS*	00000000 cannon1.c
0102c700 l     O .rodata	00000754 CANNON_1_pixel_data
0102ce54 l     O .rodata	00000754 CANNON_1_FRAME2_pixel_data
0102d5a8 l     O .rodata	00000754 CANNON_1_FRAME3_pixel_data
00000000 l    df *ABS*	00000000 cannon2.c
0102dcfc l     O .rodata	00000754 CANNON_2_pixel_data
0102e450 l     O .rodata	00000754 CANNON_2_FRAME2_pixel_data
0102eba4 l     O .rodata	00000754 CANNON_2_FRAME3_pixel_data
00000000 l    df *ABS*	00000000 ground.c
0102f2f8 l     O .rodata	00009601 GROUND_pixel_data
00000000 l    df *ABS*	00000000 p1box.c
010388fc l     O .rodata	00000f79 P1BOX_pixel_data
00000000 l    df *ABS*	00000000 p1wins.c
01039878 l     O .rodata	00005461 P1WINS_pixel_data
00000000 l    df *ABS*	00000000 p2box.c
0103ecdc l     O .rodata	00000f79 P2BOX_pixel_data
00000000 l    df *ABS*	00000000 p2wins.c
0103fc58 l     O .rodata	00005461 P2WINS_pixel_data
00000000 l    df *ABS*	00000000 player1.c
010450bc l     O .rodata	000007d1 PLAYER_1_pixel_data
00000000 l    df *ABS*	00000000 player2.c
01045890 l     O .rodata	000007d1 PLAYER_2_pixel_data
00000000 l    df *ABS*	00000000 VGA_Controller.c
00000000 l    df *ABS*	00000000 draw_bmp.c
00000000 l    df *ABS*	00000000 exercise5.c
00000000 l    df *ABS*	00000000 hello_world.c
00000000 l    df *ABS*	00000000 my_image.c
01046170 l     O .rodata	0000004c GIMP_IMAGE_pixel_data
00000000 l    df *ABS*	00000000 my_image7x7.c
010461bc l     O .rodata	0000024d GIMP_IMAGE_pixel_data
00000000 l    df *ABS*	00000000 power_bar.c
00000000 l    df *ABS*	00000000 rand_image.c
0104640c l     O .rodata	00000065 GIMP_IMAGE_pixel_data
00000000 l    df *ABS*	00000000 setup_graphics.c
00000000 l    df *ABS*	00000000 win_message.c
00000000 l    df *ABS*	00000000 s_cos.c
00000000 l    df *ABS*	00000000 s_sin.c
00000000 l    df *ABS*	00000000 e_rem_pio2.c
01046590 l     O .rodata	00000108 two_over_pi
01046510 l     O .rodata	00000080 npio2_hw
00000000 l    df *ABS*	00000000 k_cos.c
00000000 l    df *ABS*	00000000 k_rem_pio2.c
01046698 l     O .rodata	00000010 init_jk
010466a8 l     O .rodata	00000040 PIo2
00000000 l    df *ABS*	00000000 k_sin.c
00000000 l    df *ABS*	00000000 s_fabs.c
00000000 l    df *ABS*	00000000 s_floor.c
00000000 l    df *ABS*	00000000 s_scalbn.c
00000000 l    df *ABS*	00000000 s_copysign.c
00000000 l    df *ABS*	00000000 dp-bit.c
01004978 l     F .text	00000410 _fpadd_parts
00000000 l    df *ABS*	00000000 dp-bit.c
00000000 l    df *ABS*	00000000 dp-bit.c
00000000 l    df *ABS*	00000000 dp-bit.c
00000000 l    df *ABS*	00000000 dp-bit.c
00000000 l    df *ABS*	00000000 dp-bit.c
00000000 l    df *ABS*	00000000 dp-bit.c
00000000 l    df *ABS*	00000000 dp-bit.c
00000000 l    df *ABS*	00000000 dp-bit.c
00000000 l    df *ABS*	00000000 dp-bit.c
00000000 l    df *ABS*	00000000 dp-bit.c
00000000 l    df *ABS*	00000000 lib2-divmod.c
01005910 l     F .text	0000007c udivmodsi4
00000000 l    df *ABS*	00000000 lib2-mul.c
00000000 l    df *ABS*	00000000 libgcc2.c
00000000 l    df *ABS*	00000000 libgcc2.c
00000000 l    df *ABS*	00000000 dp-bit.c
00000000 l    df *ABS*	00000000 dp-bit.c
00000000 l    df *ABS*	00000000 dp-bit.c
00000000 l    df *ABS*	00000000 libgcc2.c
00000000 l    df *ABS*	00000000 malloc.c
00000000 l    df *ABS*	00000000 mallocr.c
00000000 l    df *ABS*	00000000 printf.c
00000000 l    df *ABS*	00000000 puts.c
00000000 l    df *ABS*	00000000 rand.c
00000000 l    df *ABS*	00000000 sbrkr.c
00000000 l    df *ABS*	00000000 strlen.c
00000000 l    df *ABS*	00000000 time.c
00000000 l    df *ABS*	00000000 vfprintf.c
01006bb4 l     F .text	00000058 __sprint_r
0104686e l     O .rodata	00000010 blanks.3452
0104685e l     O .rodata	00000010 zeroes.3453
00000000 l    df *ABS*	00000000 wsetup.c
00000000 l    df *ABS*	00000000 dtoa.c
01008c30 l     F .text	00000244 quorem
00000000 l    df *ABS*	00000000 fflush.c
00000000 l    df *ABS*	00000000 findfp.c
0100a658 l     F .text	00000058 std
0100a764 l     F .text	00000008 __fp_lock
0100a76c l     F .text	00000008 __fp_unlock
00000000 l    df *ABS*	00000000 mallocr.c
00000000 l    df *ABS*	00000000 fvwrite.c
00000000 l    df *ABS*	00000000 fwalk.c
00000000 l    df *ABS*	00000000 gettimeofdayr.c
00000000 l    df *ABS*	00000000 impure.c
01046eb0 l     O .rwdata	00000400 impure_data
00000000 l    df *ABS*	00000000 int_errno.c
00000000 l    df *ABS*	00000000 locale.c
01048574 l     O .rwdata	00000004 charset
010468a4 l     O .rodata	00000030 lconv
00000000 l    df *ABS*	00000000 makebuf.c
00000000 l    df *ABS*	00000000 memchr.c
00000000 l    df *ABS*	00000000 memcpy.c
00000000 l    df *ABS*	00000000 memmove.c
00000000 l    df *ABS*	00000000 memset.c
00000000 l    df *ABS*	00000000 mprec.c
010469ec l     O .rodata	0000000c p05.2458
00000000 l    df *ABS*	00000000 mallocr.c
00000000 l    df *ABS*	00000000 s_isinfd.c
00000000 l    df *ABS*	00000000 s_isnand.c
00000000 l    df *ABS*	00000000 stdio.c
00000000 l    df *ABS*	00000000 strcmp.c
00000000 l    df *ABS*	00000000 writer.c
00000000 l    df *ABS*	00000000 mallocr.c
00000000 l    df *ABS*	00000000 closer.c
00000000 l    df *ABS*	00000000 fclose.c
00000000 l    df *ABS*	00000000 fstatr.c
00000000 l    df *ABS*	00000000 isattyr.c
00000000 l    df *ABS*	00000000 lseekr.c
00000000 l    df *ABS*	00000000 readr.c
00000000 l    df *ABS*	00000000 libgcc2.c
00000000 l    df *ABS*	00000000 libgcc2.c
00000000 l    df *ABS*	00000000 dp-bit.c
00000000 l    df *ABS*	00000000 dp-bit.c
00000000 l    df *ABS*	00000000 alt_close.c
0100e6f8 l     F .text	00000060 alt_get_errno
00000000 l    df *ABS*	00000000 alt_dev.c
0100e758 l     F .text	0000002c alt_dev_null_write
00000000 l    df *ABS*	00000000 alt_errno.c
00000000 l    df *ABS*	00000000 alt_fstat.c
0100e85c l     F .text	00000060 alt_get_errno
00000000 l    df *ABS*	00000000 alt_gettod.c
00000000 l    df *ABS*	00000000 alt_isatty.c
0100eb9c l     F .text	00000060 alt_get_errno
00000000 l    df *ABS*	00000000 alt_load.c
0100ec7c l     F .text	0000006c alt_load_section
00000000 l    df *ABS*	00000000 alt_lseek.c
0100eddc l     F .text	00000060 alt_get_errno
00000000 l    df *ABS*	00000000 alt_main.c
00000000 l    df *ABS*	00000000 alt_malloc_lock.c
00000000 l    df *ABS*	00000000 alt_read.c
0100f00c l     F .text	00000060 alt_get_errno
00000000 l    df *ABS*	00000000 alt_release_fd.c
00000000 l    df *ABS*	00000000 alt_sbrk.c
01048590 l     O .rwdata	00000004 heap_end
00000000 l    df *ABS*	00000000 alt_tick.c
00000000 l    df *ABS*	00000000 alt_write.c
0100f468 l     F .text	00000060 alt_get_errno
00000000 l    df *ABS*	00000000 alt_sys_init.c
01047464 l     O .rwdata	00001060 jtag_uart_0
010484c4 l     O .rwdata	00000048 video_character_buffer_with_dma_0
0104850c l     O .rwdata	00000054 video_pixel_buffer_dma_0
0100f7f4 l     F .text	00000038 alt_dev_reg
00000000 l    df *ABS*	00000000 altera_avalon_jtag_uart_fd.c
00000000 l    df *ABS*	00000000 altera_avalon_jtag_uart_init.c
0100fa34 l     F .text	00000228 altera_avalon_jtag_uart_irq
0100fc5c l     F .text	000000b0 altera_avalon_jtag_uart_timeout
00000000 l    df *ABS*	00000000 altera_avalon_jtag_uart_ioctl.c
00000000 l    df *ABS*	00000000 altera_avalon_jtag_uart_read.c
00000000 l    df *ABS*	00000000 altera_avalon_jtag_uart_write.c
00000000 l    df *ABS*	00000000 altera_up_avalon_video_character_buffer_with_dma.c
00000000 l    df *ABS*	00000000 altera_up_avalon_video_pixel_buffer_dma.c
00000000 l    df *ABS*	00000000 alt_alarm_start.c
00000000 l    df *ABS*	00000000 alt_dcache_flush_all.c
00000000 l    df *ABS*	00000000 alt_dev_llist_insert.c
01011da0 l     F .text	00000060 alt_get_errno
00000000 l    df *ABS*	00000000 alt_do_ctors.c
00000000 l    df *ABS*	00000000 alt_do_dtors.c
00000000 l    df *ABS*	00000000 alt_find_dev.c
00000000 l    df *ABS*	00000000 alt_icache_flush_all.c
00000000 l    df *ABS*	00000000 alt_iic.c
00000000 l    df *ABS*	00000000 alt_iic_isr_register.c
00000000 l    df *ABS*	00000000 alt_io_redirect.c
01012244 l     F .text	000000d8 alt_open_fd
00000000 l    df *ABS*	00000000 alt_irq_vars.c
00000000 l    df *ABS*	00000000 alt_open.c
01012394 l     F .text	000000f8 alt_file_locked
01012618 l     F .text	00000060 alt_get_errno
00000000 l    df *ABS*	00000000 altera_nios2_qsys_irq.c
00000000 l    df *ABS*	00000000 alt_find_file.c
00000000 l    df *ABS*	00000000 alt_get_fd.c
00000000 l    df *ABS*	00000000 atexit.c
00000000 l    df *ABS*	00000000 exit.c
00000000 l    df *ABS*	00000000 memcmp.c
00000000 l    df *ABS*	00000000 __atexit.c
00000000 l    df *ABS*	00000000 __call_atexit.c
01012a7c l     F .text	00000004 register_fini
00000000 l    df *ABS*	00000000 alt_exit.c
01012c30 l     F .text	00000040 alt_sim_halt
0100bd7c g     F .text	00000094 _mprec_log10
0100be68 g     F .text	00000088 __any_on
0100d5b0 g     F .text	00000070 _isatty_r
010469c4 g     O .rodata	00000028 __mprec_tinytens
010013c0 g     F .text	0000010c draw_cannon2_frame2
0100ee3c g     F .text	0000006c alt_main
0101126c g     F .text	000003d8 alt_up_pixel_buffer_dma_draw_vline
0100692c g     F .text	000000a0 _puts_r
0104a108 g     O .bss	00000100 alt_irq
01004538 g     F .text	00000018 fabs
0100d620 g     F .text	00000078 _lseek_r
01000f0c g     F .text	0000010c draw_cannon1_frame2
010485a0 g       *ABS*	00000000 __flash_rwdata_start
01001fb8 g     F .text	00000140 draw_power_bar
01005498 g     F .text	00000088 __eqdf2
0100b3a8 g     F .text	00000074 _gettimeofday_r
0104a398 g       *ABS*	00000000 __alt_heap_start
010068b4 g     F .text	00000044 printf
0100d068 g     F .text	00000068 __sseek
0100a6c0 g     F .text	000000a4 __sinit
0101046c g     F .text	00000114 alt_up_char_buffer_string
0100b440 g     F .text	00000084 _setlocale_r
0100a7c0 g     F .text	0000009c __sfmoreglue
0100eec8 g     F .text	00000020 __malloc_unlock
010012b4 g     F .text	0000010c draw_cannon2
0101039c g     F .text	000000d0 alt_up_char_buffer_draw
0100b7f8 g     F .text	000000e0 memmove
0100a7b0 g     F .text	00000010 _cleanup
0100bef0 g     F .text	000000bc _Balloc
01000be8 g     F .text	0000010c draw_player1
0101061c g     F .text	000001ac alt_up_pixel_buffer_dma_draw
01005520 g     F .text	00000088 __gtdf2
00000000  w      *UND*	00000000 __errno
010105dc g     F .text	00000040 alt_up_pixel_buffer_dma_open_dev
01000000 g     F .entry	0000000c __reset
01000020 g       *ABS*	00000000 __flash_exceptions_start
0100d53c g     F .text	00000074 _fstat_r
01001018 g     F .text	0000010c draw_cannon1_frame3
0104a0a8 g     O .bss	00000004 errno
01000adc g     F .text	0000010c draw_ground
01004550 g     F .text	00000224 floor
0104a0cc g     O .bss	00000004 alt_argv
01050560 g       *ABS*	00000000 _gp
010107c8 g     F .text	00000058 alt_up_pixel_buffer_dma_change_back_buffer_address
010472e4 g     O .rwdata	00000180 alt_fd_list
01002648 g     F .text	00000828 __ieee754_rem_pio2
010014cc g     F .text	0000010c draw_cannon2_frame3
01011ec8 g     F .text	00000094 alt_find_dev
0100b758 g     F .text	000000a0 memcpy
01010580 g     F .text	0000005c alt_up_char_buffer_clear
0100a7a4 g     F .text	0000000c _cleanup_r
01005740 g     F .text	000000f8 __floatsidf
0101231c g     F .text	00000078 alt_io_redirect
01005630 g     F .text	00000088 __ltdf2
01012c94 g       *ABS*	00000000 __DTOR_END__
010069cc g     F .text	00000014 puts
0100bccc g     F .text	000000b0 __ratio
01010878 g     F .text	00000034 alt_up_pixel_buffer_dma_check_swap_buffers_status
0100fe74 g     F .text	00000224 altera_avalon_jtag_uart_read
01006160 g     F .text	00000014 malloc
010068f8 g     F .text	00000034 _printf_r
00000000 g       *ABS*	00000000 __alt_mem_onchip_memory2_0
01005a4c g     F .text	00000008 __udivsi3
0100ead8 g     F .text	000000c4 isatty
010468d4 g     O .rodata	000000c8 __mprec_tens
01010f14 g     F .text	00000358 alt_up_pixel_buffer_dma_draw_hline
0100b41c g     F .text	00000008 __locale_charset
01002e70 g     F .text	0000052c __kernel_cos
0104a0b8 g     O .bss	00000008 alt_timezone
0104a09c g     O .bss	00000004 __malloc_top_pad
01048570 g     O .rwdata	00000004 __mb_cur_max
0100b424 g     F .text	0000000c _localeconv_r
0100c654 g     F .text	0000003c __i2b
0100ad8c g     F .text	0000049c __sfvwrite_r
01006a74 g     F .text	00000070 _sbrk_r
01011708 g     F .text	000000d8 helper_plot_pixel
0100d698 g     F .text	00000078 _read_r
010472b0 g     O .rwdata	0000000c __lc_ctype
01048588 g     O .rwdata	00000004 alt_max_fd
01005f4c g     F .text	00000138 __unpack_d
0100d418 g     F .text	00000110 _fclose_r
010022d0 g     F .text	000000a4 draw_ball
0100a624 g     F .text	00000034 fflush
0104a0a0 g     O .bss	00000004 __malloc_max_sbrked_mem
01004220 g     F .text	00000318 __kernel_sin
01004e08 g     F .text	00000074 __adddf3
0100bbac g     F .text	00000120 __b2d
010108ac g     F .text	0000016c alt_up_pixel_buffer_dma_clear_screen
0100dd7c g     F .text	00000660 __umoddi3
0100ece8 g     F .text	000000f4 lseek
010008a8 g     F .text	00000084 draw_box_1
0104856c g     O .rwdata	00000004 _global_impure_ptr
0100c9fc g     F .text	000005f4 _realloc_r
0104a398 g       *ABS*	00000000 __bss_end
0101214c g     F .text	000000f8 alt_iic_isr_register
01010a18 g     F .text	000004fc alt_up_pixel_buffer_dma_draw_box
0100f238 g     F .text	0000010c alt_tick
0100d710 g     F .text	0000066c __udivdi3
0104699c g     O .rodata	00000028 __mprec_bigtens
0100c8dc g     F .text	00000120 __s2b
0100e464 g     F .text	00000194 __floatunsidf
0100bacc g     F .text	00000060 __mcmp
0100a78c g     F .text	00000018 __fp_lock_all
01012104 g     F .text	00000048 alt_ic_irq_enabled
0100f1a0 g     F .text	00000098 alt_alarm_stop
0104a0dc g     O .bss	00000004 alt_irq_active
010000ec g     F .exceptions	000000c8 alt_irq_handler
010472bc g     O .rwdata	00000028 alt_dev_null
0100339c g     F .text	00000e84 __kernel_rem_pio2
01001124 g     F .text	000000c8 animate_cannon1_shot
0104a098 g     O .bss	00000004 background_colour
01011cd0 g     F .text	0000001c alt_dcache_flush_all
0100b998 g     F .text	00000070 __hi0bits
01011644 g     F .text	000000c4 alt_up_pixel_buffer_dma_draw_rectangle
01005838 g     F .text	000000d8 __fixdfsi
010485a0 g       *ABS*	00000000 __ram_rwdata_end
01048580 g     O .rwdata	00000008 alt_dev_list
0100f344 g     F .text	00000124 write
010117e0 g     F .text	0000039c alt_up_pixel_buffer_dma_draw_line
01046aa8 g       *ABS*	00000000 __ram_rodata_end
0100e784 g     F .text	000000d8 fstat
010056b8 g     F .text	00000088 __ledf2
0100c7bc g     F .text	00000120 __pow5mult
0104a0ac g     O .bss	00000004 __nlocale_changed
01005a54 g     F .text	00000008 __umodsi3
0104a398 g       *ABS*	00000000 end
01001f54 g     F .text	00000064 clear_last_line
010102d8 g     F .text	00000084 alt_up_char_buffer_init
0100f974 g     F .text	000000c0 altera_avalon_jtag_uart_init
01012c90 g       *ABS*	00000000 __CTOR_LIST__
01800000 g       *ABS*	00000000 __alt_stack_pointer
01005bb8 g     F .text	00000080 __clzsi2
01010098 g     F .text	00000240 altera_avalon_jtag_uart_write
01002374 g     F .text	00000168 cos
0100a6b0 g     F .text	00000004 __sfp_lock_acquire
0100b674 g     F .text	000000e4 memchr
01006c0c g     F .text	00001ec4 ___vfprintf_internal_r
0100aa78 g     F .text	00000314 _free_r
01001c8c g     F .text	000002c8 show_angle
01000cf4 g     F .text	0000010c draw_player2
01012a80 g     F .text	000001b0 __call_exitprocs
0104a0b0 g     O .bss	00000004 __mlocale_changed
010017a0 g     F .text	000000c8 draw_p2box
01048564 g     O .rwdata	00000004 __malloc_sbrk_base
010001b4 g     F .text	0000003c _start
0104a0d4 g     O .bss	00000004 _alt_tick_rate
010024dc g     F .text	0000016c sin
010069fc g     F .text	00000078 rand
0100c2b4 g     F .text	0000014c __lshift
0104a0d8 g     O .bss	00000004 _alt_nticks
0100eee8 g     F .text	00000124 read
0100f4fc g     F .text	000002f8 alt_sys_init
01012948 g     F .text	00000134 __register_exitproc
0100c400 g     F .text	00000254 __multiply
0100fd0c g     F .text	00000074 altera_avalon_jtag_uart_close
01005a5c g     F .text	00000038 __mulsi3
01046aa8 g       *ABS*	00000000 __ram_rwdata_start
01012c94 g       *ABS*	00000000 __ram_rodata_start
0104a0e0 g     O .bss	00000028 __malloc_current_mallinfo
0100bfac g     F .text	0000017c __d2b
010016d8 g     F .text	000000c8 draw_p1box
0100f82c g     F .text	00000058 altera_avalon_jtag_uart_read_fd
010127b8 g     F .text	000000d0 alt_get_fd
01006084 g     F .text	000000c8 __fpcmp_parts_d
0100d3a8 g     F .text	00000070 _close_r
010128d4 g     F .text	00000074 memcmp
0100f8dc g     F .text	00000048 altera_avalon_jtag_uart_close_fd
0104a398 g       *ABS*	00000000 __alt_stack_base
0100f924 g     F .text	00000050 altera_avalon_jtag_uart_ioctl_fd
0100224c g     F .text	00000084 draw_box
01008af4 g     F .text	0000013c __swsetup_r
01005240 g     F .text	00000258 __divdf3
0100a85c g     F .text	000000f0 __sfp
0100be10 g     F .text	00000058 __copybits
01046aa8 g     O .rwdata	00000408 __malloc_av_
0100a6bc g     F .text	00000004 __sinit_lock_release
01004e7c g     F .text	000003c4 __muldf3
0100d14c g     F .text	00000060 __sread
01012698 g     F .text	00000120 alt_find_file
01011cec g     F .text	000000b4 alt_dev_llist_insert
0100eea8 g     F .text	00000020 __malloc_lock
0100f0e4 g     F .text	000000bc sbrk
01001bbc g     F .text	000000d0 main_setup
0100a428 g     F .text	000001fc _fflush_r
0100d2e0 g     F .text	000000c8 _calloc_r
0100e8bc g     F .text	0000021c gettimeofday
0104a098 g       *ABS*	00000000 __bss_start
0100b8d8 g     F .text	00000098 memset
010001f0 g     F .text	000006b8 main
0104a0d0 g     O .bss	00000004 alt_envp
0104a0a4 g     O .bss	00000004 __malloc_max_total_mem
01010820 g     F .text	00000058 alt_up_pixel_buffer_dma_swap_buffers
0101035c g     F .text	00000040 alt_up_char_buffer_open_dev
0100f884 g     F .text	00000058 altera_avalon_jtag_uart_write_fd
010069e0 g     F .text	0000001c srand
0100d060 g     F .text	00000008 __sclose
01800000 g       *ABS*	00000000 __alt_heap_limit
0100d528 g     F .text	00000014 fclose
0104a208 g     O .bss	00000190 _atexit0
01008e74 g     F .text	000015b4 _dtoa_r
01006174 g     F .text	00000740 _malloc_r
01006b58 g     F .text	0000005c time
0104858c g     O .rwdata	00000004 alt_errno
0100b2f0 g     F .text	000000b8 _fwalk
0100598c g     F .text	00000060 __divsi3
010466e8 g     O .rodata	00000014 __thenan_df
0100a94c g     F .text	0000012c _malloc_trim_r
01012c94 g       *ABS*	00000000 __CTOR_END__
0100d1ac g     F .text	000000bc strcmp
01012c94 g       *ABS*	00000000 __flash_rodata_start
01012c94 g       *ABS*	00000000 __DTOR_LIST__
01001868 g     F .text	000001f8 main_2
01004954 g     F .text	00000024 copysign
0100e3dc g     F .text	00000088 __nedf2
0100f4c8 g     F .text	00000034 alt_irq_init
0100f06c g     F .text	00000078 alt_release_fd
010020f8 g     F .text	00000154 update_power
010466fc g     O .rodata	00000100 __clz_tab
0104a0b4 g     O .bss	00000004 _PathLocale
01012888 g     F .text	00000014 atexit
0100d268 g     F .text	00000078 _write_r
0100b4c4 g     F .text	0000001c setlocale
01000e00 g     F .text	0000010c draw_cannon1
01048568 g     O .rwdata	00000004 _impure_ptr
0104a0c8 g     O .bss	00000004 alt_argc
01004774 g     F .text	000001e0 scalbn
01011e64 g     F .text	00000064 _do_dtors
01000020 g       .exceptions	00000000 alt_irq_entry
0100bb2c g     F .text	00000080 __ulp
0100cff0 g     F .text	00000040 __isinfd
0100a774 g     F .text	00000018 __fp_unlock_all
01048578 g     O .rwdata	00000008 alt_fs_list
0104a0c0 g     O .bss	00000008 alt_resettime
01000020 g       *ABS*	00000000 __ram_exceptions_start
0100b430 g     F .text	00000010 localeconv
01011f78 g     F .text	00000050 alt_ic_isr_register
010485a0 g       *ABS*	00000000 _edata
0104a398 g       *ABS*	00000000 _end
01001a60 g     F .text	0000015c main_ex5
0100092c g     F .text	000000a4 draw_ball_1
010001b4 g       *ABS*	00000000 __ram_exceptions_end
0100fd80 g     F .text	000000f4 altera_avalon_jtag_uart_ioctl
01012064 g     F .text	000000a0 alt_ic_irq_disable
0100d0d0 g     F .text	0000007c __swrite
01048560 g     O .rwdata	00000004 __malloc_trim_threshold
01012678 g     F .text	00000020 altera_nios2_qsys_irq_init
0101289c g     F .text	00000038 exit
0100b228 g     F .text	000000c8 _fwalk_reent
0100c128 g     F .text	0000018c __mdiff
010059ec g     F .text	00000060 __modsi3
01800000 g       *ABS*	00000000 __alt_data_end
01000020 g     F .exceptions	00000000 alt_exception
0100a6b4 g     F .text	00000004 __sfp_lock_release
01000000 g       *ABS*	00000000 __alt_mem_sdram
01012c70 g     F .text	00000020 _exit
0100d030 g     F .text	00000030 __isnand
01011b7c g     F .text	00000154 alt_alarm_start
01005a94 g     F .text	00000124 __muldi3
0100b4e0 g     F .text	00000194 __smakebuf_r
01006ae4 g     F .text	00000074 strlen
0101248c g     F .text	0000018c open
010055a8 g     F .text	00000088 __gedf2
010009d0 g     F .text	0000010c draw_bomb
01011f5c g     F .text	0000001c alt_icache_flush_all
010011ec g     F .text	000000c8 animate_cannon2_shot
0104859c g     O .rwdata	00000004 alt_priority_mask
010015d8 g     F .text	00000100 draw_bmp
01011fc8 g     F .text	0000009c alt_ic_irq_enable
01008ad0 g     F .text	00000024 __vfprintf_internal
01004d88 g     F .text	00000080 __subdf3
0100ba08 g     F .text	000000c4 __lo0bits
01048594 g     O .rwdata	00000008 alt_alarm_list
01011e00 g     F .text	00000064 _do_ctors
0100e5f8 g     F .text	00000100 close
0100ebfc g     F .text	00000080 alt_load
01005c38 g     F .text	00000314 __pack_d
0100614c g     F .text	00000014 free
0100a6b8 g     F .text	00000004 __sinit_lock_acquire
0100c690 g     F .text	0000012c __multadd
0100b970 g     F .text	00000028 _Bfree



Disassembly of section .entry:

01000000 <__reset>:
 * Jump to the _start entry point in the .text section if reset code
 * is allowed or if optimizing for RTL simulation.
 */
#if defined(ALT_ALLOW_CODE_AT_RESET) || defined(ALT_SIM_OPTIMIZE)
    /* Jump to the _start entry point in the .text section. */
    movhi r1, %hi(_start)
 1000000:	00404034 	movhi	at,256
    ori r1, r1, %lo(_start)
 1000004:	08406d14 	ori	at,at,436
    jmp r1
 1000008:	0800683a 	jmp	at
	...

Disassembly of section .exceptions:

01000020 <alt_exception>:
         * Process an exception.  For all exceptions we must preserve all
         * caller saved registers on the stack (See the Nios2 ABI
         * documentation for details).
         */

        addi  sp, sp, -76
 1000020:	deffed04 	addi	sp,sp,-76

#endif

#endif

        stw   ra,  0(sp)
 1000024:	dfc00015 	stw	ra,0(sp)
        /*
         * Leave a gap in the stack frame at 4(sp) for the muldiv handler to
         * store zero into.
         */

        stw   r1,   8(sp)
 1000028:	d8400215 	stw	at,8(sp)
        stw   r2,  12(sp)
 100002c:	d8800315 	stw	r2,12(sp)
        stw   r3,  16(sp)
 1000030:	d8c00415 	stw	r3,16(sp)
        stw   r4,  20(sp)
 1000034:	d9000515 	stw	r4,20(sp)
        stw   r5,  24(sp)
 1000038:	d9400615 	stw	r5,24(sp)
        stw   r6,  28(sp)
 100003c:	d9800715 	stw	r6,28(sp)
        stw   r7,  32(sp)
 1000040:	d9c00815 	stw	r7,32(sp)

        rdctl r5, estatus
 1000044:	000b307a 	rdctl	r5,estatus

        stw   r8,  36(sp)
 1000048:	da000915 	stw	r8,36(sp)
        stw   r9,  40(sp)
 100004c:	da400a15 	stw	r9,40(sp)
        stw   r10, 44(sp)
 1000050:	da800b15 	stw	r10,44(sp)
        stw   r11, 48(sp)
 1000054:	dac00c15 	stw	r11,48(sp)
        stw   r12, 52(sp)
 1000058:	db000d15 	stw	r12,52(sp)
        stw   r13, 56(sp)
 100005c:	db400e15 	stw	r13,56(sp)
        stw   r14, 60(sp)
 1000060:	db800f15 	stw	r14,60(sp)
        stw   r15, 64(sp)
 1000064:	dbc01015 	stw	r15,64(sp)
        /*
         * ea-4 contains the address of the instruction being executed
         * when the exception occured. For interrupt exceptions, we will
         * will be re-issue the isntruction. Store it in 72(sp)
         */
        stw   r5,  68(sp)  /* estatus */
 1000068:	d9401115 	stw	r5,68(sp)
        addi  r15, ea, -4  /* instruction that caused exception */
 100006c:	ebffff04 	addi	r15,ea,-4
        stw   r15,  72(sp)
 1000070:	dbc01215 	stw	r15,72(sp)
#else
        /*
         * Test to see if the exception was a software exception or caused 
         * by an external interrupt, and vector accordingly.
         */
        rdctl r4, ipending
 1000074:	0009313a 	rdctl	r4,ipending
        andi  r2, r5, 1
 1000078:	2880004c 	andi	r2,r5,1
        beq   r2, zero, .Lnot_irq
 100007c:	10000326 	beq	r2,zero,100008c <alt_exception+0x6c>
        beq   r4, zero, .Lnot_irq
 1000080:	20000226 	beq	r4,zero,100008c <alt_exception+0x6c>
        /*
         * Now that all necessary registers have been preserved, call 
         * alt_irq_handler() to process the interrupts.
         */

        call alt_irq_handler
 1000084:	10000ec0 	call	10000ec <alt_irq_handler>

        .section .exceptions.irqreturn, "xa"

        br    .Lexception_exit
 1000088:	00000306 	br	1000098 <alt_exception+0x78>
         * upon completion, so we write ea (address of instruction *after*
         * the one where the exception occured) into 72(sp). The actual
         * instruction that caused the exception is written in r2, which these
         * handlers will utilize.
         */
        stw   ea,  72(sp)  /* Don't re-issue */
 100008c:	df401215 	stw	ea,72(sp)
        ldw   r2, -4(ea)   /* Instruction that caused exception */
 1000090:	e8bfff17 	ldw	r2,-4(ea)
#ifdef NIOS2_HAS_DEBUG_STUB
       /*
        *  Either tell the user now (if there is a debugger attached) or go into
        *  the debug monitor which will loop until a debugger is attached.
        */
        break
 1000094:	003da03a 	break	0
        /* 
         * Restore the saved registers, so that all general purpose registers 
         * have been restored to their state at the time the interrupt occured.
         */

        ldw   r5,  68(sp)
 1000098:	d9401117 	ldw	r5,68(sp)
        ldw   ea,  72(sp)  /* This becomes the PC once eret is executed */
 100009c:	df401217 	ldw	ea,72(sp)
        ldw   ra,   0(sp)
 10000a0:	dfc00017 	ldw	ra,0(sp)

        wrctl estatus, r5
 10000a4:	2801707a 	wrctl	estatus,r5

        ldw   r1,   8(sp)
 10000a8:	d8400217 	ldw	at,8(sp)
        ldw   r2,  12(sp)
 10000ac:	d8800317 	ldw	r2,12(sp)
        ldw   r3,  16(sp)
 10000b0:	d8c00417 	ldw	r3,16(sp)
        ldw   r4,  20(sp)
 10000b4:	d9000517 	ldw	r4,20(sp)
        ldw   r5,  24(sp)
 10000b8:	d9400617 	ldw	r5,24(sp)
        ldw   r6,  28(sp)
 10000bc:	d9800717 	ldw	r6,28(sp)
        ldw   r7,  32(sp)
 10000c0:	d9c00817 	ldw	r7,32(sp)
#ifdef ALT_STACK_CHECK
        ldw   et, %gprel(alt_exception_old_stack_limit)(gp)
#endif
#endif

        ldw   r8,  36(sp)
 10000c4:	da000917 	ldw	r8,36(sp)
        ldw   r9,  40(sp)
 10000c8:	da400a17 	ldw	r9,40(sp)
        ldw   r10, 44(sp)
 10000cc:	da800b17 	ldw	r10,44(sp)
        ldw   r11, 48(sp)
 10000d0:	dac00c17 	ldw	r11,48(sp)
        ldw   r12, 52(sp)
 10000d4:	db000d17 	ldw	r12,52(sp)
        ldw   r13, 56(sp)
 10000d8:	db400e17 	ldw	r13,56(sp)
        ldw   r14, 60(sp)
 10000dc:	db800f17 	ldw	r14,60(sp)
        ldw   r15, 64(sp)
 10000e0:	dbc01017 	ldw	r15,64(sp)
#endif

        ldw   sp,  76(sp)

#else
        addi  sp, sp, 76
 10000e4:	dec01304 	addi	sp,sp,76

        /*
         * Return to the interrupted instruction.
         */

        eret
 10000e8:	ef80083a 	eret

010000ec <alt_irq_handler>:
 * instruction is present if the macro ALT_CI_INTERRUPT_VECTOR defined.
 */

void alt_irq_handler (void) __attribute__ ((section (".exceptions")));
void alt_irq_handler (void)
{
 10000ec:	defff904 	addi	sp,sp,-28
 10000f0:	dfc00615 	stw	ra,24(sp)
 10000f4:	df000515 	stw	fp,20(sp)
 10000f8:	df000504 	addi	fp,sp,20
#ifndef NIOS2_EIC_PRESENT
static ALT_INLINE alt_u32 ALT_ALWAYS_INLINE alt_irq_pending (void)
{
  alt_u32 active;

  NIOS2_READ_IPENDING (active);
 10000fc:	0005313a 	rdctl	r2,ipending
 1000100:	e0bffc15 	stw	r2,-16(fp)

  return active;
 1000104:	e0bffc17 	ldw	r2,-16(fp)
   * Consider the case where the high priority interupt is asserted during
   * the interrupt entry sequence for a lower priority interrupt to see why
   * this is the case.
   */

  active = alt_irq_pending ();
 1000108:	e0bfff15 	stw	r2,-4(fp)

  do
  {
    i = 0;
 100010c:	e03ffd15 	stw	zero,-12(fp)
    mask = 1;
 1000110:	00800044 	movi	r2,1
 1000114:	e0bffe15 	stw	r2,-8(fp)
     * called to clear the interrupt condition.
     */

    do
    {
      if (active & mask)
 1000118:	e0ffff17 	ldw	r3,-4(fp)
 100011c:	e0bffe17 	ldw	r2,-8(fp)
 1000120:	1884703a 	and	r2,r3,r2
 1000124:	1005003a 	cmpeq	r2,r2,zero
 1000128:	1000161e 	bne	r2,zero,1000184 <alt_irq_handler+0x98>
      { 
#ifdef ALT_ENHANCED_INTERRUPT_API_PRESENT
        alt_irq[i].handler(alt_irq[i].context); 
 100012c:	e0bffd17 	ldw	r2,-12(fp)
 1000130:	00c04174 	movhi	r3,261
 1000134:	18e84204 	addi	r3,r3,-24312
 1000138:	100490fa 	slli	r2,r2,3
 100013c:	10c5883a 	add	r2,r2,r3
 1000140:	11400017 	ldw	r5,0(r2)
 1000144:	e0bffd17 	ldw	r2,-12(fp)
 1000148:	00c04174 	movhi	r3,261
 100014c:	18e84204 	addi	r3,r3,-24312
 1000150:	100490fa 	slli	r2,r2,3
 1000154:	10c5883a 	add	r2,r2,r3
 1000158:	10800104 	addi	r2,r2,4
 100015c:	11000017 	ldw	r4,0(r2)
 1000160:	283ee83a 	callr	r5
#ifndef NIOS2_EIC_PRESENT
static ALT_INLINE alt_u32 ALT_ALWAYS_INLINE alt_irq_pending (void)
{
  alt_u32 active;

  NIOS2_READ_IPENDING (active);
 1000164:	0005313a 	rdctl	r2,ipending
 1000168:	e0bffb15 	stw	r2,-20(fp)

  return active;
 100016c:	e0bffb17 	ldw	r2,-20(fp)
      mask <<= 1;
      i++;

    } while (1);

    active = alt_irq_pending ();
 1000170:	e0bfff15 	stw	r2,-4(fp)
    
  } while (active);
 1000174:	e0bfff17 	ldw	r2,-4(fp)
 1000178:	1004c03a 	cmpne	r2,r2,zero
 100017c:	103fe31e 	bne	r2,zero,100010c <alt_irq_handler+0x20>
 1000180:	00000706 	br	10001a0 <alt_irq_handler+0xb4>
#else
        alt_irq[i].handler(alt_irq[i].context, i); 
#endif
        break;
      }
      mask <<= 1;
 1000184:	e0bffe17 	ldw	r2,-8(fp)
 1000188:	1085883a 	add	r2,r2,r2
 100018c:	e0bffe15 	stw	r2,-8(fp)
      i++;
 1000190:	e0bffd17 	ldw	r2,-12(fp)
 1000194:	10800044 	addi	r2,r2,1
 1000198:	e0bffd15 	stw	r2,-12(fp)

    } while (1);
 100019c:	003fde06 	br	1000118 <alt_irq_handler+0x2c>
  /*
   * Notify the operating system that interrupt processing is complete.
   */ 

  ALT_OS_INT_EXIT();
}
 10001a0:	e037883a 	mov	sp,fp
 10001a4:	dfc00117 	ldw	ra,4(sp)
 10001a8:	df000017 	ldw	fp,0(sp)
 10001ac:	dec00204 	addi	sp,sp,8
 10001b0:	f800283a 	ret

Disassembly of section .text:

010001b4 <_start>:
#if (NIOS2_NUM_OF_SHADOW_REG_SETS == 0)    
    /*
     * Now that the caches are initialized, set up the stack pointer.
     * The value provided by the linker is assumed to be correctly aligned.
     */
    movhi sp, %hi(__alt_stack_pointer)
 10001b4:	06c06034 	movhi	sp,384
    ori sp, sp, %lo(__alt_stack_pointer)
 10001b8:	dec00014 	ori	sp,sp,0

    /* Set up the global pointer. */
    movhi gp, %hi(_gp)
 10001bc:	06804174 	movhi	gp,261
    ori gp, gp, %lo(_gp)
 10001c0:	d6815814 	ori	gp,gp,1376
 */
#ifndef ALT_SIM_OPTIMIZE
    /* Log that the BSS is about to be cleared. */
    ALT_LOG_PUTS(alt_log_msg_bss)

    movhi r2, %hi(__bss_start)
 10001c4:	00804134 	movhi	r2,260
    ori r2, r2, %lo(__bss_start)
 10001c8:	10a82614 	ori	r2,r2,41112

    movhi r3, %hi(__bss_end)
 10001cc:	00c04134 	movhi	r3,260
    ori r3, r3, %lo(__bss_end)
 10001d0:	18e8e614 	ori	r3,r3,41880

    beq r2, r3, 1f
 10001d4:	10c00326 	beq	r2,r3,10001e4 <_start+0x30>

0:
    stw zero, (r2)
 10001d8:	10000015 	stw	zero,0(r2)
    addi r2, r2, 4
 10001dc:	10800104 	addi	r2,r2,4
    bltu r2, r3, 0b
 10001e0:	10fffd36 	bltu	r2,r3,10001d8 <_start+0x24>
     * section aren't defined until alt_load() has been called).
     */
    mov   et, zero
#endif

    call alt_load
 10001e4:	100ebfc0 	call	100ebfc <alt_load>

    /* Log that alt_main is about to be called. */
    ALT_LOG_PUTS(alt_log_msg_alt_main)

    /* Call the C entry point. It should never return. */
    call alt_main
 10001e8:	100ee3c0 	call	100ee3c <alt_main>

010001ec <alt_after_alt_main>:

    /* Wait in infinite loop in case alt_main does return. */
alt_after_alt_main:
    br alt_after_alt_main
 10001ec:	003fff06 	br	10001ec <alt_after_alt_main>

010001f0 <main>:
void draw_player2(alt_up_pixel_buffer_dma_dev* pixel_buffer, int x, int y );
void draw_bmp(alt_up_pixel_buffer_dma_dev* pixel_buffer, unsigned short *pixel_data, int image_width, int image_height, int x, int y);
void animate_cannon1_shot(alt_up_pixel_buffer_dma_dev* pixel_buffer);

int main(void)
{
 10001f0:	deffdc04 	addi	sp,sp,-144
 10001f4:	dfc02315 	stw	ra,140(sp)
 10001f8:	df002215 	stw	fp,136(sp)
 10001fc:	dc802115 	stw	r18,132(sp)
 1000200:	dc402015 	stw	r17,128(sp)
 1000204:	dc001f15 	stw	r16,124(sp)
 1000208:	df001f04 	addi	fp,sp,124
	//set up pixel buffer
	alt_up_pixel_buffer_dma_dev* pixel_buffer;
	pixel_buffer = alt_up_pixel_buffer_dma_open_dev("/dev/video_pixel_buffer_dma_0");
 100020c:	010040f4 	movhi	r4,259
 1000210:	21318e04 	addi	r4,r4,-14792
 1000214:	10105dc0 	call	10105dc <alt_up_pixel_buffer_dma_open_dev>
 1000218:	e0bfff15 	stw	r2,-4(fp)
	if (pixel_buffer == 0) {
 100021c:	e0bfff17 	ldw	r2,-4(fp)
 1000220:	1004c03a 	cmpne	r2,r2,zero
 1000224:	1000031e 	bne	r2,zero,1000234 <main+0x44>
		printf("error initializing pixel buffer (check name in alt_up_pixel_buffer_dma_open_dev)\n");
 1000228:	010040f4 	movhi	r4,259
 100022c:	21319604 	addi	r4,r4,-14760
 1000230:	10069cc0 	call	10069cc <puts>
	}
	alt_up_pixel_buffer_dma_change_back_buffer_address(pixel_buffer, SRAM_0_BASE);
 1000234:	e13fff17 	ldw	r4,-4(fp)
 1000238:	01400234 	movhi	r5,8
 100023c:	10107c80 	call	10107c8 <alt_up_pixel_buffer_dma_change_back_buffer_address>
	alt_up_pixel_buffer_dma_swap_buffers(pixel_buffer);
 1000240:	e13fff17 	ldw	r4,-4(fp)
 1000244:	10108200 	call	1010820 <alt_up_pixel_buffer_dma_swap_buffers>
	while (alt_up_pixel_buffer_dma_check_swap_buffers_status(pixel_buffer));
 1000248:	e13fff17 	ldw	r4,-4(fp)
 100024c:	10108780 	call	1010878 <alt_up_pixel_buffer_dma_check_swap_buffers_status>
 1000250:	1004c03a 	cmpne	r2,r2,zero
 1000254:	103ffc1e 	bne	r2,zero,1000248 <main+0x58>
	alt_up_pixel_buffer_dma_clear_screen(pixel_buffer, 0);
 1000258:	e13fff17 	ldw	r4,-4(fp)
 100025c:	000b883a 	mov	r5,zero
 1000260:	10108ac0 	call	10108ac <alt_up_pixel_buffer_dma_clear_screen>
	srand(time(NULL));
 1000264:	0009883a 	mov	r4,zero
 1000268:	1006b580 	call	1006b58 <time>
 100026c:	1009883a 	mov	r4,r2
 1000270:	10069e00 	call	10069e0 <srand>

	draw_box_1(0, 0, 320, 240, BACKGROUND); //draw white background
 1000274:	00b3ffd4 	movui	r2,53247
 1000278:	d8800015 	stw	r2,0(sp)
 100027c:	0009883a 	mov	r4,zero
 1000280:	000b883a 	mov	r5,zero
 1000284:	01805004 	movi	r6,320
 1000288:	01c03c04 	movi	r7,240
 100028c:	10008a80 	call	10008a8 <draw_box_1>
	draw_ground(pixel_buffer, 0, 240-GROUND_HEIGHT);
 1000290:	e13fff17 	ldw	r4,-4(fp)
 1000294:	000b883a 	mov	r5,zero
 1000298:	01803484 	movi	r6,210
 100029c:	1000adc0 	call	1000adc <draw_ground>

	draw_player1(pixel_buffer, 0, 240-GROUND_HEIGHT-PLAYER_1_HEIGHT);
 10002a0:	e13fff17 	ldw	r4,-4(fp)
 10002a4:	000b883a 	mov	r5,zero
 10002a8:	01802e44 	movi	r6,185
 10002ac:	1000be80 	call	1000be8 <draw_player1>
	draw_player2(pixel_buffer, 320-PLAYER_2_WIDTH, 240-GROUND_HEIGHT-PLAYER_2_HEIGHT);
 10002b0:	e13fff17 	ldw	r4,-4(fp)
 10002b4:	01404b04 	movi	r5,300
 10002b8:	01802e44 	movi	r6,185
 10002bc:	1000cf40 	call	1000cf4 <draw_player2>
	draw_cannon1(pixel_buffer, PLAYER_1_WIDTH, 240-GROUND_HEIGHT-CANNON_1_HEIGHT);
 10002c0:	e13fff17 	ldw	r4,-4(fp)
 10002c4:	01400504 	movi	r5,20
 10002c8:	01802e44 	movi	r6,185
 10002cc:	1000e000 	call	1000e00 <draw_cannon1>
	draw_cannon2(pixel_buffer, 320-PLAYER_2_WIDTH-CANNON_2_WIDTH, 240-GROUND_HEIGHT-CANNON_1_HEIGHT);
 10002d0:	e13fff17 	ldw	r4,-4(fp)
 10002d4:	014044c4 	movi	r5,275
 10002d8:	01802e44 	movi	r6,185
 10002dc:	10012b40 	call	10012b4 <draw_cannon2>

	draw_p1box(pixel_buffer, 5, 240-P1BOX_HEIGHT-5);
 10002e0:	e13fff17 	ldw	r4,-4(fp)
 10002e4:	01400144 	movi	r5,5
 10002e8:	01803704 	movi	r6,220
 10002ec:	10016d80 	call	10016d8 <draw_p1box>
	draw_p2box(pixel_buffer, 320-5-P2BOX_WIDTH, 240-P1BOX_HEIGHT-5);
 10002f0:	e13fff17 	ldw	r4,-4(fp)
 10002f4:	014038c4 	movi	r5,227
 10002f8:	01803704 	movi	r6,220
 10002fc:	10017a00 	call	10017a0 <draw_p2box>

	double velocity = 60;
 1000300:	e03ffd15 	stw	zero,-12(fp)
 1000304:	009013b4 	movhi	r2,16462
 1000308:	e0bffe15 	stw	r2,-8(fp)
	double angle = 50;
 100030c:	e03ffb15 	stw	zero,-20(fp)
 1000310:	00901274 	movhi	r2,16457
 1000314:	e0bffc15 	stw	r2,-16(fp)
	double theta = angle*3.14/180;
 1000318:	e13ffb17 	ldw	r4,-20(fp)
 100031c:	e17ffc17 	ldw	r5,-16(fp)
 1000320:	01947b34 	movhi	r6,20972
 1000324:	31a147c4 	addi	r6,r6,-31457
 1000328:	01d00274 	movhi	r7,16393
 100032c:	39c7ae04 	addi	r7,r7,7864
 1000330:	1004e7c0 	call	1004e7c <__muldf3>
 1000334:	1009883a 	mov	r4,r2
 1000338:	180b883a 	mov	r5,r3
 100033c:	2005883a 	mov	r2,r4
 1000340:	2807883a 	mov	r3,r5
 1000344:	1009883a 	mov	r4,r2
 1000348:	180b883a 	mov	r5,r3
 100034c:	000d883a 	mov	r6,zero
 1000350:	01d019f4 	movhi	r7,16487
 1000354:	39e00004 	addi	r7,r7,-32768
 1000358:	10052400 	call	1005240 <__divdf3>
 100035c:	1009883a 	mov	r4,r2
 1000360:	180b883a 	mov	r5,r3
 1000364:	e13ff915 	stw	r4,-28(fp)
 1000368:	e17ffa15 	stw	r5,-24(fp)
	double x;
	double y;
	double cannonX;
	double cannonY = 240-GROUND_HEIGHT-CANNON_1_HEIGHT-5;
 100036c:	e03ff115 	stw	zero,-60(fp)
 1000370:	009019f4 	movhi	r2,16487
 1000374:	10a00004 	addi	r2,r2,-32768
 1000378:	e0bff215 	stw	r2,-56(fp)
	int player = 1;
 100037c:	00800044 	movi	r2,1
 1000380:	e0bff015 	stw	r2,-64(fp)

	double x1_old,y1_old,x2_old,y2_old;
	double timeScale=0.2;
 1000384:	00a666b4 	movhi	r2,39322
 1000388:	10a66684 	addi	r2,r2,-26214
 100038c:	e0bfe615 	stw	r2,-104(fp)
 1000390:	008ff2b4 	movhi	r2,16330
 1000394:	10a66644 	addi	r2,r2,-26215
 1000398:	e0bfe715 	stw	r2,-100(fp)
	double totalTime = 2*velocity*sin(theta)/9.8;
 100039c:	e0bffd17 	ldw	r2,-12(fp)
 10003a0:	e0fffe17 	ldw	r3,-8(fp)
 10003a4:	1009883a 	mov	r4,r2
 10003a8:	180b883a 	mov	r5,r3
 10003ac:	100d883a 	mov	r6,r2
 10003b0:	180f883a 	mov	r7,r3
 10003b4:	1004e080 	call	1004e08 <__adddf3>
 10003b8:	1009883a 	mov	r4,r2
 10003bc:	180b883a 	mov	r5,r3
 10003c0:	2021883a 	mov	r16,r4
 10003c4:	2823883a 	mov	r17,r5
 10003c8:	e13ff917 	ldw	r4,-28(fp)
 10003cc:	e17ffa17 	ldw	r5,-24(fp)
 10003d0:	10024dc0 	call	10024dc <sin>
 10003d4:	100f883a 	mov	r7,r2
 10003d8:	1811883a 	mov	r8,r3
 10003dc:	8009883a 	mov	r4,r16
 10003e0:	880b883a 	mov	r5,r17
 10003e4:	380d883a 	mov	r6,r7
 10003e8:	400f883a 	mov	r7,r8
 10003ec:	1004e7c0 	call	1004e7c <__muldf3>
 10003f0:	1009883a 	mov	r4,r2
 10003f4:	180b883a 	mov	r5,r3
 10003f8:	2005883a 	mov	r2,r4
 10003fc:	2807883a 	mov	r3,r5
 1000400:	1009883a 	mov	r4,r2
 1000404:	180b883a 	mov	r5,r3
 1000408:	01a666b4 	movhi	r6,39322
 100040c:	31a66684 	addi	r6,r6,-26214
 1000410:	01d00934 	movhi	r7,16420
 1000414:	39e66644 	addi	r7,r7,-26215
 1000418:	10052400 	call	1005240 <__divdf3>
 100041c:	1009883a 	mov	r4,r2
 1000420:	180b883a 	mov	r5,r3
 1000424:	e13fe415 	stw	r4,-112(fp)
 1000428:	e17fe515 	stw	r5,-108(fp)
	printf("Total Time = %f\n",totalTime);
 100042c:	010040f4 	movhi	r4,259
 1000430:	2131ab04 	addi	r4,r4,-14676
 1000434:	e17fe417 	ldw	r5,-112(fp)
 1000438:	e1bfe517 	ldw	r6,-108(fp)
 100043c:	10068b40 	call	10068b4 <printf>
	double t = 0;
 1000440:	e03fe215 	stw	zero,-120(fp)
 1000444:	e03fe315 	stw	zero,-116(fp)
	while(1){

		t=0;
 1000448:	e03fe215 	stw	zero,-120(fp)
 100044c:	e03fe315 	stw	zero,-116(fp)
		if(player==1){
 1000450:	e0bff017 	ldw	r2,-64(fp)
 1000454:	10800058 	cmpnei	r2,r2,1
 1000458:	1000071e 	bne	r2,zero,1000478 <main+0x288>
				animate_cannon1_shot(pixel_buffer);
 100045c:	e13fff17 	ldw	r4,-4(fp)
 1000460:	10011240 	call	1001124 <animate_cannon1_shot>
				cannonX = PLAYER_1_WIDTH + CANNON_1_WIDTH;
 1000464:	e03ff315 	stw	zero,-52(fp)
 1000468:	009011f4 	movhi	r2,16455
 100046c:	10a00004 	addi	r2,r2,-32768
 1000470:	e0bff415 	stw	r2,-48(fp)
 1000474:	00010006 	br	1000878 <main+0x688>
			}else{
				animate_cannon2_shot(pixel_buffer);
 1000478:	e13fff17 	ldw	r4,-4(fp)
 100047c:	10011ec0 	call	10011ec <animate_cannon2_shot>
				cannonX=320-PLAYER_2_WIDTH - CANNON_2_WIDTH;;
 1000480:	e03ff315 	stw	zero,-52(fp)
 1000484:	00901c74 	movhi	r2,16497
 1000488:	108c0004 	addi	r2,r2,12288
 100048c:	e0bff415 	stw	r2,-48(fp)
			}

		while(t<totalTime){
 1000490:	0000f906 	br	1000878 <main+0x688>
			if(player==1){
 1000494:	e0bff017 	ldw	r2,-64(fp)
 1000498:	10800058 	cmpnei	r2,r2,1
 100049c:	1000211e 	bne	r2,zero,1000524 <main+0x334>
				x = cannonX+velocity*t*cos(theta);
 10004a0:	e13ffd17 	ldw	r4,-12(fp)
 10004a4:	e17ffe17 	ldw	r5,-8(fp)
 10004a8:	e1bfe217 	ldw	r6,-120(fp)
 10004ac:	e1ffe317 	ldw	r7,-116(fp)
 10004b0:	1004e7c0 	call	1004e7c <__muldf3>
 10004b4:	1009883a 	mov	r4,r2
 10004b8:	180b883a 	mov	r5,r3
 10004bc:	2021883a 	mov	r16,r4
 10004c0:	2823883a 	mov	r17,r5
 10004c4:	e13ff917 	ldw	r4,-28(fp)
 10004c8:	e17ffa17 	ldw	r5,-24(fp)
 10004cc:	10023740 	call	1002374 <cos>
 10004d0:	100f883a 	mov	r7,r2
 10004d4:	1811883a 	mov	r8,r3
 10004d8:	8009883a 	mov	r4,r16
 10004dc:	880b883a 	mov	r5,r17
 10004e0:	380d883a 	mov	r6,r7
 10004e4:	400f883a 	mov	r7,r8
 10004e8:	1004e7c0 	call	1004e7c <__muldf3>
 10004ec:	1009883a 	mov	r4,r2
 10004f0:	180b883a 	mov	r5,r3
 10004f4:	2005883a 	mov	r2,r4
 10004f8:	2807883a 	mov	r3,r5
 10004fc:	1009883a 	mov	r4,r2
 1000500:	180b883a 	mov	r5,r3
 1000504:	e1bff317 	ldw	r6,-52(fp)
 1000508:	e1fff417 	ldw	r7,-48(fp)
 100050c:	1004e080 	call	1004e08 <__adddf3>
 1000510:	1009883a 	mov	r4,r2
 1000514:	180b883a 	mov	r5,r3
 1000518:	e13ff715 	stw	r4,-36(fp)
 100051c:	e17ff815 	stw	r5,-32(fp)
 1000520:	00002006 	br	10005a4 <main+0x3b4>
			}else{
				x = cannonX-velocity*t*cos(theta);
 1000524:	e13ffd17 	ldw	r4,-12(fp)
 1000528:	e17ffe17 	ldw	r5,-8(fp)
 100052c:	e1bfe217 	ldw	r6,-120(fp)
 1000530:	e1ffe317 	ldw	r7,-116(fp)
 1000534:	1004e7c0 	call	1004e7c <__muldf3>
 1000538:	1009883a 	mov	r4,r2
 100053c:	180b883a 	mov	r5,r3
 1000540:	2021883a 	mov	r16,r4
 1000544:	2823883a 	mov	r17,r5
 1000548:	e13ff917 	ldw	r4,-28(fp)
 100054c:	e17ffa17 	ldw	r5,-24(fp)
 1000550:	10023740 	call	1002374 <cos>
 1000554:	100f883a 	mov	r7,r2
 1000558:	1811883a 	mov	r8,r3
 100055c:	8009883a 	mov	r4,r16
 1000560:	880b883a 	mov	r5,r17
 1000564:	380d883a 	mov	r6,r7
 1000568:	400f883a 	mov	r7,r8
 100056c:	1004e7c0 	call	1004e7c <__muldf3>
 1000570:	1009883a 	mov	r4,r2
 1000574:	180b883a 	mov	r5,r3
 1000578:	2005883a 	mov	r2,r4
 100057c:	2807883a 	mov	r3,r5
 1000580:	e13ff317 	ldw	r4,-52(fp)
 1000584:	e17ff417 	ldw	r5,-48(fp)
 1000588:	100d883a 	mov	r6,r2
 100058c:	180f883a 	mov	r7,r3
 1000590:	1004d880 	call	1004d88 <__subdf3>
 1000594:	1009883a 	mov	r4,r2
 1000598:	180b883a 	mov	r5,r3
 100059c:	e13ff715 	stw	r4,-36(fp)
 10005a0:	e17ff815 	stw	r5,-32(fp)
			}
			y = cannonY-(velocity*t*sin(theta) - 4.9*t*t);
 10005a4:	e13ffd17 	ldw	r4,-12(fp)
 10005a8:	e17ffe17 	ldw	r5,-8(fp)
 10005ac:	e1bfe217 	ldw	r6,-120(fp)
 10005b0:	e1ffe317 	ldw	r7,-116(fp)
 10005b4:	1004e7c0 	call	1004e7c <__muldf3>
 10005b8:	1009883a 	mov	r4,r2
 10005bc:	180b883a 	mov	r5,r3
 10005c0:	2021883a 	mov	r16,r4
 10005c4:	2823883a 	mov	r17,r5
 10005c8:	e13ff917 	ldw	r4,-28(fp)
 10005cc:	e17ffa17 	ldw	r5,-24(fp)
 10005d0:	10024dc0 	call	10024dc <sin>
 10005d4:	100f883a 	mov	r7,r2
 10005d8:	1811883a 	mov	r8,r3
 10005dc:	8009883a 	mov	r4,r16
 10005e0:	880b883a 	mov	r5,r17
 10005e4:	380d883a 	mov	r6,r7
 10005e8:	400f883a 	mov	r7,r8
 10005ec:	1004e7c0 	call	1004e7c <__muldf3>
 10005f0:	1009883a 	mov	r4,r2
 10005f4:	180b883a 	mov	r5,r3
 10005f8:	2021883a 	mov	r16,r4
 10005fc:	2823883a 	mov	r17,r5
 1000600:	e13fe217 	ldw	r4,-120(fp)
 1000604:	e17fe317 	ldw	r5,-116(fp)
 1000608:	01a666b4 	movhi	r6,39322
 100060c:	31a66684 	addi	r6,r6,-26214
 1000610:	01f00534 	movhi	r7,49172
 1000614:	39e66644 	addi	r7,r7,-26215
 1000618:	1004e7c0 	call	1004e7c <__muldf3>
 100061c:	1009883a 	mov	r4,r2
 1000620:	180b883a 	mov	r5,r3
 1000624:	2005883a 	mov	r2,r4
 1000628:	2807883a 	mov	r3,r5
 100062c:	1009883a 	mov	r4,r2
 1000630:	180b883a 	mov	r5,r3
 1000634:	e1bfe217 	ldw	r6,-120(fp)
 1000638:	e1ffe317 	ldw	r7,-116(fp)
 100063c:	1004e7c0 	call	1004e7c <__muldf3>
 1000640:	1009883a 	mov	r4,r2
 1000644:	180b883a 	mov	r5,r3
 1000648:	2005883a 	mov	r2,r4
 100064c:	2807883a 	mov	r3,r5
 1000650:	8009883a 	mov	r4,r16
 1000654:	880b883a 	mov	r5,r17
 1000658:	100d883a 	mov	r6,r2
 100065c:	180f883a 	mov	r7,r3
 1000660:	1004e080 	call	1004e08 <__adddf3>
 1000664:	1009883a 	mov	r4,r2
 1000668:	180b883a 	mov	r5,r3
 100066c:	2005883a 	mov	r2,r4
 1000670:	2807883a 	mov	r3,r5
 1000674:	e13ff117 	ldw	r4,-60(fp)
 1000678:	e17ff217 	ldw	r5,-56(fp)
 100067c:	100d883a 	mov	r6,r2
 1000680:	180f883a 	mov	r7,r3
 1000684:	1004d880 	call	1004d88 <__subdf3>
 1000688:	1009883a 	mov	r4,r2
 100068c:	180b883a 	mov	r5,r3
 1000690:	e13ff515 	stw	r4,-44(fp)
 1000694:	e17ff615 	stw	r5,-40(fp)
			t+=timeScale;
 1000698:	e13fe217 	ldw	r4,-120(fp)
 100069c:	e17fe317 	ldw	r5,-116(fp)
 10006a0:	e1bfe617 	ldw	r6,-104(fp)
 10006a4:	e1ffe717 	ldw	r7,-100(fp)
 10006a8:	1004e080 	call	1004e08 <__adddf3>
 10006ac:	1009883a 	mov	r4,r2
 10006b0:	180b883a 	mov	r5,r3
 10006b4:	e13fe215 	stw	r4,-120(fp)
 10006b8:	e17fe315 	stw	r5,-116(fp)
			//alt_up_pixel_buffer_dma_clear_screen(pixel_buffer, 0);

			if(y<=187 && x >= 0){
 10006bc:	e13ff517 	ldw	r4,-44(fp)
 10006c0:	e17ff617 	ldw	r5,-40(fp)
 10006c4:	000d883a 	mov	r6,zero
 10006c8:	01d019f4 	movhi	r7,16487
 10006cc:	39d80004 	addi	r7,r7,24576
 10006d0:	10056b80 	call	10056b8 <__ledf2>
 10006d4:	10800050 	cmplti	r2,r2,1
 10006d8:	1000011e 	bne	r2,zero,10006e0 <main+0x4f0>
 10006dc:	00001306 	br	100072c <main+0x53c>
 10006e0:	e13ff717 	ldw	r4,-36(fp)
 10006e4:	e17ff817 	ldw	r5,-32(fp)
 10006e8:	000d883a 	mov	r6,zero
 10006ec:	000f883a 	mov	r7,zero
 10006f0:	10055a80 	call	10055a8 <__gedf2>
 10006f4:	1004403a 	cmpge	r2,r2,zero
 10006f8:	1000011e 	bne	r2,zero,1000700 <main+0x510>
 10006fc:	00000b06 	br	100072c <main+0x53c>
				draw_bomb(pixel_buffer, x, y );
 1000700:	e13ff717 	ldw	r4,-36(fp)
 1000704:	e17ff817 	ldw	r5,-32(fp)
 1000708:	10058380 	call	1005838 <__fixdfsi>
 100070c:	1021883a 	mov	r16,r2
 1000710:	e13ff517 	ldw	r4,-44(fp)
 1000714:	e17ff617 	ldw	r5,-40(fp)
 1000718:	10058380 	call	1005838 <__fixdfsi>
 100071c:	100d883a 	mov	r6,r2
 1000720:	e13fff17 	ldw	r4,-4(fp)
 1000724:	800b883a 	mov	r5,r16
 1000728:	10009d00 	call	10009d0 <draw_bomb>
			}
			if(t>0 && y<=187){
 100072c:	e13fe217 	ldw	r4,-120(fp)
 1000730:	e17fe317 	ldw	r5,-116(fp)
 1000734:	000d883a 	mov	r6,zero
 1000738:	000f883a 	mov	r7,zero
 100073c:	10055200 	call	1005520 <__gtdf2>
 1000740:	10800048 	cmpgei	r2,r2,1
 1000744:	1000011e 	bne	r2,zero,100074c <main+0x55c>
 1000748:	00003106 	br	1000810 <main+0x620>
 100074c:	e13ff517 	ldw	r4,-44(fp)
 1000750:	e17ff617 	ldw	r5,-40(fp)
 1000754:	000d883a 	mov	r6,zero
 1000758:	01d019f4 	movhi	r7,16487
 100075c:	39d80004 	addi	r7,r7,24576
 1000760:	10056b80 	call	10056b8 <__ledf2>
 1000764:	10800050 	cmplti	r2,r2,1
 1000768:	1000011e 	bne	r2,zero,1000770 <main+0x580>
 100076c:	00002806 	br	1000810 <main+0x620>
				draw_box_1(x1_old, y1_old, x1_old+BOMB_WIDTH, y1_old+BOMB_HEIGHT, BACKGROUND);
 1000770:	e13fee17 	ldw	r4,-72(fp)
 1000774:	e17fef17 	ldw	r5,-68(fp)
 1000778:	10058380 	call	1005838 <__fixdfsi>
 100077c:	1021883a 	mov	r16,r2
 1000780:	e13fec17 	ldw	r4,-80(fp)
 1000784:	e17fed17 	ldw	r5,-76(fp)
 1000788:	10058380 	call	1005838 <__fixdfsi>
 100078c:	1023883a 	mov	r17,r2
 1000790:	e13fee17 	ldw	r4,-72(fp)
 1000794:	e17fef17 	ldw	r5,-68(fp)
 1000798:	000d883a 	mov	r6,zero
 100079c:	01d00534 	movhi	r7,16404
 10007a0:	1004e080 	call	1004e08 <__adddf3>
 10007a4:	1009883a 	mov	r4,r2
 10007a8:	180b883a 	mov	r5,r3
 10007ac:	2005883a 	mov	r2,r4
 10007b0:	2807883a 	mov	r3,r5
 10007b4:	1009883a 	mov	r4,r2
 10007b8:	180b883a 	mov	r5,r3
 10007bc:	10058380 	call	1005838 <__fixdfsi>
 10007c0:	1025883a 	mov	r18,r2
 10007c4:	e13fec17 	ldw	r4,-80(fp)
 10007c8:	e17fed17 	ldw	r5,-76(fp)
 10007cc:	000d883a 	mov	r6,zero
 10007d0:	01d00434 	movhi	r7,16400
 10007d4:	1004e080 	call	1004e08 <__adddf3>
 10007d8:	1009883a 	mov	r4,r2
 10007dc:	180b883a 	mov	r5,r3
 10007e0:	2005883a 	mov	r2,r4
 10007e4:	2807883a 	mov	r3,r5
 10007e8:	1009883a 	mov	r4,r2
 10007ec:	180b883a 	mov	r5,r3
 10007f0:	10058380 	call	1005838 <__fixdfsi>
 10007f4:	100f883a 	mov	r7,r2
 10007f8:	00b3ffd4 	movui	r2,53247
 10007fc:	d8800015 	stw	r2,0(sp)
 1000800:	8009883a 	mov	r4,r16
 1000804:	880b883a 	mov	r5,r17
 1000808:	900d883a 	mov	r6,r18
 100080c:	10008a80 	call	10008a8 <draw_box_1>
			}
			x1_old = x;
 1000810:	e0bff717 	ldw	r2,-36(fp)
 1000814:	e0bfee15 	stw	r2,-72(fp)
 1000818:	e0bff817 	ldw	r2,-32(fp)
 100081c:	e0bfef15 	stw	r2,-68(fp)
			y1_old = y;
 1000820:	e0bff517 	ldw	r2,-44(fp)
 1000824:	e0bfec15 	stw	r2,-80(fp)
 1000828:	e0bff617 	ldw	r2,-40(fp)
 100082c:	e0bfed15 	stw	r2,-76(fp)
			x2_old = x+3;
 1000830:	e13ff717 	ldw	r4,-36(fp)
 1000834:	e17ff817 	ldw	r5,-32(fp)
 1000838:	000d883a 	mov	r6,zero
 100083c:	01d00234 	movhi	r7,16392
 1000840:	1004e080 	call	1004e08 <__adddf3>
 1000844:	1009883a 	mov	r4,r2
 1000848:	180b883a 	mov	r5,r3
 100084c:	e13fea15 	stw	r4,-88(fp)
 1000850:	e17feb15 	stw	r5,-84(fp)
			y2_old = y-3;
 1000854:	e13ff517 	ldw	r4,-44(fp)
 1000858:	e17ff617 	ldw	r5,-40(fp)
 100085c:	000d883a 	mov	r6,zero
 1000860:	01d00234 	movhi	r7,16392
 1000864:	1004d880 	call	1004d88 <__subdf3>
 1000868:	1009883a 	mov	r4,r2
 100086c:	180b883a 	mov	r5,r3
 1000870:	e13fe815 	stw	r4,-96(fp)
 1000874:	e17fe915 	stw	r5,-92(fp)
			}else{
				animate_cannon2_shot(pixel_buffer);
				cannonX=320-PLAYER_2_WIDTH - CANNON_2_WIDTH;;
			}

		while(t<totalTime){
 1000878:	e13fe217 	ldw	r4,-120(fp)
 100087c:	e17fe317 	ldw	r5,-116(fp)
 1000880:	e1bfe417 	ldw	r6,-112(fp)
 1000884:	e1ffe517 	ldw	r7,-108(fp)
 1000888:	10056300 	call	1005630 <__ltdf2>
 100088c:	1004803a 	cmplt	r2,r2,zero
 1000890:	103f001e 	bne	r2,zero,1000494 <main+0x2a4>
			y1_old = y;
			x2_old = x+3;
			y2_old = y-3;

		}
		player=1-player;
 1000894:	00800044 	movi	r2,1
 1000898:	e0fff017 	ldw	r3,-64(fp)
 100089c:	10c5c83a 	sub	r2,r2,r3
 10008a0:	e0bff015 	stw	r2,-64(fp)

		//draw_bmp(pixel_buffer, &P1WINS_pixel_data, 90, 60, 50, 10);
	}
 10008a4:	003ee806 	br	1000448 <main+0x258>

010008a8 <draw_box_1>:
    return 0;
}

void draw_box_1(int x_1, int y_1, int x_2, int y_2, unsigned int colour){
 10008a8:	defffb04 	addi	sp,sp,-20
 10008ac:	df000415 	stw	fp,16(sp)
 10008b0:	df000404 	addi	fp,sp,16
 10008b4:	e13ffc15 	stw	r4,-16(fp)
 10008b8:	e17ffd15 	stw	r5,-12(fp)
 10008bc:	e1bffe15 	stw	r6,-8(fp)
 10008c0:	e1ffff15 	stw	r7,-4(fp)
	IOWR_32DIRECT(drawer_base,0,x_1);
 10008c4:	00d80004 	movi	r3,24576
 10008c8:	e0bffc17 	ldw	r2,-16(fp)
 10008cc:	18800035 	stwio	r2,0(r3)
	IOWR_32DIRECT(drawer_base,4,y_1);
 10008d0:	00d80104 	movi	r3,24580
 10008d4:	e0bffd17 	ldw	r2,-12(fp)
 10008d8:	18800035 	stwio	r2,0(r3)
	IOWR_32DIRECT(drawer_base,8,x_2);
 10008dc:	00d80204 	movi	r3,24584
 10008e0:	e0bffe17 	ldw	r2,-8(fp)
 10008e4:	18800035 	stwio	r2,0(r3)
	IOWR_32DIRECT(drawer_base,12,y_2);
 10008e8:	00d80304 	movi	r3,24588
 10008ec:	e0bfff17 	ldw	r2,-4(fp)
 10008f0:	18800035 	stwio	r2,0(r3)
	IOWR_32DIRECT(drawer_base,16,colour);
 10008f4:	e0c00117 	ldw	r3,4(fp)
 10008f8:	00980404 	movi	r2,24592
 10008fc:	10c00035 	stwio	r3,0(r2)
	IOWR_32DIRECT(drawer_base,20,1);
 1000900:	00d80504 	movi	r3,24596
 1000904:	00800044 	movi	r2,1
 1000908:	18800035 	stwio	r2,0(r3)
	while(IORD_32DIRECT(drawer_base,20)==0);
 100090c:	00980504 	movi	r2,24596
 1000910:	10800037 	ldwio	r2,0(r2)
 1000914:	1005003a 	cmpeq	r2,r2,zero
 1000918:	103ffc1e 	bne	r2,zero,100090c <draw_box_1+0x64>
}
 100091c:	e037883a 	mov	sp,fp
 1000920:	df000017 	ldw	fp,0(sp)
 1000924:	dec00104 	addi	sp,sp,4
 1000928:	f800283a 	ret

0100092c <draw_ball_1>:

void draw_ball_1(int x, int y, unsigned int colour){
 100092c:	defffa04 	addi	sp,sp,-24
 1000930:	dfc00515 	stw	ra,20(sp)
 1000934:	df000415 	stw	fp,16(sp)
 1000938:	df000404 	addi	fp,sp,16
 100093c:	e13ffd15 	stw	r4,-12(fp)
 1000940:	e17ffe15 	stw	r5,-8(fp)
 1000944:	e1bfff15 	stw	r6,-4(fp)
	draw_box_1(x-2, y, x+2, y, colour);
 1000948:	e0bffd17 	ldw	r2,-12(fp)
 100094c:	113fff84 	addi	r4,r2,-2
 1000950:	e0bffd17 	ldw	r2,-12(fp)
 1000954:	11800084 	addi	r6,r2,2
 1000958:	e0bfff17 	ldw	r2,-4(fp)
 100095c:	d8800015 	stw	r2,0(sp)
 1000960:	e17ffe17 	ldw	r5,-8(fp)
 1000964:	e1fffe17 	ldw	r7,-8(fp)
 1000968:	10008a80 	call	10008a8 <draw_box_1>
	draw_box_1(x, y-2, x, y+2, colour);
 100096c:	e0bffe17 	ldw	r2,-8(fp)
 1000970:	117fff84 	addi	r5,r2,-2
 1000974:	e0bffe17 	ldw	r2,-8(fp)
 1000978:	11c00084 	addi	r7,r2,2
 100097c:	e0bfff17 	ldw	r2,-4(fp)
 1000980:	d8800015 	stw	r2,0(sp)
 1000984:	e13ffd17 	ldw	r4,-12(fp)
 1000988:	e1bffd17 	ldw	r6,-12(fp)
 100098c:	10008a80 	call	10008a8 <draw_box_1>
	draw_box_1(x-1, y-1, x+1, y+1, colour);
 1000990:	e0bffd17 	ldw	r2,-12(fp)
 1000994:	113fffc4 	addi	r4,r2,-1
 1000998:	e0bffe17 	ldw	r2,-8(fp)
 100099c:	117fffc4 	addi	r5,r2,-1
 10009a0:	e0bffd17 	ldw	r2,-12(fp)
 10009a4:	11800044 	addi	r6,r2,1
 10009a8:	e0bffe17 	ldw	r2,-8(fp)
 10009ac:	11c00044 	addi	r7,r2,1
 10009b0:	e0bfff17 	ldw	r2,-4(fp)
 10009b4:	d8800015 	stw	r2,0(sp)
 10009b8:	10008a80 	call	10008a8 <draw_box_1>
}
 10009bc:	e037883a 	mov	sp,fp
 10009c0:	dfc00117 	ldw	ra,4(sp)
 10009c4:	df000017 	ldw	fp,0(sp)
 10009c8:	dec00204 	addi	sp,sp,8
 10009cc:	f800283a 	ret

010009d0 <draw_bomb>:

void draw_bomb(alt_up_pixel_buffer_dma_dev* pixel_buffer, int x, int y ){
 10009d0:	defff804 	addi	sp,sp,-32
 10009d4:	dfc00715 	stw	ra,28(sp)
 10009d8:	df000615 	stw	fp,24(sp)
 10009dc:	df000604 	addi	fp,sp,24
 10009e0:	e13ffd15 	stw	r4,-12(fp)
 10009e4:	e17ffe15 	stw	r5,-8(fp)
 10009e8:	e1bfff15 	stw	r6,-4(fp)
	unsigned short * pixel_offset = malloc(sizeof(short)); //2 bytes
 10009ec:	01000084 	movi	r4,2
 10009f0:	10061600 	call	1006160 <malloc>
 10009f4:	e0bffc15 	stw	r2,-16(fp)
	pixel_offset = &BOMB_pixel_data; //set pointer to start of image data
 10009f8:	008040b4 	movhi	r2,258
 10009fc:	10bf8e04 	addi	r2,r2,-456
 1000a00:	e0bffc15 	stw	r2,-16(fp)
	int i, j;
	for(j=0; j <= BOMB_HEIGHT-1; j++){
 1000a04:	e03ffa15 	stw	zero,-24(fp)
 1000a08:	00002c06 	br	1000abc <draw_bomb+0xec>
		for(i=0; i <= BOMB_WIDTH-1; i++){
 1000a0c:	e03ffb15 	stw	zero,-20(fp)
 1000a10:	00002406 	br	1000aa4 <draw_bomb+0xd4>
			if(*pixel_offset == 0xFFFF){
 1000a14:	e0bffc17 	ldw	r2,-16(fp)
 1000a18:	1080000b 	ldhu	r2,0(r2)
 1000a1c:	10ffffcc 	andi	r3,r2,65535
 1000a20:	00bfffd4 	movui	r2,65535
 1000a24:	18800c1e 	bne	r3,r2,1000a58 <draw_bomb+0x88>
				alt_up_pixel_buffer_dma_draw(pixel_buffer, BACKGROUND, x+i, y+j); //if pixel is white, color it the backgroud color instead
 1000a28:	e0fffe17 	ldw	r3,-8(fp)
 1000a2c:	e0bffb17 	ldw	r2,-20(fp)
 1000a30:	1885883a 	add	r2,r3,r2
 1000a34:	100d883a 	mov	r6,r2
 1000a38:	e0ffff17 	ldw	r3,-4(fp)
 1000a3c:	e0bffa17 	ldw	r2,-24(fp)
 1000a40:	1885883a 	add	r2,r3,r2
 1000a44:	100f883a 	mov	r7,r2
 1000a48:	e13ffd17 	ldw	r4,-12(fp)
 1000a4c:	0173ffd4 	movui	r5,53247
 1000a50:	101061c0 	call	101061c <alt_up_pixel_buffer_dma_draw>
 1000a54:	00000d06 	br	1000a8c <draw_bomb+0xbc>
			}
			else{
				alt_up_pixel_buffer_dma_draw(pixel_buffer, *pixel_offset, x+i, y+j);
 1000a58:	e0bffc17 	ldw	r2,-16(fp)
 1000a5c:	1080000b 	ldhu	r2,0(r2)
 1000a60:	117fffcc 	andi	r5,r2,65535
 1000a64:	e0fffe17 	ldw	r3,-8(fp)
 1000a68:	e0bffb17 	ldw	r2,-20(fp)
 1000a6c:	1885883a 	add	r2,r3,r2
 1000a70:	100d883a 	mov	r6,r2
 1000a74:	e0ffff17 	ldw	r3,-4(fp)
 1000a78:	e0bffa17 	ldw	r2,-24(fp)
 1000a7c:	1885883a 	add	r2,r3,r2
 1000a80:	100f883a 	mov	r7,r2
 1000a84:	e13ffd17 	ldw	r4,-12(fp)
 1000a88:	101061c0 	call	101061c <alt_up_pixel_buffer_dma_draw>
			}
			pixel_offset++;
 1000a8c:	e0bffc17 	ldw	r2,-16(fp)
 1000a90:	10800084 	addi	r2,r2,2
 1000a94:	e0bffc15 	stw	r2,-16(fp)
void draw_bomb(alt_up_pixel_buffer_dma_dev* pixel_buffer, int x, int y ){
	unsigned short * pixel_offset = malloc(sizeof(short)); //2 bytes
	pixel_offset = &BOMB_pixel_data; //set pointer to start of image data
	int i, j;
	for(j=0; j <= BOMB_HEIGHT-1; j++){
		for(i=0; i <= BOMB_WIDTH-1; i++){
 1000a98:	e0bffb17 	ldw	r2,-20(fp)
 1000a9c:	10800044 	addi	r2,r2,1
 1000aa0:	e0bffb15 	stw	r2,-20(fp)
 1000aa4:	e0bffb17 	ldw	r2,-20(fp)
 1000aa8:	10800150 	cmplti	r2,r2,5
 1000aac:	103fd91e 	bne	r2,zero,1000a14 <draw_bomb+0x44>

void draw_bomb(alt_up_pixel_buffer_dma_dev* pixel_buffer, int x, int y ){
	unsigned short * pixel_offset = malloc(sizeof(short)); //2 bytes
	pixel_offset = &BOMB_pixel_data; //set pointer to start of image data
	int i, j;
	for(j=0; j <= BOMB_HEIGHT-1; j++){
 1000ab0:	e0bffa17 	ldw	r2,-24(fp)
 1000ab4:	10800044 	addi	r2,r2,1
 1000ab8:	e0bffa15 	stw	r2,-24(fp)
 1000abc:	e0bffa17 	ldw	r2,-24(fp)
 1000ac0:	10800110 	cmplti	r2,r2,4
 1000ac4:	103fd11e 	bne	r2,zero,1000a0c <draw_bomb+0x3c>
				alt_up_pixel_buffer_dma_draw(pixel_buffer, *pixel_offset, x+i, y+j);
			}
			pixel_offset++;
		}
	}
}
 1000ac8:	e037883a 	mov	sp,fp
 1000acc:	dfc00117 	ldw	ra,4(sp)
 1000ad0:	df000017 	ldw	fp,0(sp)
 1000ad4:	dec00204 	addi	sp,sp,8
 1000ad8:	f800283a 	ret

01000adc <draw_ground>:

void draw_ground(alt_up_pixel_buffer_dma_dev* pixel_buffer, int x, int y ){
 1000adc:	defff804 	addi	sp,sp,-32
 1000ae0:	dfc00715 	stw	ra,28(sp)
 1000ae4:	df000615 	stw	fp,24(sp)
 1000ae8:	df000604 	addi	fp,sp,24
 1000aec:	e13ffd15 	stw	r4,-12(fp)
 1000af0:	e17ffe15 	stw	r5,-8(fp)
 1000af4:	e1bfff15 	stw	r6,-4(fp)
	unsigned short * pixel_offset = malloc(sizeof(short)); //2 bytes
 1000af8:	01000084 	movi	r4,2
 1000afc:	10061600 	call	1006160 <malloc>
 1000b00:	e0bffc15 	stw	r2,-16(fp)
	pixel_offset = &GROUND_pixel_data; //set pointer to start of image data
 1000b04:	00804074 	movhi	r2,257
 1000b08:	108b2504 	addi	r2,r2,11412
 1000b0c:	e0bffc15 	stw	r2,-16(fp)
	int i, j;
	for(j=0; j <= GROUND_HEIGHT-1; j++){
 1000b10:	e03ffa15 	stw	zero,-24(fp)
 1000b14:	00002c06 	br	1000bc8 <draw_ground+0xec>
		for(i=0; i <= GROUND_WIDTH-1; i++){
 1000b18:	e03ffb15 	stw	zero,-20(fp)
 1000b1c:	00002406 	br	1000bb0 <draw_ground+0xd4>
			if(*pixel_offset == 0xFFFF){
 1000b20:	e0bffc17 	ldw	r2,-16(fp)
 1000b24:	1080000b 	ldhu	r2,0(r2)
 1000b28:	10ffffcc 	andi	r3,r2,65535
 1000b2c:	00bfffd4 	movui	r2,65535
 1000b30:	18800c1e 	bne	r3,r2,1000b64 <draw_ground+0x88>
				alt_up_pixel_buffer_dma_draw(pixel_buffer, BACKGROUND, x+i, y+j);
 1000b34:	e0fffe17 	ldw	r3,-8(fp)
 1000b38:	e0bffb17 	ldw	r2,-20(fp)
 1000b3c:	1885883a 	add	r2,r3,r2
 1000b40:	100d883a 	mov	r6,r2
 1000b44:	e0ffff17 	ldw	r3,-4(fp)
 1000b48:	e0bffa17 	ldw	r2,-24(fp)
 1000b4c:	1885883a 	add	r2,r3,r2
 1000b50:	100f883a 	mov	r7,r2
 1000b54:	e13ffd17 	ldw	r4,-12(fp)
 1000b58:	0173ffd4 	movui	r5,53247
 1000b5c:	101061c0 	call	101061c <alt_up_pixel_buffer_dma_draw>
 1000b60:	00000d06 	br	1000b98 <draw_ground+0xbc>
			}
			else{
				alt_up_pixel_buffer_dma_draw(pixel_buffer, *pixel_offset, x+i, y+j);
 1000b64:	e0bffc17 	ldw	r2,-16(fp)
 1000b68:	1080000b 	ldhu	r2,0(r2)
 1000b6c:	117fffcc 	andi	r5,r2,65535
 1000b70:	e0fffe17 	ldw	r3,-8(fp)
 1000b74:	e0bffb17 	ldw	r2,-20(fp)
 1000b78:	1885883a 	add	r2,r3,r2
 1000b7c:	100d883a 	mov	r6,r2
 1000b80:	e0ffff17 	ldw	r3,-4(fp)
 1000b84:	e0bffa17 	ldw	r2,-24(fp)
 1000b88:	1885883a 	add	r2,r3,r2
 1000b8c:	100f883a 	mov	r7,r2
 1000b90:	e13ffd17 	ldw	r4,-12(fp)
 1000b94:	101061c0 	call	101061c <alt_up_pixel_buffer_dma_draw>
			}
			pixel_offset++;
 1000b98:	e0bffc17 	ldw	r2,-16(fp)
 1000b9c:	10800084 	addi	r2,r2,2
 1000ba0:	e0bffc15 	stw	r2,-16(fp)
void draw_ground(alt_up_pixel_buffer_dma_dev* pixel_buffer, int x, int y ){
	unsigned short * pixel_offset = malloc(sizeof(short)); //2 bytes
	pixel_offset = &GROUND_pixel_data; //set pointer to start of image data
	int i, j;
	for(j=0; j <= GROUND_HEIGHT-1; j++){
		for(i=0; i <= GROUND_WIDTH-1; i++){
 1000ba4:	e0bffb17 	ldw	r2,-20(fp)
 1000ba8:	10800044 	addi	r2,r2,1
 1000bac:	e0bffb15 	stw	r2,-20(fp)
 1000bb0:	e0bffb17 	ldw	r2,-20(fp)
 1000bb4:	10805010 	cmplti	r2,r2,320
 1000bb8:	103fd91e 	bne	r2,zero,1000b20 <draw_ground+0x44>

void draw_ground(alt_up_pixel_buffer_dma_dev* pixel_buffer, int x, int y ){
	unsigned short * pixel_offset = malloc(sizeof(short)); //2 bytes
	pixel_offset = &GROUND_pixel_data; //set pointer to start of image data
	int i, j;
	for(j=0; j <= GROUND_HEIGHT-1; j++){
 1000bbc:	e0bffa17 	ldw	r2,-24(fp)
 1000bc0:	10800044 	addi	r2,r2,1
 1000bc4:	e0bffa15 	stw	r2,-24(fp)
 1000bc8:	e0bffa17 	ldw	r2,-24(fp)
 1000bcc:	10800790 	cmplti	r2,r2,30
 1000bd0:	103fd11e 	bne	r2,zero,1000b18 <draw_ground+0x3c>
				alt_up_pixel_buffer_dma_draw(pixel_buffer, *pixel_offset, x+i, y+j);
			}
			pixel_offset++;
		}
	}
}
 1000bd4:	e037883a 	mov	sp,fp
 1000bd8:	dfc00117 	ldw	ra,4(sp)
 1000bdc:	df000017 	ldw	fp,0(sp)
 1000be0:	dec00204 	addi	sp,sp,8
 1000be4:	f800283a 	ret

01000be8 <draw_player1>:


void draw_player1(alt_up_pixel_buffer_dma_dev* pixel_buffer, int x, int y ){
 1000be8:	defff804 	addi	sp,sp,-32
 1000bec:	dfc00715 	stw	ra,28(sp)
 1000bf0:	df000615 	stw	fp,24(sp)
 1000bf4:	df000604 	addi	fp,sp,24
 1000bf8:	e13ffd15 	stw	r4,-12(fp)
 1000bfc:	e17ffe15 	stw	r5,-8(fp)
 1000c00:	e1bfff15 	stw	r6,-4(fp)
	unsigned short * pixel_offset = malloc(sizeof(short)); //2 bytes
 1000c04:	01000084 	movi	r4,2
 1000c08:	10061600 	call	1006160 <malloc>
 1000c0c:	e0bffc15 	stw	r2,-16(fp)
	pixel_offset = &PLAYER_1_pixel_data; //set pointer to start of image data
 1000c10:	008040b4 	movhi	r2,258
 1000c14:	10b0a604 	addi	r2,r2,-15720
 1000c18:	e0bffc15 	stw	r2,-16(fp)
	int i, j;
	for(j=0; j <= PLAYER_1_HEIGHT-1; j++){
 1000c1c:	e03ffa15 	stw	zero,-24(fp)
 1000c20:	00002c06 	br	1000cd4 <draw_player1+0xec>
		for(i=0; i <= PLAYER_1_WIDTH-1; i++){
 1000c24:	e03ffb15 	stw	zero,-20(fp)
 1000c28:	00002406 	br	1000cbc <draw_player1+0xd4>
			if(*pixel_offset == 0xFFFF){
 1000c2c:	e0bffc17 	ldw	r2,-16(fp)
 1000c30:	1080000b 	ldhu	r2,0(r2)
 1000c34:	10ffffcc 	andi	r3,r2,65535
 1000c38:	00bfffd4 	movui	r2,65535
 1000c3c:	18800c1e 	bne	r3,r2,1000c70 <draw_player1+0x88>
				alt_up_pixel_buffer_dma_draw(pixel_buffer, BACKGROUND, x+i, y+j);
 1000c40:	e0fffe17 	ldw	r3,-8(fp)
 1000c44:	e0bffb17 	ldw	r2,-20(fp)
 1000c48:	1885883a 	add	r2,r3,r2
 1000c4c:	100d883a 	mov	r6,r2
 1000c50:	e0ffff17 	ldw	r3,-4(fp)
 1000c54:	e0bffa17 	ldw	r2,-24(fp)
 1000c58:	1885883a 	add	r2,r3,r2
 1000c5c:	100f883a 	mov	r7,r2
 1000c60:	e13ffd17 	ldw	r4,-12(fp)
 1000c64:	0173ffd4 	movui	r5,53247
 1000c68:	101061c0 	call	101061c <alt_up_pixel_buffer_dma_draw>
 1000c6c:	00000d06 	br	1000ca4 <draw_player1+0xbc>
			}
			else{
				alt_up_pixel_buffer_dma_draw(pixel_buffer, *pixel_offset, x+i, y+j);
 1000c70:	e0bffc17 	ldw	r2,-16(fp)
 1000c74:	1080000b 	ldhu	r2,0(r2)
 1000c78:	117fffcc 	andi	r5,r2,65535
 1000c7c:	e0fffe17 	ldw	r3,-8(fp)
 1000c80:	e0bffb17 	ldw	r2,-20(fp)
 1000c84:	1885883a 	add	r2,r3,r2
 1000c88:	100d883a 	mov	r6,r2
 1000c8c:	e0ffff17 	ldw	r3,-4(fp)
 1000c90:	e0bffa17 	ldw	r2,-24(fp)
 1000c94:	1885883a 	add	r2,r3,r2
 1000c98:	100f883a 	mov	r7,r2
 1000c9c:	e13ffd17 	ldw	r4,-12(fp)
 1000ca0:	101061c0 	call	101061c <alt_up_pixel_buffer_dma_draw>
			}
			pixel_offset++;
 1000ca4:	e0bffc17 	ldw	r2,-16(fp)
 1000ca8:	10800084 	addi	r2,r2,2
 1000cac:	e0bffc15 	stw	r2,-16(fp)
void draw_player1(alt_up_pixel_buffer_dma_dev* pixel_buffer, int x, int y ){
	unsigned short * pixel_offset = malloc(sizeof(short)); //2 bytes
	pixel_offset = &PLAYER_1_pixel_data; //set pointer to start of image data
	int i, j;
	for(j=0; j <= PLAYER_1_HEIGHT-1; j++){
		for(i=0; i <= PLAYER_1_WIDTH-1; i++){
 1000cb0:	e0bffb17 	ldw	r2,-20(fp)
 1000cb4:	10800044 	addi	r2,r2,1
 1000cb8:	e0bffb15 	stw	r2,-20(fp)
 1000cbc:	e0bffb17 	ldw	r2,-20(fp)
 1000cc0:	10800510 	cmplti	r2,r2,20
 1000cc4:	103fd91e 	bne	r2,zero,1000c2c <draw_player1+0x44>

void draw_player1(alt_up_pixel_buffer_dma_dev* pixel_buffer, int x, int y ){
	unsigned short * pixel_offset = malloc(sizeof(short)); //2 bytes
	pixel_offset = &PLAYER_1_pixel_data; //set pointer to start of image data
	int i, j;
	for(j=0; j <= PLAYER_1_HEIGHT-1; j++){
 1000cc8:	e0bffa17 	ldw	r2,-24(fp)
 1000ccc:	10800044 	addi	r2,r2,1
 1000cd0:	e0bffa15 	stw	r2,-24(fp)
 1000cd4:	e0bffa17 	ldw	r2,-24(fp)
 1000cd8:	10800650 	cmplti	r2,r2,25
 1000cdc:	103fd11e 	bne	r2,zero,1000c24 <draw_player1+0x3c>
				alt_up_pixel_buffer_dma_draw(pixel_buffer, *pixel_offset, x+i, y+j);
			}
			pixel_offset++;
		}
	}
}
 1000ce0:	e037883a 	mov	sp,fp
 1000ce4:	dfc00117 	ldw	ra,4(sp)
 1000ce8:	df000017 	ldw	fp,0(sp)
 1000cec:	dec00204 	addi	sp,sp,8
 1000cf0:	f800283a 	ret

01000cf4 <draw_player2>:

void draw_player2(alt_up_pixel_buffer_dma_dev* pixel_buffer, int x, int y ){
 1000cf4:	defff804 	addi	sp,sp,-32
 1000cf8:	dfc00715 	stw	ra,28(sp)
 1000cfc:	df000615 	stw	fp,24(sp)
 1000d00:	df000604 	addi	fp,sp,24
 1000d04:	e13ffd15 	stw	r4,-12(fp)
 1000d08:	e17ffe15 	stw	r5,-8(fp)
 1000d0c:	e1bfff15 	stw	r6,-4(fp)
	unsigned short * pixel_offset = malloc(sizeof(short)); //2 bytes
 1000d10:	01000084 	movi	r4,2
 1000d14:	10061600 	call	1006160 <malloc>
 1000d18:	e0bffc15 	stw	r2,-16(fp)
	pixel_offset = &PLAYER_2_pixel_data; //set pointer to start of image data
 1000d1c:	008040b4 	movhi	r2,258
 1000d20:	10b29b04 	addi	r2,r2,-13716
 1000d24:	e0bffc15 	stw	r2,-16(fp)
	int i, j;
	for(j=0; j <= PLAYER_2_HEIGHT-1; j++){
 1000d28:	e03ffa15 	stw	zero,-24(fp)
 1000d2c:	00002c06 	br	1000de0 <draw_player2+0xec>
		for(i=0; i <= PLAYER_2_WIDTH-1; i++){
 1000d30:	e03ffb15 	stw	zero,-20(fp)
 1000d34:	00002406 	br	1000dc8 <draw_player2+0xd4>
			if(*pixel_offset == 0xFFFF){
 1000d38:	e0bffc17 	ldw	r2,-16(fp)
 1000d3c:	1080000b 	ldhu	r2,0(r2)
 1000d40:	10ffffcc 	andi	r3,r2,65535
 1000d44:	00bfffd4 	movui	r2,65535
 1000d48:	18800c1e 	bne	r3,r2,1000d7c <draw_player2+0x88>
				alt_up_pixel_buffer_dma_draw(pixel_buffer, BACKGROUND, x+i, y+j);
 1000d4c:	e0fffe17 	ldw	r3,-8(fp)
 1000d50:	e0bffb17 	ldw	r2,-20(fp)
 1000d54:	1885883a 	add	r2,r3,r2
 1000d58:	100d883a 	mov	r6,r2
 1000d5c:	e0ffff17 	ldw	r3,-4(fp)
 1000d60:	e0bffa17 	ldw	r2,-24(fp)
 1000d64:	1885883a 	add	r2,r3,r2
 1000d68:	100f883a 	mov	r7,r2
 1000d6c:	e13ffd17 	ldw	r4,-12(fp)
 1000d70:	0173ffd4 	movui	r5,53247
 1000d74:	101061c0 	call	101061c <alt_up_pixel_buffer_dma_draw>
 1000d78:	00000d06 	br	1000db0 <draw_player2+0xbc>
			}
			else{
				alt_up_pixel_buffer_dma_draw(pixel_buffer, *pixel_offset, x+i, y+j);
 1000d7c:	e0bffc17 	ldw	r2,-16(fp)
 1000d80:	1080000b 	ldhu	r2,0(r2)
 1000d84:	117fffcc 	andi	r5,r2,65535
 1000d88:	e0fffe17 	ldw	r3,-8(fp)
 1000d8c:	e0bffb17 	ldw	r2,-20(fp)
 1000d90:	1885883a 	add	r2,r3,r2
 1000d94:	100d883a 	mov	r6,r2
 1000d98:	e0ffff17 	ldw	r3,-4(fp)
 1000d9c:	e0bffa17 	ldw	r2,-24(fp)
 1000da0:	1885883a 	add	r2,r3,r2
 1000da4:	100f883a 	mov	r7,r2
 1000da8:	e13ffd17 	ldw	r4,-12(fp)
 1000dac:	101061c0 	call	101061c <alt_up_pixel_buffer_dma_draw>
			}
			pixel_offset++;
 1000db0:	e0bffc17 	ldw	r2,-16(fp)
 1000db4:	10800084 	addi	r2,r2,2
 1000db8:	e0bffc15 	stw	r2,-16(fp)
void draw_player2(alt_up_pixel_buffer_dma_dev* pixel_buffer, int x, int y ){
	unsigned short * pixel_offset = malloc(sizeof(short)); //2 bytes
	pixel_offset = &PLAYER_2_pixel_data; //set pointer to start of image data
	int i, j;
	for(j=0; j <= PLAYER_2_HEIGHT-1; j++){
		for(i=0; i <= PLAYER_2_WIDTH-1; i++){
 1000dbc:	e0bffb17 	ldw	r2,-20(fp)
 1000dc0:	10800044 	addi	r2,r2,1
 1000dc4:	e0bffb15 	stw	r2,-20(fp)
 1000dc8:	e0bffb17 	ldw	r2,-20(fp)
 1000dcc:	10800510 	cmplti	r2,r2,20
 1000dd0:	103fd91e 	bne	r2,zero,1000d38 <draw_player2+0x44>

void draw_player2(alt_up_pixel_buffer_dma_dev* pixel_buffer, int x, int y ){
	unsigned short * pixel_offset = malloc(sizeof(short)); //2 bytes
	pixel_offset = &PLAYER_2_pixel_data; //set pointer to start of image data
	int i, j;
	for(j=0; j <= PLAYER_2_HEIGHT-1; j++){
 1000dd4:	e0bffa17 	ldw	r2,-24(fp)
 1000dd8:	10800044 	addi	r2,r2,1
 1000ddc:	e0bffa15 	stw	r2,-24(fp)
 1000de0:	e0bffa17 	ldw	r2,-24(fp)
 1000de4:	10800650 	cmplti	r2,r2,25
 1000de8:	103fd11e 	bne	r2,zero,1000d30 <draw_player2+0x3c>
				alt_up_pixel_buffer_dma_draw(pixel_buffer, *pixel_offset, x+i, y+j);
			}
			pixel_offset++;
		}
	}
}
 1000dec:	e037883a 	mov	sp,fp
 1000df0:	dfc00117 	ldw	ra,4(sp)
 1000df4:	df000017 	ldw	fp,0(sp)
 1000df8:	dec00204 	addi	sp,sp,8
 1000dfc:	f800283a 	ret

01000e00 <draw_cannon1>:

void draw_cannon1(alt_up_pixel_buffer_dma_dev* pixel_buffer, int x, int y ){
 1000e00:	defff804 	addi	sp,sp,-32
 1000e04:	dfc00715 	stw	ra,28(sp)
 1000e08:	df000615 	stw	fp,24(sp)
 1000e0c:	df000604 	addi	fp,sp,24
 1000e10:	e13ffd15 	stw	r4,-12(fp)
 1000e14:	e17ffe15 	stw	r5,-8(fp)
 1000e18:	e1bfff15 	stw	r6,-4(fp)
	unsigned short * pixel_offset = malloc(sizeof(short)); //2 bytes
 1000e1c:	01000084 	movi	r4,2
 1000e20:	10061600 	call	1006160 <malloc>
 1000e24:	e0bffc15 	stw	r2,-16(fp)
	pixel_offset = &CANNON_1_pixel_data; //set pointer to start of image data
 1000e28:	008040b4 	movhi	r2,258
 1000e2c:	10b49004 	addi	r2,r2,-11712
 1000e30:	e0bffc15 	stw	r2,-16(fp)
	int i, j;
	for(j=0; j <= CANNON_1_HEIGHT-1; j++){
 1000e34:	e03ffa15 	stw	zero,-24(fp)
 1000e38:	00002c06 	br	1000eec <draw_cannon1+0xec>
		for(i=0; i <= CANNON_1_WIDTH-1; i++){
 1000e3c:	e03ffb15 	stw	zero,-20(fp)
 1000e40:	00002406 	br	1000ed4 <draw_cannon1+0xd4>
			if(*pixel_offset == 0xFFFF){
 1000e44:	e0bffc17 	ldw	r2,-16(fp)
 1000e48:	1080000b 	ldhu	r2,0(r2)
 1000e4c:	10ffffcc 	andi	r3,r2,65535
 1000e50:	00bfffd4 	movui	r2,65535
 1000e54:	18800c1e 	bne	r3,r2,1000e88 <draw_cannon1+0x88>
				alt_up_pixel_buffer_dma_draw(pixel_buffer, BACKGROUND, x+i, y+j);
 1000e58:	e0fffe17 	ldw	r3,-8(fp)
 1000e5c:	e0bffb17 	ldw	r2,-20(fp)
 1000e60:	1885883a 	add	r2,r3,r2
 1000e64:	100d883a 	mov	r6,r2
 1000e68:	e0ffff17 	ldw	r3,-4(fp)
 1000e6c:	e0bffa17 	ldw	r2,-24(fp)
 1000e70:	1885883a 	add	r2,r3,r2
 1000e74:	100f883a 	mov	r7,r2
 1000e78:	e13ffd17 	ldw	r4,-12(fp)
 1000e7c:	0173ffd4 	movui	r5,53247
 1000e80:	101061c0 	call	101061c <alt_up_pixel_buffer_dma_draw>
 1000e84:	00000d06 	br	1000ebc <draw_cannon1+0xbc>
			}
			else{
				alt_up_pixel_buffer_dma_draw(pixel_buffer, *pixel_offset, x+i, y+j);
 1000e88:	e0bffc17 	ldw	r2,-16(fp)
 1000e8c:	1080000b 	ldhu	r2,0(r2)
 1000e90:	117fffcc 	andi	r5,r2,65535
 1000e94:	e0fffe17 	ldw	r3,-8(fp)
 1000e98:	e0bffb17 	ldw	r2,-20(fp)
 1000e9c:	1885883a 	add	r2,r3,r2
 1000ea0:	100d883a 	mov	r6,r2
 1000ea4:	e0ffff17 	ldw	r3,-4(fp)
 1000ea8:	e0bffa17 	ldw	r2,-24(fp)
 1000eac:	1885883a 	add	r2,r3,r2
 1000eb0:	100f883a 	mov	r7,r2
 1000eb4:	e13ffd17 	ldw	r4,-12(fp)
 1000eb8:	101061c0 	call	101061c <alt_up_pixel_buffer_dma_draw>
			}
			pixel_offset++;
 1000ebc:	e0bffc17 	ldw	r2,-16(fp)
 1000ec0:	10800084 	addi	r2,r2,2
 1000ec4:	e0bffc15 	stw	r2,-16(fp)
void draw_cannon1(alt_up_pixel_buffer_dma_dev* pixel_buffer, int x, int y ){
	unsigned short * pixel_offset = malloc(sizeof(short)); //2 bytes
	pixel_offset = &CANNON_1_pixel_data; //set pointer to start of image data
	int i, j;
	for(j=0; j <= CANNON_1_HEIGHT-1; j++){
		for(i=0; i <= CANNON_1_WIDTH-1; i++){
 1000ec8:	e0bffb17 	ldw	r2,-20(fp)
 1000ecc:	10800044 	addi	r2,r2,1
 1000ed0:	e0bffb15 	stw	r2,-20(fp)
 1000ed4:	e0bffb17 	ldw	r2,-20(fp)
 1000ed8:	10800650 	cmplti	r2,r2,25
 1000edc:	103fd91e 	bne	r2,zero,1000e44 <draw_cannon1+0x44>

void draw_cannon1(alt_up_pixel_buffer_dma_dev* pixel_buffer, int x, int y ){
	unsigned short * pixel_offset = malloc(sizeof(short)); //2 bytes
	pixel_offset = &CANNON_1_pixel_data; //set pointer to start of image data
	int i, j;
	for(j=0; j <= CANNON_1_HEIGHT-1; j++){
 1000ee0:	e0bffa17 	ldw	r2,-24(fp)
 1000ee4:	10800044 	addi	r2,r2,1
 1000ee8:	e0bffa15 	stw	r2,-24(fp)
 1000eec:	e0bffa17 	ldw	r2,-24(fp)
 1000ef0:	10800650 	cmplti	r2,r2,25
 1000ef4:	103fd11e 	bne	r2,zero,1000e3c <draw_cannon1+0x3c>
				alt_up_pixel_buffer_dma_draw(pixel_buffer, *pixel_offset, x+i, y+j);
			}
			pixel_offset++;
		}
	}
}
 1000ef8:	e037883a 	mov	sp,fp
 1000efc:	dfc00117 	ldw	ra,4(sp)
 1000f00:	df000017 	ldw	fp,0(sp)
 1000f04:	dec00204 	addi	sp,sp,8
 1000f08:	f800283a 	ret

01000f0c <draw_cannon1_frame2>:

void draw_cannon1_frame2(alt_up_pixel_buffer_dma_dev* pixel_buffer, int x, int y ){
 1000f0c:	defff804 	addi	sp,sp,-32
 1000f10:	dfc00715 	stw	ra,28(sp)
 1000f14:	df000615 	stw	fp,24(sp)
 1000f18:	df000604 	addi	fp,sp,24
 1000f1c:	e13ffd15 	stw	r4,-12(fp)
 1000f20:	e17ffe15 	stw	r5,-8(fp)
 1000f24:	e1bfff15 	stw	r6,-4(fp)
	unsigned short * pixel_offset = malloc(sizeof(short)); //2 bytes
 1000f28:	01000084 	movi	r4,2
 1000f2c:	10061600 	call	1006160 <malloc>
 1000f30:	e0bffc15 	stw	r2,-16(fp)
	pixel_offset = &CANNON_1_FRAME2_pixel_data; //set pointer to start of image data
 1000f34:	008040b4 	movhi	r2,258
 1000f38:	10b66504 	addi	r2,r2,-9836
 1000f3c:	e0bffc15 	stw	r2,-16(fp)
	int i, j;
	for(j=0; j <= CANNON_1_HEIGHT-1; j++){
 1000f40:	e03ffa15 	stw	zero,-24(fp)
 1000f44:	00002c06 	br	1000ff8 <draw_cannon1_frame2+0xec>
		for(i=0; i <= CANNON_1_WIDTH-1; i++){
 1000f48:	e03ffb15 	stw	zero,-20(fp)
 1000f4c:	00002406 	br	1000fe0 <draw_cannon1_frame2+0xd4>
			if(*pixel_offset == 0xFFFF){
 1000f50:	e0bffc17 	ldw	r2,-16(fp)
 1000f54:	1080000b 	ldhu	r2,0(r2)
 1000f58:	10ffffcc 	andi	r3,r2,65535
 1000f5c:	00bfffd4 	movui	r2,65535
 1000f60:	18800c1e 	bne	r3,r2,1000f94 <draw_cannon1_frame2+0x88>
				alt_up_pixel_buffer_dma_draw(pixel_buffer, BACKGROUND, x+i, y+j);
 1000f64:	e0fffe17 	ldw	r3,-8(fp)
 1000f68:	e0bffb17 	ldw	r2,-20(fp)
 1000f6c:	1885883a 	add	r2,r3,r2
 1000f70:	100d883a 	mov	r6,r2
 1000f74:	e0ffff17 	ldw	r3,-4(fp)
 1000f78:	e0bffa17 	ldw	r2,-24(fp)
 1000f7c:	1885883a 	add	r2,r3,r2
 1000f80:	100f883a 	mov	r7,r2
 1000f84:	e13ffd17 	ldw	r4,-12(fp)
 1000f88:	0173ffd4 	movui	r5,53247
 1000f8c:	101061c0 	call	101061c <alt_up_pixel_buffer_dma_draw>
 1000f90:	00000d06 	br	1000fc8 <draw_cannon1_frame2+0xbc>
			}
			else{
				alt_up_pixel_buffer_dma_draw(pixel_buffer, *pixel_offset, x+i, y+j);
 1000f94:	e0bffc17 	ldw	r2,-16(fp)
 1000f98:	1080000b 	ldhu	r2,0(r2)
 1000f9c:	117fffcc 	andi	r5,r2,65535
 1000fa0:	e0fffe17 	ldw	r3,-8(fp)
 1000fa4:	e0bffb17 	ldw	r2,-20(fp)
 1000fa8:	1885883a 	add	r2,r3,r2
 1000fac:	100d883a 	mov	r6,r2
 1000fb0:	e0ffff17 	ldw	r3,-4(fp)
 1000fb4:	e0bffa17 	ldw	r2,-24(fp)
 1000fb8:	1885883a 	add	r2,r3,r2
 1000fbc:	100f883a 	mov	r7,r2
 1000fc0:	e13ffd17 	ldw	r4,-12(fp)
 1000fc4:	101061c0 	call	101061c <alt_up_pixel_buffer_dma_draw>
			}
			pixel_offset++;
 1000fc8:	e0bffc17 	ldw	r2,-16(fp)
 1000fcc:	10800084 	addi	r2,r2,2
 1000fd0:	e0bffc15 	stw	r2,-16(fp)
void draw_cannon1_frame2(alt_up_pixel_buffer_dma_dev* pixel_buffer, int x, int y ){
	unsigned short * pixel_offset = malloc(sizeof(short)); //2 bytes
	pixel_offset = &CANNON_1_FRAME2_pixel_data; //set pointer to start of image data
	int i, j;
	for(j=0; j <= CANNON_1_HEIGHT-1; j++){
		for(i=0; i <= CANNON_1_WIDTH-1; i++){
 1000fd4:	e0bffb17 	ldw	r2,-20(fp)
 1000fd8:	10800044 	addi	r2,r2,1
 1000fdc:	e0bffb15 	stw	r2,-20(fp)
 1000fe0:	e0bffb17 	ldw	r2,-20(fp)
 1000fe4:	10800650 	cmplti	r2,r2,25
 1000fe8:	103fd91e 	bne	r2,zero,1000f50 <draw_cannon1_frame2+0x44>

void draw_cannon1_frame2(alt_up_pixel_buffer_dma_dev* pixel_buffer, int x, int y ){
	unsigned short * pixel_offset = malloc(sizeof(short)); //2 bytes
	pixel_offset = &CANNON_1_FRAME2_pixel_data; //set pointer to start of image data
	int i, j;
	for(j=0; j <= CANNON_1_HEIGHT-1; j++){
 1000fec:	e0bffa17 	ldw	r2,-24(fp)
 1000ff0:	10800044 	addi	r2,r2,1
 1000ff4:	e0bffa15 	stw	r2,-24(fp)
 1000ff8:	e0bffa17 	ldw	r2,-24(fp)
 1000ffc:	10800650 	cmplti	r2,r2,25
 1001000:	103fd11e 	bne	r2,zero,1000f48 <draw_cannon1_frame2+0x3c>
				alt_up_pixel_buffer_dma_draw(pixel_buffer, *pixel_offset, x+i, y+j);
			}
			pixel_offset++;
		}
	}
}
 1001004:	e037883a 	mov	sp,fp
 1001008:	dfc00117 	ldw	ra,4(sp)
 100100c:	df000017 	ldw	fp,0(sp)
 1001010:	dec00204 	addi	sp,sp,8
 1001014:	f800283a 	ret

01001018 <draw_cannon1_frame3>:

void draw_cannon1_frame3(alt_up_pixel_buffer_dma_dev* pixel_buffer, int x, int y ){
 1001018:	defff804 	addi	sp,sp,-32
 100101c:	dfc00715 	stw	ra,28(sp)
 1001020:	df000615 	stw	fp,24(sp)
 1001024:	df000604 	addi	fp,sp,24
 1001028:	e13ffd15 	stw	r4,-12(fp)
 100102c:	e17ffe15 	stw	r5,-8(fp)
 1001030:	e1bfff15 	stw	r6,-4(fp)
	unsigned short * pixel_offset = malloc(sizeof(short)); //2 bytes
 1001034:	01000084 	movi	r4,2
 1001038:	10061600 	call	1006160 <malloc>
 100103c:	e0bffc15 	stw	r2,-16(fp)
	pixel_offset = &CANNON_1_FRAME3_pixel_data; //set pointer to start of image data
 1001040:	008040b4 	movhi	r2,258
 1001044:	10b83a04 	addi	r2,r2,-7960
 1001048:	e0bffc15 	stw	r2,-16(fp)
	int i, j;
	for(j=0; j <= CANNON_1_HEIGHT-1; j++){
 100104c:	e03ffa15 	stw	zero,-24(fp)
 1001050:	00002c06 	br	1001104 <draw_cannon1_frame3+0xec>
		for(i=0; i <= CANNON_1_WIDTH-1; i++){
 1001054:	e03ffb15 	stw	zero,-20(fp)
 1001058:	00002406 	br	10010ec <draw_cannon1_frame3+0xd4>
			if(*pixel_offset == 0xFFFF){
 100105c:	e0bffc17 	ldw	r2,-16(fp)
 1001060:	1080000b 	ldhu	r2,0(r2)
 1001064:	10ffffcc 	andi	r3,r2,65535
 1001068:	00bfffd4 	movui	r2,65535
 100106c:	18800c1e 	bne	r3,r2,10010a0 <draw_cannon1_frame3+0x88>
				alt_up_pixel_buffer_dma_draw(pixel_buffer, BACKGROUND, x+i, y+j);
 1001070:	e0fffe17 	ldw	r3,-8(fp)
 1001074:	e0bffb17 	ldw	r2,-20(fp)
 1001078:	1885883a 	add	r2,r3,r2
 100107c:	100d883a 	mov	r6,r2
 1001080:	e0ffff17 	ldw	r3,-4(fp)
 1001084:	e0bffa17 	ldw	r2,-24(fp)
 1001088:	1885883a 	add	r2,r3,r2
 100108c:	100f883a 	mov	r7,r2
 1001090:	e13ffd17 	ldw	r4,-12(fp)
 1001094:	0173ffd4 	movui	r5,53247
 1001098:	101061c0 	call	101061c <alt_up_pixel_buffer_dma_draw>
 100109c:	00000d06 	br	10010d4 <draw_cannon1_frame3+0xbc>
			}
			else{
				alt_up_pixel_buffer_dma_draw(pixel_buffer, *pixel_offset, x+i, y+j);
 10010a0:	e0bffc17 	ldw	r2,-16(fp)
 10010a4:	1080000b 	ldhu	r2,0(r2)
 10010a8:	117fffcc 	andi	r5,r2,65535
 10010ac:	e0fffe17 	ldw	r3,-8(fp)
 10010b0:	e0bffb17 	ldw	r2,-20(fp)
 10010b4:	1885883a 	add	r2,r3,r2
 10010b8:	100d883a 	mov	r6,r2
 10010bc:	e0ffff17 	ldw	r3,-4(fp)
 10010c0:	e0bffa17 	ldw	r2,-24(fp)
 10010c4:	1885883a 	add	r2,r3,r2
 10010c8:	100f883a 	mov	r7,r2
 10010cc:	e13ffd17 	ldw	r4,-12(fp)
 10010d0:	101061c0 	call	101061c <alt_up_pixel_buffer_dma_draw>
			}
			pixel_offset++;
 10010d4:	e0bffc17 	ldw	r2,-16(fp)
 10010d8:	10800084 	addi	r2,r2,2
 10010dc:	e0bffc15 	stw	r2,-16(fp)
void draw_cannon1_frame3(alt_up_pixel_buffer_dma_dev* pixel_buffer, int x, int y ){
	unsigned short * pixel_offset = malloc(sizeof(short)); //2 bytes
	pixel_offset = &CANNON_1_FRAME3_pixel_data; //set pointer to start of image data
	int i, j;
	for(j=0; j <= CANNON_1_HEIGHT-1; j++){
		for(i=0; i <= CANNON_1_WIDTH-1; i++){
 10010e0:	e0bffb17 	ldw	r2,-20(fp)
 10010e4:	10800044 	addi	r2,r2,1
 10010e8:	e0bffb15 	stw	r2,-20(fp)
 10010ec:	e0bffb17 	ldw	r2,-20(fp)
 10010f0:	10800650 	cmplti	r2,r2,25
 10010f4:	103fd91e 	bne	r2,zero,100105c <draw_cannon1_frame3+0x44>

void draw_cannon1_frame3(alt_up_pixel_buffer_dma_dev* pixel_buffer, int x, int y ){
	unsigned short * pixel_offset = malloc(sizeof(short)); //2 bytes
	pixel_offset = &CANNON_1_FRAME3_pixel_data; //set pointer to start of image data
	int i, j;
	for(j=0; j <= CANNON_1_HEIGHT-1; j++){
 10010f8:	e0bffa17 	ldw	r2,-24(fp)
 10010fc:	10800044 	addi	r2,r2,1
 1001100:	e0bffa15 	stw	r2,-24(fp)
 1001104:	e0bffa17 	ldw	r2,-24(fp)
 1001108:	10800650 	cmplti	r2,r2,25
 100110c:	103fd11e 	bne	r2,zero,1001054 <draw_cannon1_frame3+0x3c>
				alt_up_pixel_buffer_dma_draw(pixel_buffer, *pixel_offset, x+i, y+j);
			}
			pixel_offset++;
		}
	}
}
 1001110:	e037883a 	mov	sp,fp
 1001114:	dfc00117 	ldw	ra,4(sp)
 1001118:	df000017 	ldw	fp,0(sp)
 100111c:	dec00204 	addi	sp,sp,8
 1001120:	f800283a 	ret

01001124 <animate_cannon1_shot>:


void animate_cannon1_shot(alt_up_pixel_buffer_dma_dev* pixel_buffer){
 1001124:	defffc04 	addi	sp,sp,-16
 1001128:	dfc00315 	stw	ra,12(sp)
 100112c:	df000215 	stw	fp,8(sp)
 1001130:	df000204 	addi	fp,sp,8
 1001134:	e13fff15 	stw	r4,-4(fp)
	int t;
	for(t = 40; t >= 0; t--){
 1001138:	00800a04 	movi	r2,40
 100113c:	e0bffe15 	stw	r2,-8(fp)
 1001140:	00001106 	br	1001188 <animate_cannon1_shot+0x64>
		if(t%5 == 0)
 1001144:	e13ffe17 	ldw	r4,-8(fp)
 1001148:	01400144 	movi	r5,5
 100114c:	10059ec0 	call	10059ec <__modsi3>
 1001150:	1004c03a 	cmpne	r2,r2,zero
 1001154:	1000051e 	bne	r2,zero,100116c <animate_cannon1_shot+0x48>
			draw_cannon1(pixel_buffer, PLAYER_1_WIDTH, 240-GROUND_HEIGHT-CANNON_1_HEIGHT);
 1001158:	e13fff17 	ldw	r4,-4(fp)
 100115c:	01400504 	movi	r5,20
 1001160:	01802e44 	movi	r6,185
 1001164:	1000e000 	call	1000e00 <draw_cannon1>
 1001168:	00000406 	br	100117c <animate_cannon1_shot+0x58>
		else
			draw_cannon1_frame2(pixel_buffer, PLAYER_1_WIDTH, 240-GROUND_HEIGHT-CANNON_1_HEIGHT);
 100116c:	e13fff17 	ldw	r4,-4(fp)
 1001170:	01400504 	movi	r5,20
 1001174:	01802e44 	movi	r6,185
 1001178:	1000f0c0 	call	1000f0c <draw_cannon1_frame2>
}


void animate_cannon1_shot(alt_up_pixel_buffer_dma_dev* pixel_buffer){
	int t;
	for(t = 40; t >= 0; t--){
 100117c:	e0bffe17 	ldw	r2,-8(fp)
 1001180:	10bfffc4 	addi	r2,r2,-1
 1001184:	e0bffe15 	stw	r2,-8(fp)
 1001188:	e0bffe17 	ldw	r2,-8(fp)
 100118c:	1004403a 	cmpge	r2,r2,zero
 1001190:	103fec1e 	bne	r2,zero,1001144 <animate_cannon1_shot+0x20>
		if(t%5 == 0)
			draw_cannon1(pixel_buffer, PLAYER_1_WIDTH, 240-GROUND_HEIGHT-CANNON_1_HEIGHT);
		else
			draw_cannon1_frame2(pixel_buffer, PLAYER_1_WIDTH, 240-GROUND_HEIGHT-CANNON_1_HEIGHT);
	}
	draw_cannon1_frame3(pixel_buffer, PLAYER_1_WIDTH, 240-GROUND_HEIGHT-CANNON_1_HEIGHT);
 1001194:	e13fff17 	ldw	r4,-4(fp)
 1001198:	01400504 	movi	r5,20
 100119c:	01802e44 	movi	r6,185
 10011a0:	10010180 	call	1001018 <draw_cannon1_frame3>
	for(t = 55; t >=0; t--); //wait
 10011a4:	00800dc4 	movi	r2,55
 10011a8:	e0bffe15 	stw	r2,-8(fp)
 10011ac:	00000306 	br	10011bc <animate_cannon1_shot+0x98>
 10011b0:	e0bffe17 	ldw	r2,-8(fp)
 10011b4:	10bfffc4 	addi	r2,r2,-1
 10011b8:	e0bffe15 	stw	r2,-8(fp)
 10011bc:	e0bffe17 	ldw	r2,-8(fp)
 10011c0:	1004403a 	cmpge	r2,r2,zero
 10011c4:	103ffa1e 	bne	r2,zero,10011b0 <animate_cannon1_shot+0x8c>
	draw_cannon1(pixel_buffer, PLAYER_1_WIDTH, 240-GROUND_HEIGHT-CANNON_1_HEIGHT);
 10011c8:	e13fff17 	ldw	r4,-4(fp)
 10011cc:	01400504 	movi	r5,20
 10011d0:	01802e44 	movi	r6,185
 10011d4:	1000e000 	call	1000e00 <draw_cannon1>
}
 10011d8:	e037883a 	mov	sp,fp
 10011dc:	dfc00117 	ldw	ra,4(sp)
 10011e0:	df000017 	ldw	fp,0(sp)
 10011e4:	dec00204 	addi	sp,sp,8
 10011e8:	f800283a 	ret

010011ec <animate_cannon2_shot>:

void animate_cannon2_shot(alt_up_pixel_buffer_dma_dev* pixel_buffer){
 10011ec:	defffc04 	addi	sp,sp,-16
 10011f0:	dfc00315 	stw	ra,12(sp)
 10011f4:	df000215 	stw	fp,8(sp)
 10011f8:	df000204 	addi	fp,sp,8
 10011fc:	e13fff15 	stw	r4,-4(fp)
	int t;
	for(t = 40; t >= 0; t--){
 1001200:	00800a04 	movi	r2,40
 1001204:	e0bffe15 	stw	r2,-8(fp)
 1001208:	00001106 	br	1001250 <animate_cannon2_shot+0x64>
		if(t%5 == 0)
 100120c:	e13ffe17 	ldw	r4,-8(fp)
 1001210:	01400144 	movi	r5,5
 1001214:	10059ec0 	call	10059ec <__modsi3>
 1001218:	1004c03a 	cmpne	r2,r2,zero
 100121c:	1000051e 	bne	r2,zero,1001234 <animate_cannon2_shot+0x48>
			draw_cannon2(pixel_buffer, 320-PLAYER_2_WIDTH-CANNON_2_WIDTH, 240-GROUND_HEIGHT-CANNON_1_HEIGHT);
 1001220:	e13fff17 	ldw	r4,-4(fp)
 1001224:	014044c4 	movi	r5,275
 1001228:	01802e44 	movi	r6,185
 100122c:	10012b40 	call	10012b4 <draw_cannon2>
 1001230:	00000406 	br	1001244 <animate_cannon2_shot+0x58>
		else
			draw_cannon2_frame2(pixel_buffer, 320-PLAYER_2_WIDTH-CANNON_2_WIDTH, 240-GROUND_HEIGHT-CANNON_1_HEIGHT);
 1001234:	e13fff17 	ldw	r4,-4(fp)
 1001238:	014044c4 	movi	r5,275
 100123c:	01802e44 	movi	r6,185
 1001240:	10013c00 	call	10013c0 <draw_cannon2_frame2>
	draw_cannon1(pixel_buffer, PLAYER_1_WIDTH, 240-GROUND_HEIGHT-CANNON_1_HEIGHT);
}

void animate_cannon2_shot(alt_up_pixel_buffer_dma_dev* pixel_buffer){
	int t;
	for(t = 40; t >= 0; t--){
 1001244:	e0bffe17 	ldw	r2,-8(fp)
 1001248:	10bfffc4 	addi	r2,r2,-1
 100124c:	e0bffe15 	stw	r2,-8(fp)
 1001250:	e0bffe17 	ldw	r2,-8(fp)
 1001254:	1004403a 	cmpge	r2,r2,zero
 1001258:	103fec1e 	bne	r2,zero,100120c <animate_cannon2_shot+0x20>
		if(t%5 == 0)
			draw_cannon2(pixel_buffer, 320-PLAYER_2_WIDTH-CANNON_2_WIDTH, 240-GROUND_HEIGHT-CANNON_1_HEIGHT);
		else
			draw_cannon2_frame2(pixel_buffer, 320-PLAYER_2_WIDTH-CANNON_2_WIDTH, 240-GROUND_HEIGHT-CANNON_1_HEIGHT);
	}
	draw_cannon2_frame3(pixel_buffer, 320-PLAYER_2_WIDTH-CANNON_2_WIDTH, 240-GROUND_HEIGHT-CANNON_1_HEIGHT);
 100125c:	e13fff17 	ldw	r4,-4(fp)
 1001260:	014044c4 	movi	r5,275
 1001264:	01802e44 	movi	r6,185
 1001268:	10014cc0 	call	10014cc <draw_cannon2_frame3>
	for(t = 55; t >=0; t--); //wait
 100126c:	00800dc4 	movi	r2,55
 1001270:	e0bffe15 	stw	r2,-8(fp)
 1001274:	00000306 	br	1001284 <animate_cannon2_shot+0x98>
 1001278:	e0bffe17 	ldw	r2,-8(fp)
 100127c:	10bfffc4 	addi	r2,r2,-1
 1001280:	e0bffe15 	stw	r2,-8(fp)
 1001284:	e0bffe17 	ldw	r2,-8(fp)
 1001288:	1004403a 	cmpge	r2,r2,zero
 100128c:	103ffa1e 	bne	r2,zero,1001278 <animate_cannon2_shot+0x8c>
	draw_cannon2(pixel_buffer, 320-PLAYER_2_WIDTH-CANNON_2_WIDTH, 240-GROUND_HEIGHT-CANNON_1_HEIGHT);
 1001290:	e13fff17 	ldw	r4,-4(fp)
 1001294:	014044c4 	movi	r5,275
 1001298:	01802e44 	movi	r6,185
 100129c:	10012b40 	call	10012b4 <draw_cannon2>
}
 10012a0:	e037883a 	mov	sp,fp
 10012a4:	dfc00117 	ldw	ra,4(sp)
 10012a8:	df000017 	ldw	fp,0(sp)
 10012ac:	dec00204 	addi	sp,sp,8
 10012b0:	f800283a 	ret

010012b4 <draw_cannon2>:

void draw_cannon2(alt_up_pixel_buffer_dma_dev* pixel_buffer, int x, int y ){
 10012b4:	defff804 	addi	sp,sp,-32
 10012b8:	dfc00715 	stw	ra,28(sp)
 10012bc:	df000615 	stw	fp,24(sp)
 10012c0:	df000604 	addi	fp,sp,24
 10012c4:	e13ffd15 	stw	r4,-12(fp)
 10012c8:	e17ffe15 	stw	r5,-8(fp)
 10012cc:	e1bfff15 	stw	r6,-4(fp)
	unsigned short * pixel_offset = malloc(sizeof(short)); //2 bytes
 10012d0:	01000084 	movi	r4,2
 10012d4:	10061600 	call	1006160 <malloc>
 10012d8:	e0bffc15 	stw	r2,-16(fp)
	pixel_offset = &CANNON_2_pixel_data; //set pointer to start of image data
 10012dc:	008040b4 	movhi	r2,258
 10012e0:	10ba0f04 	addi	r2,r2,-6084
 10012e4:	e0bffc15 	stw	r2,-16(fp)
	int i, j;
	for(j=0; j <= CANNON_2_HEIGHT-1; j++){
 10012e8:	e03ffa15 	stw	zero,-24(fp)
 10012ec:	00002c06 	br	10013a0 <draw_cannon2+0xec>
		for(i=0; i <= CANNON_2_WIDTH-1; i++){
 10012f0:	e03ffb15 	stw	zero,-20(fp)
 10012f4:	00002406 	br	1001388 <draw_cannon2+0xd4>
			if(*pixel_offset == 0xFFFF){
 10012f8:	e0bffc17 	ldw	r2,-16(fp)
 10012fc:	1080000b 	ldhu	r2,0(r2)
 1001300:	10ffffcc 	andi	r3,r2,65535
 1001304:	00bfffd4 	movui	r2,65535
 1001308:	18800c1e 	bne	r3,r2,100133c <draw_cannon2+0x88>
				alt_up_pixel_buffer_dma_draw(pixel_buffer, BACKGROUND, x+i, y+j);
 100130c:	e0fffe17 	ldw	r3,-8(fp)
 1001310:	e0bffb17 	ldw	r2,-20(fp)
 1001314:	1885883a 	add	r2,r3,r2
 1001318:	100d883a 	mov	r6,r2
 100131c:	e0ffff17 	ldw	r3,-4(fp)
 1001320:	e0bffa17 	ldw	r2,-24(fp)
 1001324:	1885883a 	add	r2,r3,r2
 1001328:	100f883a 	mov	r7,r2
 100132c:	e13ffd17 	ldw	r4,-12(fp)
 1001330:	0173ffd4 	movui	r5,53247
 1001334:	101061c0 	call	101061c <alt_up_pixel_buffer_dma_draw>
 1001338:	00000d06 	br	1001370 <draw_cannon2+0xbc>
			}
			else{
				alt_up_pixel_buffer_dma_draw(pixel_buffer, *pixel_offset, x+i, y+j);
 100133c:	e0bffc17 	ldw	r2,-16(fp)
 1001340:	1080000b 	ldhu	r2,0(r2)
 1001344:	117fffcc 	andi	r5,r2,65535
 1001348:	e0fffe17 	ldw	r3,-8(fp)
 100134c:	e0bffb17 	ldw	r2,-20(fp)
 1001350:	1885883a 	add	r2,r3,r2
 1001354:	100d883a 	mov	r6,r2
 1001358:	e0ffff17 	ldw	r3,-4(fp)
 100135c:	e0bffa17 	ldw	r2,-24(fp)
 1001360:	1885883a 	add	r2,r3,r2
 1001364:	100f883a 	mov	r7,r2
 1001368:	e13ffd17 	ldw	r4,-12(fp)
 100136c:	101061c0 	call	101061c <alt_up_pixel_buffer_dma_draw>
			}
			pixel_offset++;
 1001370:	e0bffc17 	ldw	r2,-16(fp)
 1001374:	10800084 	addi	r2,r2,2
 1001378:	e0bffc15 	stw	r2,-16(fp)
void draw_cannon2(alt_up_pixel_buffer_dma_dev* pixel_buffer, int x, int y ){
	unsigned short * pixel_offset = malloc(sizeof(short)); //2 bytes
	pixel_offset = &CANNON_2_pixel_data; //set pointer to start of image data
	int i, j;
	for(j=0; j <= CANNON_2_HEIGHT-1; j++){
		for(i=0; i <= CANNON_2_WIDTH-1; i++){
 100137c:	e0bffb17 	ldw	r2,-20(fp)
 1001380:	10800044 	addi	r2,r2,1
 1001384:	e0bffb15 	stw	r2,-20(fp)
 1001388:	e0bffb17 	ldw	r2,-20(fp)
 100138c:	10800650 	cmplti	r2,r2,25
 1001390:	103fd91e 	bne	r2,zero,10012f8 <draw_cannon2+0x44>

void draw_cannon2(alt_up_pixel_buffer_dma_dev* pixel_buffer, int x, int y ){
	unsigned short * pixel_offset = malloc(sizeof(short)); //2 bytes
	pixel_offset = &CANNON_2_pixel_data; //set pointer to start of image data
	int i, j;
	for(j=0; j <= CANNON_2_HEIGHT-1; j++){
 1001394:	e0bffa17 	ldw	r2,-24(fp)
 1001398:	10800044 	addi	r2,r2,1
 100139c:	e0bffa15 	stw	r2,-24(fp)
 10013a0:	e0bffa17 	ldw	r2,-24(fp)
 10013a4:	10800650 	cmplti	r2,r2,25
 10013a8:	103fd11e 	bne	r2,zero,10012f0 <draw_cannon2+0x3c>
				alt_up_pixel_buffer_dma_draw(pixel_buffer, *pixel_offset, x+i, y+j);
			}
			pixel_offset++;
		}
	}
}
 10013ac:	e037883a 	mov	sp,fp
 10013b0:	dfc00117 	ldw	ra,4(sp)
 10013b4:	df000017 	ldw	fp,0(sp)
 10013b8:	dec00204 	addi	sp,sp,8
 10013bc:	f800283a 	ret

010013c0 <draw_cannon2_frame2>:

void draw_cannon2_frame2(alt_up_pixel_buffer_dma_dev* pixel_buffer, int x, int y ){
 10013c0:	defff804 	addi	sp,sp,-32
 10013c4:	dfc00715 	stw	ra,28(sp)
 10013c8:	df000615 	stw	fp,24(sp)
 10013cc:	df000604 	addi	fp,sp,24
 10013d0:	e13ffd15 	stw	r4,-12(fp)
 10013d4:	e17ffe15 	stw	r5,-8(fp)
 10013d8:	e1bfff15 	stw	r6,-4(fp)
	unsigned short * pixel_offset = malloc(sizeof(short)); //2 bytes
 10013dc:	01000084 	movi	r4,2
 10013e0:	10061600 	call	1006160 <malloc>
 10013e4:	e0bffc15 	stw	r2,-16(fp)
	//unsigned short number = (unsigned short) strtoul(name, NULL, 0);
	pixel_offset = &CANNON_2_FRAME2_pixel_data; //set pointer to start of image data
 10013e8:	008040b4 	movhi	r2,258
 10013ec:	10bbe404 	addi	r2,r2,-4208
 10013f0:	e0bffc15 	stw	r2,-16(fp)
	int i, j;
	for(j=0; j <= CANNON_2_HEIGHT-1; j++){
 10013f4:	e03ffa15 	stw	zero,-24(fp)
 10013f8:	00002c06 	br	10014ac <draw_cannon2_frame2+0xec>
		for(i=0; i <= CANNON_2_WIDTH-1; i++){
 10013fc:	e03ffb15 	stw	zero,-20(fp)
 1001400:	00002406 	br	1001494 <draw_cannon2_frame2+0xd4>
			if(*pixel_offset == 0xFFFF){
 1001404:	e0bffc17 	ldw	r2,-16(fp)
 1001408:	1080000b 	ldhu	r2,0(r2)
 100140c:	10ffffcc 	andi	r3,r2,65535
 1001410:	00bfffd4 	movui	r2,65535
 1001414:	18800c1e 	bne	r3,r2,1001448 <draw_cannon2_frame2+0x88>
				alt_up_pixel_buffer_dma_draw(pixel_buffer, BACKGROUND, x+i, y+j);
 1001418:	e0fffe17 	ldw	r3,-8(fp)
 100141c:	e0bffb17 	ldw	r2,-20(fp)
 1001420:	1885883a 	add	r2,r3,r2
 1001424:	100d883a 	mov	r6,r2
 1001428:	e0ffff17 	ldw	r3,-4(fp)
 100142c:	e0bffa17 	ldw	r2,-24(fp)
 1001430:	1885883a 	add	r2,r3,r2
 1001434:	100f883a 	mov	r7,r2
 1001438:	e13ffd17 	ldw	r4,-12(fp)
 100143c:	0173ffd4 	movui	r5,53247
 1001440:	101061c0 	call	101061c <alt_up_pixel_buffer_dma_draw>
 1001444:	00000d06 	br	100147c <draw_cannon2_frame2+0xbc>
			}
			else{
				alt_up_pixel_buffer_dma_draw(pixel_buffer, *pixel_offset, x+i, y+j);
 1001448:	e0bffc17 	ldw	r2,-16(fp)
 100144c:	1080000b 	ldhu	r2,0(r2)
 1001450:	117fffcc 	andi	r5,r2,65535
 1001454:	e0fffe17 	ldw	r3,-8(fp)
 1001458:	e0bffb17 	ldw	r2,-20(fp)
 100145c:	1885883a 	add	r2,r3,r2
 1001460:	100d883a 	mov	r6,r2
 1001464:	e0ffff17 	ldw	r3,-4(fp)
 1001468:	e0bffa17 	ldw	r2,-24(fp)
 100146c:	1885883a 	add	r2,r3,r2
 1001470:	100f883a 	mov	r7,r2
 1001474:	e13ffd17 	ldw	r4,-12(fp)
 1001478:	101061c0 	call	101061c <alt_up_pixel_buffer_dma_draw>
			}
			pixel_offset++;
 100147c:	e0bffc17 	ldw	r2,-16(fp)
 1001480:	10800084 	addi	r2,r2,2
 1001484:	e0bffc15 	stw	r2,-16(fp)
	unsigned short * pixel_offset = malloc(sizeof(short)); //2 bytes
	//unsigned short number = (unsigned short) strtoul(name, NULL, 0);
	pixel_offset = &CANNON_2_FRAME2_pixel_data; //set pointer to start of image data
	int i, j;
	for(j=0; j <= CANNON_2_HEIGHT-1; j++){
		for(i=0; i <= CANNON_2_WIDTH-1; i++){
 1001488:	e0bffb17 	ldw	r2,-20(fp)
 100148c:	10800044 	addi	r2,r2,1
 1001490:	e0bffb15 	stw	r2,-20(fp)
 1001494:	e0bffb17 	ldw	r2,-20(fp)
 1001498:	10800650 	cmplti	r2,r2,25
 100149c:	103fd91e 	bne	r2,zero,1001404 <draw_cannon2_frame2+0x44>
void draw_cannon2_frame2(alt_up_pixel_buffer_dma_dev* pixel_buffer, int x, int y ){
	unsigned short * pixel_offset = malloc(sizeof(short)); //2 bytes
	//unsigned short number = (unsigned short) strtoul(name, NULL, 0);
	pixel_offset = &CANNON_2_FRAME2_pixel_data; //set pointer to start of image data
	int i, j;
	for(j=0; j <= CANNON_2_HEIGHT-1; j++){
 10014a0:	e0bffa17 	ldw	r2,-24(fp)
 10014a4:	10800044 	addi	r2,r2,1
 10014a8:	e0bffa15 	stw	r2,-24(fp)
 10014ac:	e0bffa17 	ldw	r2,-24(fp)
 10014b0:	10800650 	cmplti	r2,r2,25
 10014b4:	103fd11e 	bne	r2,zero,10013fc <draw_cannon2_frame2+0x3c>
				alt_up_pixel_buffer_dma_draw(pixel_buffer, *pixel_offset, x+i, y+j);
			}
			pixel_offset++;
		}
	}
}
 10014b8:	e037883a 	mov	sp,fp
 10014bc:	dfc00117 	ldw	ra,4(sp)
 10014c0:	df000017 	ldw	fp,0(sp)
 10014c4:	dec00204 	addi	sp,sp,8
 10014c8:	f800283a 	ret

010014cc <draw_cannon2_frame3>:

void draw_cannon2_frame3(alt_up_pixel_buffer_dma_dev* pixel_buffer, int x, int y ){
 10014cc:	defff804 	addi	sp,sp,-32
 10014d0:	dfc00715 	stw	ra,28(sp)
 10014d4:	df000615 	stw	fp,24(sp)
 10014d8:	df000604 	addi	fp,sp,24
 10014dc:	e13ffd15 	stw	r4,-12(fp)
 10014e0:	e17ffe15 	stw	r5,-8(fp)
 10014e4:	e1bfff15 	stw	r6,-4(fp)
	unsigned short * pixel_offset = malloc(sizeof(short)); //2 bytes
 10014e8:	01000084 	movi	r4,2
 10014ec:	10061600 	call	1006160 <malloc>
 10014f0:	e0bffc15 	stw	r2,-16(fp)
	//unsigned short number = (unsigned short) strtoul(name, NULL, 0);
	pixel_offset = &CANNON_2_FRAME3_pixel_data; //set pointer to start of image data
 10014f4:	008040b4 	movhi	r2,258
 10014f8:	10bdb904 	addi	r2,r2,-2332
 10014fc:	e0bffc15 	stw	r2,-16(fp)
	int i, j;
	for(j=0; j <= CANNON_2_HEIGHT-1; j++){
 1001500:	e03ffa15 	stw	zero,-24(fp)
 1001504:	00002c06 	br	10015b8 <draw_cannon2_frame3+0xec>
		for(i=0; i <= CANNON_2_WIDTH-1; i++){
 1001508:	e03ffb15 	stw	zero,-20(fp)
 100150c:	00002406 	br	10015a0 <draw_cannon2_frame3+0xd4>
			if(*pixel_offset == 0xFFFF){
 1001510:	e0bffc17 	ldw	r2,-16(fp)
 1001514:	1080000b 	ldhu	r2,0(r2)
 1001518:	10ffffcc 	andi	r3,r2,65535
 100151c:	00bfffd4 	movui	r2,65535
 1001520:	18800c1e 	bne	r3,r2,1001554 <draw_cannon2_frame3+0x88>
				alt_up_pixel_buffer_dma_draw(pixel_buffer, BACKGROUND, x+i, y+j);
 1001524:	e0fffe17 	ldw	r3,-8(fp)
 1001528:	e0bffb17 	ldw	r2,-20(fp)
 100152c:	1885883a 	add	r2,r3,r2
 1001530:	100d883a 	mov	r6,r2
 1001534:	e0ffff17 	ldw	r3,-4(fp)
 1001538:	e0bffa17 	ldw	r2,-24(fp)
 100153c:	1885883a 	add	r2,r3,r2
 1001540:	100f883a 	mov	r7,r2
 1001544:	e13ffd17 	ldw	r4,-12(fp)
 1001548:	0173ffd4 	movui	r5,53247
 100154c:	101061c0 	call	101061c <alt_up_pixel_buffer_dma_draw>
 1001550:	00000d06 	br	1001588 <draw_cannon2_frame3+0xbc>
			}
			else{
				alt_up_pixel_buffer_dma_draw(pixel_buffer, *pixel_offset, x+i, y+j);
 1001554:	e0bffc17 	ldw	r2,-16(fp)
 1001558:	1080000b 	ldhu	r2,0(r2)
 100155c:	117fffcc 	andi	r5,r2,65535
 1001560:	e0fffe17 	ldw	r3,-8(fp)
 1001564:	e0bffb17 	ldw	r2,-20(fp)
 1001568:	1885883a 	add	r2,r3,r2
 100156c:	100d883a 	mov	r6,r2
 1001570:	e0ffff17 	ldw	r3,-4(fp)
 1001574:	e0bffa17 	ldw	r2,-24(fp)
 1001578:	1885883a 	add	r2,r3,r2
 100157c:	100f883a 	mov	r7,r2
 1001580:	e13ffd17 	ldw	r4,-12(fp)
 1001584:	101061c0 	call	101061c <alt_up_pixel_buffer_dma_draw>
			}
			pixel_offset++;
 1001588:	e0bffc17 	ldw	r2,-16(fp)
 100158c:	10800084 	addi	r2,r2,2
 1001590:	e0bffc15 	stw	r2,-16(fp)
	unsigned short * pixel_offset = malloc(sizeof(short)); //2 bytes
	//unsigned short number = (unsigned short) strtoul(name, NULL, 0);
	pixel_offset = &CANNON_2_FRAME3_pixel_data; //set pointer to start of image data
	int i, j;
	for(j=0; j <= CANNON_2_HEIGHT-1; j++){
		for(i=0; i <= CANNON_2_WIDTH-1; i++){
 1001594:	e0bffb17 	ldw	r2,-20(fp)
 1001598:	10800044 	addi	r2,r2,1
 100159c:	e0bffb15 	stw	r2,-20(fp)
 10015a0:	e0bffb17 	ldw	r2,-20(fp)
 10015a4:	10800650 	cmplti	r2,r2,25
 10015a8:	103fd91e 	bne	r2,zero,1001510 <draw_cannon2_frame3+0x44>
void draw_cannon2_frame3(alt_up_pixel_buffer_dma_dev* pixel_buffer, int x, int y ){
	unsigned short * pixel_offset = malloc(sizeof(short)); //2 bytes
	//unsigned short number = (unsigned short) strtoul(name, NULL, 0);
	pixel_offset = &CANNON_2_FRAME3_pixel_data; //set pointer to start of image data
	int i, j;
	for(j=0; j <= CANNON_2_HEIGHT-1; j++){
 10015ac:	e0bffa17 	ldw	r2,-24(fp)
 10015b0:	10800044 	addi	r2,r2,1
 10015b4:	e0bffa15 	stw	r2,-24(fp)
 10015b8:	e0bffa17 	ldw	r2,-24(fp)
 10015bc:	10800650 	cmplti	r2,r2,25
 10015c0:	103fd11e 	bne	r2,zero,1001508 <draw_cannon2_frame3+0x3c>
				alt_up_pixel_buffer_dma_draw(pixel_buffer, *pixel_offset, x+i, y+j);
			}
			pixel_offset++;
		}
	}
}
 10015c4:	e037883a 	mov	sp,fp
 10015c8:	dfc00117 	ldw	ra,4(sp)
 10015cc:	df000017 	ldw	fp,0(sp)
 10015d0:	dec00204 	addi	sp,sp,8
 10015d4:	f800283a 	ret

010015d8 <draw_bmp>:
 * 	image_width, image_height 	: width and height of image to draw
 * 	x, y						: starting location (top left pixel) of drawing
 * Optional: replace all draw_X() calls with this function instead.
 *
 */
void draw_bmp(alt_up_pixel_buffer_dma_dev* pixel_buffer, unsigned short *pixel_data, int image_width, int image_height, int x, int y){
 10015d8:	defff804 	addi	sp,sp,-32
 10015dc:	dfc00715 	stw	ra,28(sp)
 10015e0:	df000615 	stw	fp,24(sp)
 10015e4:	df000604 	addi	fp,sp,24
 10015e8:	e13ffc15 	stw	r4,-16(fp)
 10015ec:	e17ffd15 	stw	r5,-12(fp)
 10015f0:	e1bffe15 	stw	r6,-8(fp)
 10015f4:	e1ffff15 	stw	r7,-4(fp)
	int i, j;
	for(j=0; j <= image_height-1; j++){
 10015f8:	e03ffa15 	stw	zero,-24(fp)
 10015fc:	00002d06 	br	10016b4 <draw_bmp+0xdc>
		for(i=0; i <= image_width-1; i++){
 1001600:	e03ffb15 	stw	zero,-20(fp)
 1001604:	00002406 	br	1001698 <draw_bmp+0xc0>
			if(*pixel_data == 0xFFFF){
 1001608:	e0bffd17 	ldw	r2,-12(fp)
 100160c:	1080000b 	ldhu	r2,0(r2)
 1001610:	10ffffcc 	andi	r3,r2,65535
 1001614:	00bfffd4 	movui	r2,65535
 1001618:	18800c1e 	bne	r3,r2,100164c <draw_bmp+0x74>
				alt_up_pixel_buffer_dma_draw(pixel_buffer, BACKGROUND, x+i, y+j);
 100161c:	e0c00217 	ldw	r3,8(fp)
 1001620:	e0bffb17 	ldw	r2,-20(fp)
 1001624:	1885883a 	add	r2,r3,r2
 1001628:	100d883a 	mov	r6,r2
 100162c:	e0c00317 	ldw	r3,12(fp)
 1001630:	e0bffa17 	ldw	r2,-24(fp)
 1001634:	1885883a 	add	r2,r3,r2
 1001638:	100f883a 	mov	r7,r2
 100163c:	e13ffc17 	ldw	r4,-16(fp)
 1001640:	0173ffd4 	movui	r5,53247
 1001644:	101061c0 	call	101061c <alt_up_pixel_buffer_dma_draw>
 1001648:	00000d06 	br	1001680 <draw_bmp+0xa8>
			}
			else{
				alt_up_pixel_buffer_dma_draw(pixel_buffer, *pixel_data, x+i, y+j);
 100164c:	e0bffd17 	ldw	r2,-12(fp)
 1001650:	1080000b 	ldhu	r2,0(r2)
 1001654:	117fffcc 	andi	r5,r2,65535
 1001658:	e0c00217 	ldw	r3,8(fp)
 100165c:	e0bffb17 	ldw	r2,-20(fp)
 1001660:	1885883a 	add	r2,r3,r2
 1001664:	100d883a 	mov	r6,r2
 1001668:	e0c00317 	ldw	r3,12(fp)
 100166c:	e0bffa17 	ldw	r2,-24(fp)
 1001670:	1885883a 	add	r2,r3,r2
 1001674:	100f883a 	mov	r7,r2
 1001678:	e13ffc17 	ldw	r4,-16(fp)
 100167c:	101061c0 	call	101061c <alt_up_pixel_buffer_dma_draw>
			}
			pixel_data++;
 1001680:	e0bffd17 	ldw	r2,-12(fp)
 1001684:	10800084 	addi	r2,r2,2
 1001688:	e0bffd15 	stw	r2,-12(fp)
 *
 */
void draw_bmp(alt_up_pixel_buffer_dma_dev* pixel_buffer, unsigned short *pixel_data, int image_width, int image_height, int x, int y){
	int i, j;
	for(j=0; j <= image_height-1; j++){
		for(i=0; i <= image_width-1; i++){
 100168c:	e0bffb17 	ldw	r2,-20(fp)
 1001690:	10800044 	addi	r2,r2,1
 1001694:	e0bffb15 	stw	r2,-20(fp)
 1001698:	e0bffe17 	ldw	r2,-8(fp)
 100169c:	10ffffc4 	addi	r3,r2,-1
 10016a0:	e0bffb17 	ldw	r2,-20(fp)
 10016a4:	18bfd80e 	bge	r3,r2,1001608 <draw_bmp+0x30>
 * Optional: replace all draw_X() calls with this function instead.
 *
 */
void draw_bmp(alt_up_pixel_buffer_dma_dev* pixel_buffer, unsigned short *pixel_data, int image_width, int image_height, int x, int y){
	int i, j;
	for(j=0; j <= image_height-1; j++){
 10016a8:	e0bffa17 	ldw	r2,-24(fp)
 10016ac:	10800044 	addi	r2,r2,1
 10016b0:	e0bffa15 	stw	r2,-24(fp)
 10016b4:	e0bfff17 	ldw	r2,-4(fp)
 10016b8:	10ffffc4 	addi	r3,r2,-1
 10016bc:	e0bffa17 	ldw	r2,-24(fp)
 10016c0:	18bfcf0e 	bge	r3,r2,1001600 <draw_bmp+0x28>
				alt_up_pixel_buffer_dma_draw(pixel_buffer, *pixel_data, x+i, y+j);
			}
			pixel_data++;
		}
	}
}
 10016c4:	e037883a 	mov	sp,fp
 10016c8:	dfc00117 	ldw	ra,4(sp)
 10016cc:	df000017 	ldw	fp,0(sp)
 10016d0:	dec00204 	addi	sp,sp,8
 10016d4:	f800283a 	ret

010016d8 <draw_p1box>:

void draw_p1box(alt_up_pixel_buffer_dma_dev* pixel_buffer, int x, int y ){
 10016d8:	defff804 	addi	sp,sp,-32
 10016dc:	dfc00715 	stw	ra,28(sp)
 10016e0:	df000615 	stw	fp,24(sp)
 10016e4:	df000604 	addi	fp,sp,24
 10016e8:	e13ffd15 	stw	r4,-12(fp)
 10016ec:	e17ffe15 	stw	r5,-8(fp)
 10016f0:	e1bfff15 	stw	r6,-4(fp)
	unsigned short * pixel_offset = malloc(sizeof(short)); //2 bytes
 10016f4:	01000084 	movi	r4,2
 10016f8:	10061600 	call	1006160 <malloc>
 10016fc:	e0bffc15 	stw	r2,-16(fp)
	pixel_offset = &P1BOX_pixel_data; //set pointer to start of image data
 1001700:	008040b4 	movhi	r2,258
 1001704:	10bf9e04 	addi	r2,r2,-392
 1001708:	e0bffc15 	stw	r2,-16(fp)
	int i, j;
	for(j=0; j <= P1BOX_HEIGHT-1; j++){
 100170c:	e03ffa15 	stw	zero,-24(fp)
 1001710:	00001b06 	br	1001780 <draw_p1box+0xa8>
		for(i=0; i <= P1BOX_WIDTH-1; i++){
 1001714:	e03ffb15 	stw	zero,-20(fp)
 1001718:	00001306 	br	1001768 <draw_p1box+0x90>
			alt_up_pixel_buffer_dma_draw(pixel_buffer, *pixel_offset, x+i, y+j);
 100171c:	e0bffc17 	ldw	r2,-16(fp)
 1001720:	1080000b 	ldhu	r2,0(r2)
 1001724:	117fffcc 	andi	r5,r2,65535
 1001728:	e0fffe17 	ldw	r3,-8(fp)
 100172c:	e0bffb17 	ldw	r2,-20(fp)
 1001730:	1885883a 	add	r2,r3,r2
 1001734:	100d883a 	mov	r6,r2
 1001738:	e0ffff17 	ldw	r3,-4(fp)
 100173c:	e0bffa17 	ldw	r2,-24(fp)
 1001740:	1885883a 	add	r2,r3,r2
 1001744:	100f883a 	mov	r7,r2
 1001748:	e13ffd17 	ldw	r4,-12(fp)
 100174c:	101061c0 	call	101061c <alt_up_pixel_buffer_dma_draw>
			pixel_offset++;
 1001750:	e0bffc17 	ldw	r2,-16(fp)
 1001754:	10800084 	addi	r2,r2,2
 1001758:	e0bffc15 	stw	r2,-16(fp)
void draw_p1box(alt_up_pixel_buffer_dma_dev* pixel_buffer, int x, int y ){
	unsigned short * pixel_offset = malloc(sizeof(short)); //2 bytes
	pixel_offset = &P1BOX_pixel_data; //set pointer to start of image data
	int i, j;
	for(j=0; j <= P1BOX_HEIGHT-1; j++){
		for(i=0; i <= P1BOX_WIDTH-1; i++){
 100175c:	e0bffb17 	ldw	r2,-20(fp)
 1001760:	10800044 	addi	r2,r2,1
 1001764:	e0bffb15 	stw	r2,-20(fp)
 1001768:	e0bffb17 	ldw	r2,-20(fp)
 100176c:	10801610 	cmplti	r2,r2,88
 1001770:	103fea1e 	bne	r2,zero,100171c <draw_p1box+0x44>

void draw_p1box(alt_up_pixel_buffer_dma_dev* pixel_buffer, int x, int y ){
	unsigned short * pixel_offset = malloc(sizeof(short)); //2 bytes
	pixel_offset = &P1BOX_pixel_data; //set pointer to start of image data
	int i, j;
	for(j=0; j <= P1BOX_HEIGHT-1; j++){
 1001774:	e0bffa17 	ldw	r2,-24(fp)
 1001778:	10800044 	addi	r2,r2,1
 100177c:	e0bffa15 	stw	r2,-24(fp)
 1001780:	e0bffa17 	ldw	r2,-24(fp)
 1001784:	108003d0 	cmplti	r2,r2,15
 1001788:	103fe21e 	bne	r2,zero,1001714 <draw_p1box+0x3c>
		for(i=0; i <= P1BOX_WIDTH-1; i++){
			alt_up_pixel_buffer_dma_draw(pixel_buffer, *pixel_offset, x+i, y+j);
			pixel_offset++;
		}
	}
}
 100178c:	e037883a 	mov	sp,fp
 1001790:	dfc00117 	ldw	ra,4(sp)
 1001794:	df000017 	ldw	fp,0(sp)
 1001798:	dec00204 	addi	sp,sp,8
 100179c:	f800283a 	ret

010017a0 <draw_p2box>:

void draw_p2box(alt_up_pixel_buffer_dma_dev* pixel_buffer, int x, int y ){
 10017a0:	defff804 	addi	sp,sp,-32
 10017a4:	dfc00715 	stw	ra,28(sp)
 10017a8:	df000615 	stw	fp,24(sp)
 10017ac:	df000604 	addi	fp,sp,24
 10017b0:	e13ffd15 	stw	r4,-12(fp)
 10017b4:	e17ffe15 	stw	r5,-8(fp)
 10017b8:	e1bfff15 	stw	r6,-4(fp)
	unsigned short * pixel_offset = malloc(sizeof(short)); //2 bytes
 10017bc:	01000084 	movi	r4,2
 10017c0:	10061600 	call	1006160 <malloc>
 10017c4:	e0bffc15 	stw	r2,-16(fp)
	pixel_offset = &P2BOX_pixel_data; //set pointer to start of image data
 10017c8:	008040b4 	movhi	r2,258
 10017cc:	10837d04 	addi	r2,r2,3572
 10017d0:	e0bffc15 	stw	r2,-16(fp)
	int i, j;
	for(j=0; j <= P2BOX_HEIGHT-1; j++){
 10017d4:	e03ffa15 	stw	zero,-24(fp)
 10017d8:	00001b06 	br	1001848 <draw_p2box+0xa8>
		for(i=0; i <= P2BOX_WIDTH-1; i++){
 10017dc:	e03ffb15 	stw	zero,-20(fp)
 10017e0:	00001306 	br	1001830 <draw_p2box+0x90>
			alt_up_pixel_buffer_dma_draw(pixel_buffer, *pixel_offset, x+i, y+j);
 10017e4:	e0bffc17 	ldw	r2,-16(fp)
 10017e8:	1080000b 	ldhu	r2,0(r2)
 10017ec:	117fffcc 	andi	r5,r2,65535
 10017f0:	e0fffe17 	ldw	r3,-8(fp)
 10017f4:	e0bffb17 	ldw	r2,-20(fp)
 10017f8:	1885883a 	add	r2,r3,r2
 10017fc:	100d883a 	mov	r6,r2
 1001800:	e0ffff17 	ldw	r3,-4(fp)
 1001804:	e0bffa17 	ldw	r2,-24(fp)
 1001808:	1885883a 	add	r2,r3,r2
 100180c:	100f883a 	mov	r7,r2
 1001810:	e13ffd17 	ldw	r4,-12(fp)
 1001814:	101061c0 	call	101061c <alt_up_pixel_buffer_dma_draw>
			pixel_offset++;
 1001818:	e0bffc17 	ldw	r2,-16(fp)
 100181c:	10800084 	addi	r2,r2,2
 1001820:	e0bffc15 	stw	r2,-16(fp)
void draw_p2box(alt_up_pixel_buffer_dma_dev* pixel_buffer, int x, int y ){
	unsigned short * pixel_offset = malloc(sizeof(short)); //2 bytes
	pixel_offset = &P2BOX_pixel_data; //set pointer to start of image data
	int i, j;
	for(j=0; j <= P2BOX_HEIGHT-1; j++){
		for(i=0; i <= P2BOX_WIDTH-1; i++){
 1001824:	e0bffb17 	ldw	r2,-20(fp)
 1001828:	10800044 	addi	r2,r2,1
 100182c:	e0bffb15 	stw	r2,-20(fp)
 1001830:	e0bffb17 	ldw	r2,-20(fp)
 1001834:	10801610 	cmplti	r2,r2,88
 1001838:	103fea1e 	bne	r2,zero,10017e4 <draw_p2box+0x44>

void draw_p2box(alt_up_pixel_buffer_dma_dev* pixel_buffer, int x, int y ){
	unsigned short * pixel_offset = malloc(sizeof(short)); //2 bytes
	pixel_offset = &P2BOX_pixel_data; //set pointer to start of image data
	int i, j;
	for(j=0; j <= P2BOX_HEIGHT-1; j++){
 100183c:	e0bffa17 	ldw	r2,-24(fp)
 1001840:	10800044 	addi	r2,r2,1
 1001844:	e0bffa15 	stw	r2,-24(fp)
 1001848:	e0bffa17 	ldw	r2,-24(fp)
 100184c:	108003d0 	cmplti	r2,r2,15
 1001850:	103fe21e 	bne	r2,zero,10017dc <draw_p2box+0x3c>
		for(i=0; i <= P2BOX_WIDTH-1; i++){
			alt_up_pixel_buffer_dma_draw(pixel_buffer, *pixel_offset, x+i, y+j);
			pixel_offset++;
		}
	}
}
 1001854:	e037883a 	mov	sp,fp
 1001858:	dfc00117 	ldw	ra,4(sp)
 100185c:	df000017 	ldw	fp,0(sp)
 1001860:	dec00204 	addi	sp,sp,8
 1001864:	f800283a 	ret

01001868 <main_2>:
#include <stdio.h>
#include "altera_up_avalon_video_pixel_buffer_dma.h"
#include "altera_up_avalon_video_character_buffer_with_dma.h"
int main_2(void);
int main_2(void)
{
 1001868:	defff604 	addi	sp,sp,-40
 100186c:	dfc00915 	stw	ra,36(sp)
 1001870:	df000815 	stw	fp,32(sp)
 1001874:	df000804 	addi	fp,sp,32
	printf("Hello from Nios II! Starting program...\n");
 1001878:	01004134 	movhi	r4,260
 100187c:	21181904 	addi	r4,r4,24676
 1001880:	10069cc0 	call	10069cc <puts>

	alt_up_pixel_buffer_dma_dev* pixel_buffer;
	pixel_buffer = alt_up_pixel_buffer_dma_open_dev("/dev/video_pixel_buffer_dma_0"); 	// Use the name of your pixel buffer DMA core
 1001884:	01004134 	movhi	r4,260
 1001888:	21182304 	addi	r4,r4,24716
 100188c:	10105dc0 	call	10105dc <alt_up_pixel_buffer_dma_open_dev>
 1001890:	e0bfff15 	stw	r2,-4(fp)

	// Set the background buffer address  Although we dont use the background,
	// they only provide a function to change the background buffer address, so we must set that, and then swap it to the foreground.
	alt_up_pixel_buffer_dma_change_back_buffer_address(pixel_buffer,SRAM_0_BASE);
 1001894:	e13fff17 	ldw	r4,-4(fp)
 1001898:	01400234 	movhi	r5,8
 100189c:	10107c80 	call	10107c8 <alt_up_pixel_buffer_dma_change_back_buffer_address>

	alt_up_pixel_buffer_dma_swap_buffers(pixel_buffer); // Swap background and foreground buffers
 10018a0:	e13fff17 	ldw	r4,-4(fp)
 10018a4:	10108200 	call	1010820 <alt_up_pixel_buffer_dma_swap_buffers>
	while (alt_up_pixel_buffer_dma_check_swap_buffers_status(pixel_buffer)); // Wait for the swap to complete
 10018a8:	e13fff17 	ldw	r4,-4(fp)
 10018ac:	10108780 	call	1010878 <alt_up_pixel_buffer_dma_check_swap_buffers_status>
 10018b0:	1004c03a 	cmpne	r2,r2,zero
 10018b4:	103ffc1e 	bne	r2,zero,10018a8 <main_2+0x40>
	alt_up_pixel_buffer_dma_clear_screen(pixel_buffer, 0); 	// Clear the screen
 10018b8:	e13fff17 	ldw	r4,-4(fp)
 10018bc:	000b883a 	mov	r5,zero
 10018c0:	10108ac0 	call	10108ac <alt_up_pixel_buffer_dma_clear_screen>
	alt_up_pixel_buffer_dma_draw_line(pixel_buffer, 0, 50, 50, 50, 0xFFFF, 0); // Draw a white line to the foreground buffer
 10018c4:	00800c84 	movi	r2,50
 10018c8:	d8800015 	stw	r2,0(sp)
 10018cc:	00bfffd4 	movui	r2,65535
 10018d0:	d8800115 	stw	r2,4(sp)
 10018d4:	d8000215 	stw	zero,8(sp)
 10018d8:	e13fff17 	ldw	r4,-4(fp)
 10018dc:	000b883a 	mov	r5,zero
 10018e0:	01800c84 	movi	r6,50
 10018e4:	01c00c84 	movi	r7,50
 10018e8:	10117e00 	call	10117e0 <alt_up_pixel_buffer_dma_draw_line>
	alt_up_pixel_buffer_dma_draw_line(pixel_buffer, 50, 100, 100, 100, 0xFFFF, 0);
 10018ec:	00801904 	movi	r2,100
 10018f0:	d8800015 	stw	r2,0(sp)
 10018f4:	00bfffd4 	movui	r2,65535
 10018f8:	d8800115 	stw	r2,4(sp)
 10018fc:	d8000215 	stw	zero,8(sp)
 1001900:	e13fff17 	ldw	r4,-4(fp)
 1001904:	01400c84 	movi	r5,50
 1001908:	01801904 	movi	r6,100
 100190c:	01c01904 	movi	r7,100
 1001910:	10117e00 	call	10117e0 <alt_up_pixel_buffer_dma_draw_line>
	alt_up_pixel_buffer_dma_draw_line(pixel_buffer, 100, 50, 150, 50, 0xFFFF, 0);
 1001914:	00800c84 	movi	r2,50
 1001918:	d8800015 	stw	r2,0(sp)
 100191c:	00bfffd4 	movui	r2,65535
 1001920:	d8800115 	stw	r2,4(sp)
 1001924:	d8000215 	stw	zero,8(sp)
 1001928:	e13fff17 	ldw	r4,-4(fp)
 100192c:	01401904 	movi	r5,100
 1001930:	01800c84 	movi	r6,50
 1001934:	01c02584 	movi	r7,150
 1001938:	10117e00 	call	10117e0 <alt_up_pixel_buffer_dma_draw_line>

	alt_up_pixel_buffer_dma_draw_line(pixel_buffer, 200, 100, 200, 150, 0xFFFF, 0);
 100193c:	00802584 	movi	r2,150
 1001940:	d8800015 	stw	r2,0(sp)
 1001944:	00bfffd4 	movui	r2,65535
 1001948:	d8800115 	stw	r2,4(sp)
 100194c:	d8000215 	stw	zero,8(sp)
 1001950:	e13fff17 	ldw	r4,-4(fp)
 1001954:	01403204 	movi	r5,200
 1001958:	01801904 	movi	r6,100
 100195c:	01c03204 	movi	r7,200
 1001960:	10117e00 	call	10117e0 <alt_up_pixel_buffer_dma_draw_line>
	alt_up_pixel_buffer_dma_draw_line(pixel_buffer, 250, 100, 250, 150, 0xFFFF, 0);
 1001964:	00802584 	movi	r2,150
 1001968:	d8800015 	stw	r2,0(sp)
 100196c:	00bfffd4 	movui	r2,65535
 1001970:	d8800115 	stw	r2,4(sp)
 1001974:	d8000215 	stw	zero,8(sp)
 1001978:	e13fff17 	ldw	r4,-4(fp)
 100197c:	01403e84 	movi	r5,250
 1001980:	01801904 	movi	r6,100
 1001984:	01c03e84 	movi	r7,250
 1001988:	10117e00 	call	10117e0 <alt_up_pixel_buffer_dma_draw_line>
	alt_up_pixel_buffer_dma_draw_line(pixel_buffer, 200, 200, 250, 200, 0xFFFF, 0);
 100198c:	00803204 	movi	r2,200
 1001990:	d8800015 	stw	r2,0(sp)
 1001994:	00bfffd4 	movui	r2,65535
 1001998:	d8800115 	stw	r2,4(sp)
 100199c:	d8000215 	stw	zero,8(sp)
 10019a0:	e13fff17 	ldw	r4,-4(fp)
 10019a4:	01403204 	movi	r5,200
 10019a8:	01803204 	movi	r6,200
 10019ac:	01c03e84 	movi	r7,250
 10019b0:	10117e00 	call	10117e0 <alt_up_pixel_buffer_dma_draw_line>


	// Initialize char buffer
	alt_up_char_buffer_dev * char_buffer;
	char_buffer = alt_up_char_buffer_open_dev("/dev/video_character_buffer_with_dma_0");
 10019b4:	01004134 	movhi	r4,260
 10019b8:	21182b04 	addi	r4,r4,24748
 10019bc:	101035c0 	call	101035c <alt_up_char_buffer_open_dev>
 10019c0:	e0bffe15 	stw	r2,-8(fp)
	alt_up_char_buffer_init(char_buffer); //initialize char buffer
 10019c4:	e13ffe17 	ldw	r4,-8(fp)
 10019c8:	10102d80 	call	10102d8 <alt_up_char_buffer_init>
	alt_up_char_buffer_string(char_buffer, "EECE 381", 40, 30);	// Write some text
 10019cc:	e13ffe17 	ldw	r4,-8(fp)
 10019d0:	01404134 	movhi	r5,260
 10019d4:	29583504 	addi	r5,r5,24788
 10019d8:	01800a04 	movi	r6,40
 10019dc:	01c00784 	movi	r7,30
 10019e0:	101046c0 	call	101046c <alt_up_char_buffer_string>

	//writes "EECE 381" downward scrolling across screen
	int x, y=0, z = 0;
 10019e4:	e03ffc15 	stw	zero,-16(fp)
 10019e8:	e03ffb15 	stw	zero,-20(fp)
	while(1){
		for(x=0; x <= 80; x++){
 10019ec:	e03ffd15 	stw	zero,-12(fp)
 10019f0:	00001706 	br	1001a50 <main_2+0x1e8>
			while(y <= 60){
				alt_up_char_buffer_string(char_buffer, "Today is September 23, 2014", x, y);
 10019f4:	e1bffd17 	ldw	r6,-12(fp)
 10019f8:	e1fffc17 	ldw	r7,-16(fp)
 10019fc:	e13ffe17 	ldw	r4,-8(fp)
 1001a00:	01404134 	movhi	r5,260
 1001a04:	29583804 	addi	r5,r5,24800
 1001a08:	101046c0 	call	101046c <alt_up_char_buffer_string>

				alt_up_char_buffer_clear(char_buffer); //clear char buffer
 1001a0c:	e13ffe17 	ldw	r4,-8(fp)
 1001a10:	10105800 	call	1010580 <alt_up_char_buffer_clear>
				alt_up_char_buffer_init(char_buffer); //initialize again
 1001a14:	e13ffe17 	ldw	r4,-8(fp)
 1001a18:	10102d80 	call	10102d8 <alt_up_char_buffer_init>
				y++;
 1001a1c:	e0bffc17 	ldw	r2,-16(fp)
 1001a20:	10800044 	addi	r2,r2,1
 1001a24:	e0bffc15 	stw	r2,-16(fp)

	//writes "EECE 381" downward scrolling across screen
	int x, y=0, z = 0;
	while(1){
		for(x=0; x <= 80; x++){
			while(y <= 60){
 1001a28:	e0bffc17 	ldw	r2,-16(fp)
 1001a2c:	10800f50 	cmplti	r2,r2,61
 1001a30:	103ff01e 	bne	r2,zero,10019f4 <main_2+0x18c>

				alt_up_char_buffer_clear(char_buffer); //clear char buffer
				alt_up_char_buffer_init(char_buffer); //initialize again
				y++;
			}
			y=0;
 1001a34:	e03ffc15 	stw	zero,-16(fp)
			x += 10;
 1001a38:	e0bffd17 	ldw	r2,-12(fp)
 1001a3c:	10800284 	addi	r2,r2,10
 1001a40:	e0bffd15 	stw	r2,-12(fp)
	alt_up_char_buffer_string(char_buffer, "EECE 381", 40, 30);	// Write some text

	//writes "EECE 381" downward scrolling across screen
	int x, y=0, z = 0;
	while(1){
		for(x=0; x <= 80; x++){
 1001a44:	e0bffd17 	ldw	r2,-12(fp)
 1001a48:	10800044 	addi	r2,r2,1
 1001a4c:	e0bffd15 	stw	r2,-12(fp)
 1001a50:	e0bffd17 	ldw	r2,-12(fp)
 1001a54:	10801450 	cmplti	r2,r2,81
 1001a58:	103ff31e 	bne	r2,zero,1001a28 <main_2+0x1c0>
				printf("from right corner\n");
				z=1;
			}
*/
		}
	}
 1001a5c:	003fe306 	br	10019ec <main_2+0x184>

01001a60 <main_ex5>:
#include "altera_up_avalon_video_pixel_buffer_dma.h"
#define drawer_base (volatile int *) 0x6000
#define HARDWARE_ACCEL 1
int main_ex5(void);
int main_ex5()
{
 1001a60:	defffc04 	addi	sp,sp,-16
 1001a64:	dfc00315 	stw	ra,12(sp)
 1001a68:	df000215 	stw	fp,8(sp)
 1001a6c:	df000204 	addi	fp,sp,8
	alt_up_pixel_buffer_dma_dev* pixel_buffer;
	pixel_buffer = alt_up_pixel_buffer_dma_open_dev("/dev/video_pixel_buffer_dma_0");
 1001a70:	01004134 	movhi	r4,260
 1001a74:	21183f04 	addi	r4,r4,24828
 1001a78:	10105dc0 	call	10105dc <alt_up_pixel_buffer_dma_open_dev>
 1001a7c:	e0bffe15 	stw	r2,-8(fp)
	if (pixel_buffer == 0) {
 1001a80:	e0bffe17 	ldw	r2,-8(fp)
 1001a84:	1004c03a 	cmpne	r2,r2,zero
 1001a88:	1000031e 	bne	r2,zero,1001a98 <main_ex5+0x38>
		printf("error initializing pixel buffer (check name in alt_up_pixel_buffer_dma_open_dev)\n");
 1001a8c:	01004134 	movhi	r4,260
 1001a90:	21184704 	addi	r4,r4,24860
 1001a94:	10069cc0 	call	10069cc <puts>
	}
	alt_up_pixel_buffer_dma_change_back_buffer_address(pixel_buffer, SRAM_0_BASE);
 1001a98:	e13ffe17 	ldw	r4,-8(fp)
 1001a9c:	01400234 	movhi	r5,8
 1001aa0:	10107c80 	call	10107c8 <alt_up_pixel_buffer_dma_change_back_buffer_address>
	alt_up_pixel_buffer_dma_swap_buffers(pixel_buffer);
 1001aa4:	e13ffe17 	ldw	r4,-8(fp)
 1001aa8:	10108200 	call	1010820 <alt_up_pixel_buffer_dma_swap_buffers>
	while (alt_up_pixel_buffer_dma_check_swap_buffers_status(pixel_buffer));
 1001aac:	e13ffe17 	ldw	r4,-8(fp)
 1001ab0:	10108780 	call	1010878 <alt_up_pixel_buffer_dma_check_swap_buffers_status>
 1001ab4:	1004c03a 	cmpne	r2,r2,zero
 1001ab8:	103ffc1e 	bne	r2,zero,1001aac <main_ex5+0x4c>
	alt_up_pixel_buffer_dma_clear_screen(pixel_buffer, 0);
 1001abc:	e13ffe17 	ldw	r4,-8(fp)
 1001ac0:	000b883a 	mov	r5,zero
 1001ac4:	10108ac0 	call	10108ac <alt_up_pixel_buffer_dma_clear_screen>
	srand(time(NULL));
 1001ac8:	0009883a 	mov	r4,zero
 1001acc:	1006b580 	call	1006b58 <time>
 1001ad0:	1009883a 	mov	r4,r2
 1001ad4:	10069e00 	call	10069e0 <srand>
	while(1){
		if (HARDWARE_ACCEL) {
			IOWR_32DIRECT(drawer_base,0,rand()%320); // Set x1
 1001ad8:	10069fc0 	call	10069fc <rand>
 1001adc:	1009883a 	mov	r4,r2
 1001ae0:	01405004 	movi	r5,320
 1001ae4:	10059ec0 	call	10059ec <__modsi3>
 1001ae8:	1007883a 	mov	r3,r2
 1001aec:	00980004 	movi	r2,24576
 1001af0:	10c00035 	stwio	r3,0(r2)
			IOWR_32DIRECT(drawer_base,4,rand()%240); // Set y1
 1001af4:	10069fc0 	call	10069fc <rand>
 1001af8:	1009883a 	mov	r4,r2
 1001afc:	01403c04 	movi	r5,240
 1001b00:	10059ec0 	call	10059ec <__modsi3>
 1001b04:	1007883a 	mov	r3,r2
 1001b08:	00980104 	movi	r2,24580
 1001b0c:	10c00035 	stwio	r3,0(r2)
			IOWR_32DIRECT(drawer_base,8,rand()%320); // Set x2
 1001b10:	10069fc0 	call	10069fc <rand>
 1001b14:	1009883a 	mov	r4,r2
 1001b18:	01405004 	movi	r5,320
 1001b1c:	10059ec0 	call	10059ec <__modsi3>
 1001b20:	1007883a 	mov	r3,r2
 1001b24:	00980204 	movi	r2,24584
 1001b28:	10c00035 	stwio	r3,0(r2)
			IOWR_32DIRECT(drawer_base,12,rand()%240); // Set y2
 1001b2c:	10069fc0 	call	10069fc <rand>
 1001b30:	1009883a 	mov	r4,r2
 1001b34:	01403c04 	movi	r5,240
 1001b38:	10059ec0 	call	10059ec <__modsi3>
 1001b3c:	1007883a 	mov	r3,r2
 1001b40:	00980304 	movi	r2,24588
 1001b44:	10c00035 	stwio	r3,0(r2)
			IOWR_32DIRECT(drawer_base,16,rand()%0x10000);  // Set colour
 1001b48:	10069fc0 	call	10069fc <rand>
 1001b4c:	1007883a 	mov	r3,r2
 1001b50:	00a00074 	movhi	r2,32769
 1001b54:	10bfffc4 	addi	r2,r2,-1
 1001b58:	1886703a 	and	r3,r3,r2
 1001b5c:	e0ffff15 	stw	r3,-4(fp)
 1001b60:	e0ffff17 	ldw	r3,-4(fp)
 1001b64:	1804403a 	cmpge	r2,r3,zero
 1001b68:	1000091e 	bne	r2,zero,1001b90 <main_ex5+0x130>
 1001b6c:	e0bfff17 	ldw	r2,-4(fp)
 1001b70:	10bfffc4 	addi	r2,r2,-1
 1001b74:	e0bfff15 	stw	r2,-4(fp)
 1001b78:	e0ffff17 	ldw	r3,-4(fp)
 1001b7c:	18fffff4 	orhi	r3,r3,65535
 1001b80:	e0ffff15 	stw	r3,-4(fp)
 1001b84:	e0bfff17 	ldw	r2,-4(fp)
 1001b88:	10800044 	addi	r2,r2,1
 1001b8c:	e0bfff15 	stw	r2,-4(fp)
 1001b90:	e0ffff17 	ldw	r3,-4(fp)
 1001b94:	00980404 	movi	r2,24592
 1001b98:	10c00035 	stwio	r3,0(r2)
			IOWR_32DIRECT(drawer_base,20,1);  // Start drawing
 1001b9c:	00d80504 	movi	r3,24596
 1001ba0:	00800044 	movi	r2,1
 1001ba4:	18800035 	stwio	r2,0(r3)
			while(IORD_32DIRECT(drawer_base,20)==0); // wait until done
 1001ba8:	00980504 	movi	r2,24596
 1001bac:	10800037 	ldwio	r2,0(r2)
 1001bb0:	1005003a 	cmpeq	r2,r2,zero
 1001bb4:	103ffc1e 	bne	r2,zero,1001ba8 <main_ex5+0x148>
		} else {
			   alt_up_pixel_buffer_dma_draw_box(pixel_buffer, rand()%320,rand()%3240,rand()%320,rand()%240,rand()%0x10000,0);
		}
	}
 1001bb8:	003fc706 	br	1001ad8 <main_ex5+0x78>

01001bbc <main_setup>:
//draws a box of input colour between x_1, y_2 and x_2, y_2 using the pixel_drawer
void draw_box(int x_1, int y_1, int x_2, int y_2, unsigned int colour);
//draws a ball [diamond] of input colour with radius 2px about centre point (x,y)
void draw_ball(int x, int y, unsigned int colour);
int main_setup(void);
int main_setup(void){
 1001bbc:	defff804 	addi	sp,sp,-32
 1001bc0:	dfc00715 	stw	ra,28(sp)
 1001bc4:	df000615 	stw	fp,24(sp)
 1001bc8:	df000604 	addi	fp,sp,24

	//setup pixel buffer
	alt_up_pixel_buffer_dma_dev* pixel_buffer;
	pixel_buffer = alt_up_pixel_buffer_dma_open_dev("/dev/video_pixel_buffer_dma_0");
 1001bcc:	01004134 	movhi	r4,260
 1001bd0:	21191d04 	addi	r4,r4,25716
 1001bd4:	10105dc0 	call	10105dc <alt_up_pixel_buffer_dma_open_dev>
 1001bd8:	e0bffb15 	stw	r2,-20(fp)
	if (pixel_buffer == 0) {
 1001bdc:	e0bffb17 	ldw	r2,-20(fp)
 1001be0:	1004c03a 	cmpne	r2,r2,zero
 1001be4:	1000031e 	bne	r2,zero,1001bf4 <main_setup+0x38>
		printf("error initializing pixel buffer (check name in alt_up_pixel_buffer_dma_open_dev)\n");
 1001be8:	01004134 	movhi	r4,260
 1001bec:	21192504 	addi	r4,r4,25748
 1001bf0:	10069cc0 	call	10069cc <puts>
	}
	alt_up_pixel_buffer_dma_change_back_buffer_address(pixel_buffer, SRAM_0_BASE);
 1001bf4:	e13ffb17 	ldw	r4,-20(fp)
 1001bf8:	01400234 	movhi	r5,8
 1001bfc:	10107c80 	call	10107c8 <alt_up_pixel_buffer_dma_change_back_buffer_address>
	alt_up_pixel_buffer_dma_swap_buffers(pixel_buffer);
 1001c00:	e13ffb17 	ldw	r4,-20(fp)
 1001c04:	10108200 	call	1010820 <alt_up_pixel_buffer_dma_swap_buffers>
	while (alt_up_pixel_buffer_dma_check_swap_buffers_status(pixel_buffer));
 1001c08:	e13ffb17 	ldw	r4,-20(fp)
 1001c0c:	10108780 	call	1010878 <alt_up_pixel_buffer_dma_check_swap_buffers_status>
 1001c10:	1004c03a 	cmpne	r2,r2,zero
 1001c14:	103ffc1e 	bne	r2,zero,1001c08 <main_setup+0x4c>
	alt_up_pixel_buffer_dma_clear_screen(pixel_buffer, 0);
 1001c18:	e13ffb17 	ldw	r4,-20(fp)
 1001c1c:	000b883a 	mov	r5,zero
 1001c20:	10108ac0 	call	10108ac <alt_up_pixel_buffer_dma_clear_screen>
	srand(time(NULL));
 1001c24:	0009883a 	mov	r4,zero
 1001c28:	1006b580 	call	1006b58 <time>
 1001c2c:	1009883a 	mov	r4,r2
 1001c30:	10069e00 	call	10069e0 <srand>

	//setup char buffer
	alt_up_char_buffer_dev * char_buffer;
	char_buffer = alt_up_char_buffer_open_dev("/dev/video_character_buffer_with_dma_0");
 1001c34:	01004134 	movhi	r4,260
 1001c38:	21193a04 	addi	r4,r4,25832
 1001c3c:	101035c0 	call	101035c <alt_up_char_buffer_open_dev>
 1001c40:	e0bffa15 	stw	r2,-24(fp)
	alt_up_char_buffer_init(char_buffer); //initialize char buffer
 1001c44:	e13ffa17 	ldw	r4,-24(fp)
 1001c48:	10102d80 	call	10102d8 <alt_up_char_buffer_init>
	alt_up_char_buffer_clear(char_buffer); //clear char buffer to erase previous angle text
 1001c4c:	e13ffa17 	ldw	r4,-24(fp)
 1001c50:	10105800 	call	1010580 <alt_up_char_buffer_clear>
//	alt_up_pixel_buffer_dma_draw_box(pixel_buffer, 2, 238, 20, 210,rand() % 0x10000, 0); //25x50 rectangle
//	//player2 rectangle
//	alt_up_pixel_buffer_dma_draw_box(pixel_buffer, 318, 238, 300, 210,rand() % 0x10000, 0); //25x50 rectangle

	Shape_coord last_line;
	last_line.x_1 = 0;
 1001c54:	e03ffc15 	stw	zero,-16(fp)
	last_line.x_2 = 0;
 1001c58:	e03ffd15 	stw	zero,-12(fp)
	last_line.y_1 = 0;
 1001c5c:	e03ffe15 	stw	zero,-8(fp)
	last_line.y_2 = 0;
 1001c60:	e03fff15 	stw	zero,-4(fp)

	//draw empty power bars
	draw_power_bar(1);
 1001c64:	01000044 	movi	r4,1
 1001c68:	1001fb80 	call	1001fb8 <draw_power_bar>
	draw_power_bar(2);
 1001c6c:	01000084 	movi	r4,2
 1001c70:	1001fb80 	call	1001fb8 <draw_power_bar>

	draw_ball(100, 100, 0xFF000);
 1001c74:	01001904 	movi	r4,100
 1001c78:	01401904 	movi	r5,100
 1001c7c:	01800434 	movhi	r6,16
 1001c80:	31bc0004 	addi	r6,r6,-4096
 1001c84:	10022d00 	call	10022d0 <draw_ball>
//			update_power(player, velocity);
//		}



	}
 1001c88:	003fff06 	br	1001c88 <main_setup+0xcc>

01001c8c <show_angle>:

	return 0;
}

void show_angle(int player, double angle, alt_up_pixel_buffer_dma_dev* pixel_buffer, Shape_coord *last_line, alt_up_char_buffer_dev * char_buffer){
 1001c8c:	deffec04 	addi	sp,sp,-80
 1001c90:	dfc01315 	stw	ra,76(sp)
 1001c94:	df001215 	stw	fp,72(sp)
 1001c98:	dcc01115 	stw	r19,68(sp)
 1001c9c:	dc801015 	stw	r18,64(sp)
 1001ca0:	dc400f15 	stw	r17,60(sp)
 1001ca4:	dc000e15 	stw	r16,56(sp)
 1001ca8:	df000e04 	addi	fp,sp,56
 1001cac:	e13ffc15 	stw	r4,-16(fp)
 1001cb0:	e17ffd15 	stw	r5,-12(fp)
 1001cb4:	e1bffe15 	stw	r6,-8(fp)
 1001cb8:	e1ffff15 	stw	r7,-4(fp)
	double theta = angle*M_PI/180;
 1001cbc:	e13ffd17 	ldw	r4,-12(fp)
 1001cc0:	e17ffe17 	ldw	r5,-8(fp)
 1001cc4:	01951134 	movhi	r6,21572
 1001cc8:	318b4604 	addi	r6,r6,11544
 1001ccc:	01d00274 	movhi	r7,16393
 1001cd0:	39c87ec4 	addi	r7,r7,8699
 1001cd4:	1004e7c0 	call	1004e7c <__muldf3>
 1001cd8:	1009883a 	mov	r4,r2
 1001cdc:	180b883a 	mov	r5,r3
 1001ce0:	2005883a 	mov	r2,r4
 1001ce4:	2807883a 	mov	r3,r5
 1001ce8:	1009883a 	mov	r4,r2
 1001cec:	180b883a 	mov	r5,r3
 1001cf0:	000d883a 	mov	r6,zero
 1001cf4:	01d019f4 	movhi	r7,16487
 1001cf8:	39e00004 	addi	r7,r7,-32768
 1001cfc:	10052400 	call	1005240 <__divdf3>
 1001d00:	1009883a 	mov	r4,r2
 1001d04:	180b883a 	mov	r5,r3
 1001d08:	e13ffa15 	stw	r4,-24(fp)
 1001d0c:	e17ffb15 	stw	r5,-20(fp)
	//TODO: convert input angle number into string...
	int x_1, x_2;
	int y_1 = 195;
 1001d10:	008030c4 	movi	r2,195
 1001d14:	e0bff715 	stw	r2,-36(fp)
	int y_2 = y_1-15*sin(theta);
 1001d18:	e13ff717 	ldw	r4,-36(fp)
 1001d1c:	10057400 	call	1005740 <__floatsidf>
 1001d20:	1021883a 	mov	r16,r2
 1001d24:	1823883a 	mov	r17,r3
 1001d28:	e13ffa17 	ldw	r4,-24(fp)
 1001d2c:	e17ffb17 	ldw	r5,-20(fp)
 1001d30:	10024dc0 	call	10024dc <sin>
 1001d34:	100b883a 	mov	r5,r2
 1001d38:	180d883a 	mov	r6,r3
 1001d3c:	2809883a 	mov	r4,r5
 1001d40:	300b883a 	mov	r5,r6
 1001d44:	000d883a 	mov	r6,zero
 1001d48:	01f00bb4 	movhi	r7,49198
 1001d4c:	1004e7c0 	call	1004e7c <__muldf3>
 1001d50:	1009883a 	mov	r4,r2
 1001d54:	180b883a 	mov	r5,r3
 1001d58:	2005883a 	mov	r2,r4
 1001d5c:	2807883a 	mov	r3,r5
 1001d60:	8009883a 	mov	r4,r16
 1001d64:	880b883a 	mov	r5,r17
 1001d68:	100d883a 	mov	r6,r2
 1001d6c:	180f883a 	mov	r7,r3
 1001d70:	1004e080 	call	1004e08 <__adddf3>
 1001d74:	1009883a 	mov	r4,r2
 1001d78:	180b883a 	mov	r5,r3
 1001d7c:	2005883a 	mov	r2,r4
 1001d80:	2807883a 	mov	r3,r5
 1001d84:	1009883a 	mov	r4,r2
 1001d88:	180b883a 	mov	r5,r3
 1001d8c:	10058380 	call	1005838 <__fixdfsi>
 1001d90:	e0bff615 	stw	r2,-40(fp)
	int line_length = 50;
 1001d94:	00800c84 	movi	r2,50
 1001d98:	e0bff515 	stw	r2,-44(fp)

	if(player == 1){
 1001d9c:	e0bffc17 	ldw	r2,-16(fp)
 1001da0:	10800058 	cmpnei	r2,r2,1
 1001da4:	1000261e 	bne	r2,zero,1001e40 <show_angle+0x1b4>
		x_1 = 40;
 1001da8:	00800a04 	movi	r2,40
 1001dac:	e0bff915 	stw	r2,-28(fp)
		x_2 = x_1 + line_length*cos(theta);
 1001db0:	e13ff917 	ldw	r4,-28(fp)
 1001db4:	10057400 	call	1005740 <__floatsidf>
 1001db8:	1025883a 	mov	r18,r2
 1001dbc:	1827883a 	mov	r19,r3
 1001dc0:	e13ff517 	ldw	r4,-44(fp)
 1001dc4:	10057400 	call	1005740 <__floatsidf>
 1001dc8:	1021883a 	mov	r16,r2
 1001dcc:	1823883a 	mov	r17,r3
 1001dd0:	e13ffa17 	ldw	r4,-24(fp)
 1001dd4:	e17ffb17 	ldw	r5,-20(fp)
 1001dd8:	10023740 	call	1002374 <cos>
 1001ddc:	100f883a 	mov	r7,r2
 1001de0:	1811883a 	mov	r8,r3
 1001de4:	8009883a 	mov	r4,r16
 1001de8:	880b883a 	mov	r5,r17
 1001dec:	380d883a 	mov	r6,r7
 1001df0:	400f883a 	mov	r7,r8
 1001df4:	1004e7c0 	call	1004e7c <__muldf3>
 1001df8:	1009883a 	mov	r4,r2
 1001dfc:	180b883a 	mov	r5,r3
 1001e00:	2005883a 	mov	r2,r4
 1001e04:	2807883a 	mov	r3,r5
 1001e08:	9009883a 	mov	r4,r18
 1001e0c:	980b883a 	mov	r5,r19
 1001e10:	100d883a 	mov	r6,r2
 1001e14:	180f883a 	mov	r7,r3
 1001e18:	1004e080 	call	1004e08 <__adddf3>
 1001e1c:	1009883a 	mov	r4,r2
 1001e20:	180b883a 	mov	r5,r3
 1001e24:	2005883a 	mov	r2,r4
 1001e28:	2807883a 	mov	r3,r5
 1001e2c:	1009883a 	mov	r4,r2
 1001e30:	180b883a 	mov	r5,r3
 1001e34:	10058380 	call	1005838 <__fixdfsi>
 1001e38:	e0bff815 	stw	r2,-32(fp)
 1001e3c:	00002506 	br	1001ed4 <show_angle+0x248>
		//alt_up_char_buffer_string(char_buffer, "ANGLE 1", 10, 53);	// Show degrees
	}
	else{
		x_1 = 320 - 40;
 1001e40:	00804604 	movi	r2,280
 1001e44:	e0bff915 	stw	r2,-28(fp)
		x_2 = x_1 - line_length*cos(theta);
 1001e48:	e13ff917 	ldw	r4,-28(fp)
 1001e4c:	10057400 	call	1005740 <__floatsidf>
 1001e50:	1025883a 	mov	r18,r2
 1001e54:	1827883a 	mov	r19,r3
 1001e58:	e13ff517 	ldw	r4,-44(fp)
 1001e5c:	10057400 	call	1005740 <__floatsidf>
 1001e60:	1021883a 	mov	r16,r2
 1001e64:	1823883a 	mov	r17,r3
 1001e68:	e13ffa17 	ldw	r4,-24(fp)
 1001e6c:	e17ffb17 	ldw	r5,-20(fp)
 1001e70:	10023740 	call	1002374 <cos>
 1001e74:	100f883a 	mov	r7,r2
 1001e78:	1811883a 	mov	r8,r3
 1001e7c:	8009883a 	mov	r4,r16
 1001e80:	880b883a 	mov	r5,r17
 1001e84:	380d883a 	mov	r6,r7
 1001e88:	400f883a 	mov	r7,r8
 1001e8c:	1004e7c0 	call	1004e7c <__muldf3>
 1001e90:	1009883a 	mov	r4,r2
 1001e94:	180b883a 	mov	r5,r3
 1001e98:	2005883a 	mov	r2,r4
 1001e9c:	2807883a 	mov	r3,r5
 1001ea0:	9009883a 	mov	r4,r18
 1001ea4:	980b883a 	mov	r5,r19
 1001ea8:	100d883a 	mov	r6,r2
 1001eac:	180f883a 	mov	r7,r3
 1001eb0:	1004d880 	call	1004d88 <__subdf3>
 1001eb4:	1009883a 	mov	r4,r2
 1001eb8:	180b883a 	mov	r5,r3
 1001ebc:	2005883a 	mov	r2,r4
 1001ec0:	2807883a 	mov	r3,r5
 1001ec4:	1009883a 	mov	r4,r2
 1001ec8:	180b883a 	mov	r5,r3
 1001ecc:	10058380 	call	1005838 <__fixdfsi>
 1001ed0:	e0bff815 	stw	r2,-32(fp)
		//alt_up_char_buffer_string(char_buffer, "ANGLE 2", 60, 53);	// Show degrees
	}

	alt_up_pixel_buffer_dma_draw_line(pixel_buffer, x_1, y_1, x_2, y_2, 0xFFFFF, 0); //draw line
 1001ed4:	e0bff617 	ldw	r2,-40(fp)
 1001ed8:	d8800015 	stw	r2,0(sp)
 1001edc:	00800434 	movhi	r2,16
 1001ee0:	10bfffc4 	addi	r2,r2,-1
 1001ee4:	d8800115 	stw	r2,4(sp)
 1001ee8:	d8000215 	stw	zero,8(sp)
 1001eec:	e13fff17 	ldw	r4,-4(fp)
 1001ef0:	e17ff917 	ldw	r5,-28(fp)
 1001ef4:	e1bff717 	ldw	r6,-36(fp)
 1001ef8:	e1fff817 	ldw	r7,-32(fp)
 1001efc:	10117e00 	call	10117e0 <alt_up_pixel_buffer_dma_draw_line>
	//store endpoints of line for later
	last_line->x_1 = x_1;
 1001f00:	e0c00617 	ldw	r3,24(fp)
 1001f04:	e0bff917 	ldw	r2,-28(fp)
 1001f08:	18800015 	stw	r2,0(r3)
	last_line->x_2 = x_2;
 1001f0c:	e0c00617 	ldw	r3,24(fp)
 1001f10:	e0bff817 	ldw	r2,-32(fp)
 1001f14:	18800115 	stw	r2,4(r3)
	last_line->y_1 = y_1;
 1001f18:	e0c00617 	ldw	r3,24(fp)
 1001f1c:	e0bff717 	ldw	r2,-36(fp)
 1001f20:	18800215 	stw	r2,8(r3)
	last_line->y_2 = y_2;
 1001f24:	e0c00617 	ldw	r3,24(fp)
 1001f28:	e0bff617 	ldw	r2,-40(fp)
 1001f2c:	18800315 	stw	r2,12(r3)

	return;
}
 1001f30:	e037883a 	mov	sp,fp
 1001f34:	dfc00517 	ldw	ra,20(sp)
 1001f38:	df000417 	ldw	fp,16(sp)
 1001f3c:	dcc00317 	ldw	r19,12(sp)
 1001f40:	dc800217 	ldw	r18,8(sp)
 1001f44:	dc400117 	ldw	r17,4(sp)
 1001f48:	dc000017 	ldw	r16,0(sp)
 1001f4c:	dec00604 	addi	sp,sp,24
 1001f50:	f800283a 	ret

01001f54 <clear_last_line>:

void clear_last_line(Shape_coord *last_line, alt_up_pixel_buffer_dma_dev* pixel_buffer){
 1001f54:	defff904 	addi	sp,sp,-28
 1001f58:	dfc00615 	stw	ra,24(sp)
 1001f5c:	df000515 	stw	fp,20(sp)
 1001f60:	df000504 	addi	fp,sp,20
 1001f64:	e13ffe15 	stw	r4,-8(fp)
 1001f68:	e17fff15 	stw	r5,-4(fp)
	alt_up_pixel_buffer_dma_draw_line(pixel_buffer, last_line->x_1, last_line->y_1, last_line->x_2, last_line->y_2, background_colour, 0);
 1001f6c:	e0bffe17 	ldw	r2,-8(fp)
 1001f70:	11400017 	ldw	r5,0(r2)
 1001f74:	e0bffe17 	ldw	r2,-8(fp)
 1001f78:	11800217 	ldw	r6,8(r2)
 1001f7c:	e0bffe17 	ldw	r2,-8(fp)
 1001f80:	11c00117 	ldw	r7,4(r2)
 1001f84:	e0bffe17 	ldw	r2,-8(fp)
 1001f88:	10c00317 	ldw	r3,12(r2)
 1001f8c:	d0a6ce17 	ldw	r2,-25800(gp)
 1001f90:	d8c00015 	stw	r3,0(sp)
 1001f94:	d8800115 	stw	r2,4(sp)
 1001f98:	d8000215 	stw	zero,8(sp)
 1001f9c:	e13fff17 	ldw	r4,-4(fp)
 1001fa0:	10117e00 	call	10117e0 <alt_up_pixel_buffer_dma_draw_line>
}
 1001fa4:	e037883a 	mov	sp,fp
 1001fa8:	dfc00117 	ldw	ra,4(sp)
 1001fac:	df000017 	ldw	fp,0(sp)
 1001fb0:	dec00204 	addi	sp,sp,8
 1001fb4:	f800283a 	ret

01001fb8 <draw_power_bar>:

void draw_power_bar(int player){
 1001fb8:	defff804 	addi	sp,sp,-32
 1001fbc:	dfc00715 	stw	ra,28(sp)
 1001fc0:	df000615 	stw	fp,24(sp)
 1001fc4:	df000604 	addi	fp,sp,24
 1001fc8:	e13fff15 	stw	r4,-4(fp)
	int x_1, y_1, bar_width, bar_height;
	x_1 = 30; y_1 = 230; bar_width = 52; bar_height=5;
 1001fcc:	00800784 	movi	r2,30
 1001fd0:	e0bffe15 	stw	r2,-8(fp)
 1001fd4:	00803984 	movi	r2,230
 1001fd8:	e0bffd15 	stw	r2,-12(fp)
 1001fdc:	00800d04 	movi	r2,52
 1001fe0:	e0bffc15 	stw	r2,-16(fp)
 1001fe4:	00800144 	movi	r2,5
 1001fe8:	e0bffb15 	stw	r2,-20(fp)
	if(player == 1){
 1001fec:	e0bfff17 	ldw	r2,-4(fp)
 1001ff0:	10800058 	cmpnei	r2,r2,1
 1001ff4:	10001b1e 	bne	r2,zero,1002064 <draw_power_bar+0xac>
		draw_box(x_1, y_1, x_1+bar_width, y_1+bar_height, 0xFFFFF);
 1001ff8:	e0fffe17 	ldw	r3,-8(fp)
 1001ffc:	e0bffc17 	ldw	r2,-16(fp)
 1002000:	188d883a 	add	r6,r3,r2
 1002004:	e0fffd17 	ldw	r3,-12(fp)
 1002008:	e0bffb17 	ldw	r2,-20(fp)
 100200c:	188f883a 	add	r7,r3,r2
 1002010:	00800434 	movhi	r2,16
 1002014:	10bfffc4 	addi	r2,r2,-1
 1002018:	d8800015 	stw	r2,0(sp)
 100201c:	e13ffe17 	ldw	r4,-8(fp)
 1002020:	e17ffd17 	ldw	r5,-12(fp)
 1002024:	100224c0 	call	100224c <draw_box>
		draw_box(x_1+1, y_1+1, x_1+bar_width-1, y_1+bar_height-1, 0x00000);
 1002028:	e0bffe17 	ldw	r2,-8(fp)
 100202c:	11000044 	addi	r4,r2,1
 1002030:	e0bffd17 	ldw	r2,-12(fp)
 1002034:	11400044 	addi	r5,r2,1
 1002038:	e0fffe17 	ldw	r3,-8(fp)
 100203c:	e0bffc17 	ldw	r2,-16(fp)
 1002040:	1885883a 	add	r2,r3,r2
 1002044:	11bfffc4 	addi	r6,r2,-1
 1002048:	e0fffd17 	ldw	r3,-12(fp)
 100204c:	e0bffb17 	ldw	r2,-20(fp)
 1002050:	1885883a 	add	r2,r3,r2
 1002054:	11ffffc4 	addi	r7,r2,-1
 1002058:	d8000015 	stw	zero,0(sp)
 100205c:	100224c0 	call	100224c <draw_box>
 1002060:	00002006 	br	10020e4 <draw_power_bar+0x12c>
	}
	else{//player2 power bar
		draw_box(320-x_1, y_1, 320-(x_1+bar_width), y_1+bar_height, 0xFFFFF);
 1002064:	00c05004 	movi	r3,320
 1002068:	e0bffe17 	ldw	r2,-8(fp)
 100206c:	1889c83a 	sub	r4,r3,r2
 1002070:	e0fffe17 	ldw	r3,-8(fp)
 1002074:	e0bffc17 	ldw	r2,-16(fp)
 1002078:	1887883a 	add	r3,r3,r2
 100207c:	00805004 	movi	r2,320
 1002080:	10cdc83a 	sub	r6,r2,r3
 1002084:	e0fffd17 	ldw	r3,-12(fp)
 1002088:	e0bffb17 	ldw	r2,-20(fp)
 100208c:	188f883a 	add	r7,r3,r2
 1002090:	00800434 	movhi	r2,16
 1002094:	10bfffc4 	addi	r2,r2,-1
 1002098:	d8800015 	stw	r2,0(sp)
 100209c:	e17ffd17 	ldw	r5,-12(fp)
 10020a0:	100224c0 	call	100224c <draw_box>
		draw_box(320-(x_1+1), y_1+1, 320-(x_1+bar_width-1), y_1+bar_height-1, 0x00000);
 10020a4:	00c04fc4 	movi	r3,319
 10020a8:	e0bffe17 	ldw	r2,-8(fp)
 10020ac:	1889c83a 	sub	r4,r3,r2
 10020b0:	e0bffd17 	ldw	r2,-12(fp)
 10020b4:	11400044 	addi	r5,r2,1
 10020b8:	e0fffe17 	ldw	r3,-8(fp)
 10020bc:	e0bffc17 	ldw	r2,-16(fp)
 10020c0:	1887883a 	add	r3,r3,r2
 10020c4:	00805044 	movi	r2,321
 10020c8:	10cdc83a 	sub	r6,r2,r3
 10020cc:	e0fffd17 	ldw	r3,-12(fp)
 10020d0:	e0bffb17 	ldw	r2,-20(fp)
 10020d4:	1885883a 	add	r2,r3,r2
 10020d8:	11ffffc4 	addi	r7,r2,-1
 10020dc:	d8000015 	stw	zero,0(sp)
 10020e0:	100224c0 	call	100224c <draw_box>
	}

}
 10020e4:	e037883a 	mov	sp,fp
 10020e8:	dfc00117 	ldw	ra,4(sp)
 10020ec:	df000017 	ldw	fp,0(sp)
 10020f0:	dec00204 	addi	sp,sp,8
 10020f4:	f800283a 	ret

010020f8 <update_power>:

//assumes velocity range is from 0-100
void update_power(int player, double velocity){
 10020f8:	defffa04 	addi	sp,sp,-24
 10020fc:	dfc00515 	stw	ra,20(sp)
 1002100:	df000415 	stw	fp,16(sp)
 1002104:	df000404 	addi	fp,sp,16
 1002108:	e13ffd15 	stw	r4,-12(fp)
 100210c:	e17ffe15 	stw	r5,-8(fp)
 1002110:	e1bfff15 	stw	r6,-4(fp)
	draw_power_bar(player); //clear previous level
 1002114:	e13ffd17 	ldw	r4,-12(fp)
 1002118:	1001fb80 	call	1001fb8 <draw_power_bar>
	if(player==1){
 100211c:	e0bffd17 	ldw	r2,-12(fp)
 1002120:	10800058 	cmpnei	r2,r2,1
 1002124:	10001e1e 	bne	r2,zero,10021a0 <update_power+0xa8>
		draw_box(31, 231, 31+(velocity/2), 234, 0xFF000);
 1002128:	e13ffe17 	ldw	r4,-8(fp)
 100212c:	e17fff17 	ldw	r5,-4(fp)
 1002130:	000d883a 	mov	r6,zero
 1002134:	01d00034 	movhi	r7,16384
 1002138:	10052400 	call	1005240 <__divdf3>
 100213c:	1009883a 	mov	r4,r2
 1002140:	180b883a 	mov	r5,r3
 1002144:	2005883a 	mov	r2,r4
 1002148:	2807883a 	mov	r3,r5
 100214c:	1009883a 	mov	r4,r2
 1002150:	180b883a 	mov	r5,r3
 1002154:	000d883a 	mov	r6,zero
 1002158:	01d00ff4 	movhi	r7,16447
 100215c:	1004e080 	call	1004e08 <__adddf3>
 1002160:	1009883a 	mov	r4,r2
 1002164:	180b883a 	mov	r5,r3
 1002168:	2005883a 	mov	r2,r4
 100216c:	2807883a 	mov	r3,r5
 1002170:	1009883a 	mov	r4,r2
 1002174:	180b883a 	mov	r5,r3
 1002178:	10058380 	call	1005838 <__fixdfsi>
 100217c:	100d883a 	mov	r6,r2
 1002180:	00800434 	movhi	r2,16
 1002184:	10bc0004 	addi	r2,r2,-4096
 1002188:	d8800015 	stw	r2,0(sp)
 100218c:	010007c4 	movi	r4,31
 1002190:	014039c4 	movi	r5,231
 1002194:	01c03a84 	movi	r7,234
 1002198:	100224c0 	call	100224c <draw_box>
 100219c:	00002606 	br	1002238 <update_power+0x140>
	}
	else{
		draw_box(320-31, 231, 320-(31+(velocity/2)), 234, 0xFF000);
 10021a0:	e13ffe17 	ldw	r4,-8(fp)
 10021a4:	e17fff17 	ldw	r5,-4(fp)
 10021a8:	000d883a 	mov	r6,zero
 10021ac:	01d00034 	movhi	r7,16384
 10021b0:	10052400 	call	1005240 <__divdf3>
 10021b4:	1009883a 	mov	r4,r2
 10021b8:	180b883a 	mov	r5,r3
 10021bc:	2005883a 	mov	r2,r4
 10021c0:	2807883a 	mov	r3,r5
 10021c4:	1009883a 	mov	r4,r2
 10021c8:	180b883a 	mov	r5,r3
 10021cc:	000d883a 	mov	r6,zero
 10021d0:	01d00ff4 	movhi	r7,16447
 10021d4:	1004e080 	call	1004e08 <__adddf3>
 10021d8:	1009883a 	mov	r4,r2
 10021dc:	180b883a 	mov	r5,r3
 10021e0:	2005883a 	mov	r2,r4
 10021e4:	2807883a 	mov	r3,r5
 10021e8:	0009883a 	mov	r4,zero
 10021ec:	01501d34 	movhi	r5,16500
 10021f0:	100d883a 	mov	r6,r2
 10021f4:	180f883a 	mov	r7,r3
 10021f8:	1004d880 	call	1004d88 <__subdf3>
 10021fc:	1009883a 	mov	r4,r2
 1002200:	180b883a 	mov	r5,r3
 1002204:	2005883a 	mov	r2,r4
 1002208:	2807883a 	mov	r3,r5
 100220c:	1009883a 	mov	r4,r2
 1002210:	180b883a 	mov	r5,r3
 1002214:	10058380 	call	1005838 <__fixdfsi>
 1002218:	100d883a 	mov	r6,r2
 100221c:	00800434 	movhi	r2,16
 1002220:	10bc0004 	addi	r2,r2,-4096
 1002224:	d8800015 	stw	r2,0(sp)
 1002228:	01004844 	movi	r4,289
 100222c:	014039c4 	movi	r5,231
 1002230:	01c03a84 	movi	r7,234
 1002234:	100224c0 	call	100224c <draw_box>
	}
	return;
}
 1002238:	e037883a 	mov	sp,fp
 100223c:	dfc00117 	ldw	ra,4(sp)
 1002240:	df000017 	ldw	fp,0(sp)
 1002244:	dec00204 	addi	sp,sp,8
 1002248:	f800283a 	ret

0100224c <draw_box>:

void draw_box(int x_1, int y_1, int x_2, int y_2, unsigned int colour){
 100224c:	defffb04 	addi	sp,sp,-20
 1002250:	df000415 	stw	fp,16(sp)
 1002254:	df000404 	addi	fp,sp,16
 1002258:	e13ffc15 	stw	r4,-16(fp)
 100225c:	e17ffd15 	stw	r5,-12(fp)
 1002260:	e1bffe15 	stw	r6,-8(fp)
 1002264:	e1ffff15 	stw	r7,-4(fp)
	IOWR_32DIRECT(drawer_base,0,x_1);
 1002268:	00d80004 	movi	r3,24576
 100226c:	e0bffc17 	ldw	r2,-16(fp)
 1002270:	18800035 	stwio	r2,0(r3)
	IOWR_32DIRECT(drawer_base,4,y_1);
 1002274:	00d80104 	movi	r3,24580
 1002278:	e0bffd17 	ldw	r2,-12(fp)
 100227c:	18800035 	stwio	r2,0(r3)
	IOWR_32DIRECT(drawer_base,8,x_2);
 1002280:	00d80204 	movi	r3,24584
 1002284:	e0bffe17 	ldw	r2,-8(fp)
 1002288:	18800035 	stwio	r2,0(r3)
	IOWR_32DIRECT(drawer_base,12,y_2);
 100228c:	00d80304 	movi	r3,24588
 1002290:	e0bfff17 	ldw	r2,-4(fp)
 1002294:	18800035 	stwio	r2,0(r3)
	IOWR_32DIRECT(drawer_base,16,colour);
 1002298:	e0c00117 	ldw	r3,4(fp)
 100229c:	00980404 	movi	r2,24592
 10022a0:	10c00035 	stwio	r3,0(r2)
	IOWR_32DIRECT(drawer_base,20,1);
 10022a4:	00d80504 	movi	r3,24596
 10022a8:	00800044 	movi	r2,1
 10022ac:	18800035 	stwio	r2,0(r3)
	while(IORD_32DIRECT(drawer_base,20)==0);
 10022b0:	00980504 	movi	r2,24596
 10022b4:	10800037 	ldwio	r2,0(r2)
 10022b8:	1005003a 	cmpeq	r2,r2,zero
 10022bc:	103ffc1e 	bne	r2,zero,10022b0 <draw_box+0x64>
}
 10022c0:	e037883a 	mov	sp,fp
 10022c4:	df000017 	ldw	fp,0(sp)
 10022c8:	dec00104 	addi	sp,sp,4
 10022cc:	f800283a 	ret

010022d0 <draw_ball>:

void draw_ball(int x, int y, unsigned int colour){
 10022d0:	defffa04 	addi	sp,sp,-24
 10022d4:	dfc00515 	stw	ra,20(sp)
 10022d8:	df000415 	stw	fp,16(sp)
 10022dc:	df000404 	addi	fp,sp,16
 10022e0:	e13ffd15 	stw	r4,-12(fp)
 10022e4:	e17ffe15 	stw	r5,-8(fp)
 10022e8:	e1bfff15 	stw	r6,-4(fp)
	draw_box(x-2, y, x+2, y, colour);
 10022ec:	e0bffd17 	ldw	r2,-12(fp)
 10022f0:	113fff84 	addi	r4,r2,-2
 10022f4:	e0bffd17 	ldw	r2,-12(fp)
 10022f8:	11800084 	addi	r6,r2,2
 10022fc:	e0bfff17 	ldw	r2,-4(fp)
 1002300:	d8800015 	stw	r2,0(sp)
 1002304:	e17ffe17 	ldw	r5,-8(fp)
 1002308:	e1fffe17 	ldw	r7,-8(fp)
 100230c:	100224c0 	call	100224c <draw_box>
	draw_box(x, y-2, x, y+2, colour);
 1002310:	e0bffe17 	ldw	r2,-8(fp)
 1002314:	117fff84 	addi	r5,r2,-2
 1002318:	e0bffe17 	ldw	r2,-8(fp)
 100231c:	11c00084 	addi	r7,r2,2
 1002320:	e0bfff17 	ldw	r2,-4(fp)
 1002324:	d8800015 	stw	r2,0(sp)
 1002328:	e13ffd17 	ldw	r4,-12(fp)
 100232c:	e1bffd17 	ldw	r6,-12(fp)
 1002330:	100224c0 	call	100224c <draw_box>
	draw_box(x-1, y-1, x+1, y+1, colour);
 1002334:	e0bffd17 	ldw	r2,-12(fp)
 1002338:	113fffc4 	addi	r4,r2,-1
 100233c:	e0bffe17 	ldw	r2,-8(fp)
 1002340:	117fffc4 	addi	r5,r2,-1
 1002344:	e0bffd17 	ldw	r2,-12(fp)
 1002348:	11800044 	addi	r6,r2,1
 100234c:	e0bffe17 	ldw	r2,-8(fp)
 1002350:	11c00044 	addi	r7,r2,1
 1002354:	e0bfff17 	ldw	r2,-4(fp)
 1002358:	d8800015 	stw	r2,0(sp)
 100235c:	100224c0 	call	100224c <draw_box>
}
 1002360:	e037883a 	mov	sp,fp
 1002364:	dfc00117 	ldw	ra,4(sp)
 1002368:	df000017 	ldw	fp,0(sp)
 100236c:	dec00204 	addi	sp,sp,8
 1002370:	f800283a 	ret

01002374 <cos>:
 1002374:	00a00034 	movhi	r2,32768
 1002378:	10bfffc4 	addi	r2,r2,-1
 100237c:	defffa04 	addi	sp,sp,-24
 1002380:	114c703a 	and	r6,r2,r5
 1002384:	008ffa74 	movhi	r2,16361
 1002388:	10887ec4 	addi	r2,r2,8699
 100238c:	dfc00515 	stw	ra,20(sp)
 1002390:	2011883a 	mov	r8,r4
 1002394:	1180210e 	bge	r2,r6,100241c <cos+0xa8>
 1002398:	009ffc34 	movhi	r2,32752
 100239c:	10bfffc4 	addi	r2,r2,-1
 10023a0:	11800a0e 	bge	r2,r6,10023cc <cos+0x58>
 10023a4:	280f883a 	mov	r7,r5
 10023a8:	400d883a 	mov	r6,r8
 10023ac:	1004d880 	call	1004d88 <__subdf3>
 10023b0:	100d883a 	mov	r6,r2
 10023b4:	180f883a 	mov	r7,r3
 10023b8:	3005883a 	mov	r2,r6
 10023bc:	3807883a 	mov	r3,r7
 10023c0:	dfc00517 	ldw	ra,20(sp)
 10023c4:	dec00604 	addi	sp,sp,24
 10023c8:	f800283a 	ret
 10023cc:	d9800104 	addi	r6,sp,4
 10023d0:	10026480 	call	1002648 <__ieee754_rem_pio2>
 10023d4:	10c000cc 	andi	r3,r2,3
 10023d8:	01000044 	movi	r4,1
 10023dc:	19001926 	beq	r3,r4,1002444 <cos+0xd0>
 10023e0:	00800084 	movi	r2,2
 10023e4:	18803126 	beq	r3,r2,10024ac <cos+0x138>
 10023e8:	1800231e 	bne	r3,zero,1002478 <cos+0x104>
 10023ec:	d8800117 	ldw	r2,4(sp)
 10023f0:	da000317 	ldw	r8,12(sp)
 10023f4:	d8c00217 	ldw	r3,8(sp)
 10023f8:	da400417 	ldw	r9,16(sp)
 10023fc:	400d883a 	mov	r6,r8
 1002400:	180b883a 	mov	r5,r3
 1002404:	480f883a 	mov	r7,r9
 1002408:	1009883a 	mov	r4,r2
 100240c:	1002e700 	call	1002e70 <__kernel_cos>
 1002410:	100d883a 	mov	r6,r2
 1002414:	180f883a 	mov	r7,r3
 1002418:	003fe706 	br	10023b8 <cos+0x44>
 100241c:	000d883a 	mov	r6,zero
 1002420:	000f883a 	mov	r7,zero
 1002424:	1002e700 	call	1002e70 <__kernel_cos>
 1002428:	100d883a 	mov	r6,r2
 100242c:	180f883a 	mov	r7,r3
 1002430:	3005883a 	mov	r2,r6
 1002434:	3807883a 	mov	r3,r7
 1002438:	dfc00517 	ldw	ra,20(sp)
 100243c:	dec00604 	addi	sp,sp,24
 1002440:	f800283a 	ret
 1002444:	d8800117 	ldw	r2,4(sp)
 1002448:	da000317 	ldw	r8,12(sp)
 100244c:	d8c00217 	ldw	r3,8(sp)
 1002450:	da400417 	ldw	r9,16(sp)
 1002454:	d9000015 	stw	r4,0(sp)
 1002458:	400d883a 	mov	r6,r8
 100245c:	480f883a 	mov	r7,r9
 1002460:	180b883a 	mov	r5,r3
 1002464:	1009883a 	mov	r4,r2
 1002468:	10042200 	call	1004220 <__kernel_sin>
 100246c:	100d883a 	mov	r6,r2
 1002470:	19e0003c 	xorhi	r7,r3,32768
 1002474:	003fd006 	br	10023b8 <cos+0x44>
 1002478:	d8800117 	ldw	r2,4(sp)
 100247c:	da000317 	ldw	r8,12(sp)
 1002480:	d8c00217 	ldw	r3,8(sp)
 1002484:	da400417 	ldw	r9,16(sp)
 1002488:	d9000015 	stw	r4,0(sp)
 100248c:	400d883a 	mov	r6,r8
 1002490:	480f883a 	mov	r7,r9
 1002494:	180b883a 	mov	r5,r3
 1002498:	1009883a 	mov	r4,r2
 100249c:	10042200 	call	1004220 <__kernel_sin>
 10024a0:	100d883a 	mov	r6,r2
 10024a4:	180f883a 	mov	r7,r3
 10024a8:	003fc306 	br	10023b8 <cos+0x44>
 10024ac:	d8800117 	ldw	r2,4(sp)
 10024b0:	da000317 	ldw	r8,12(sp)
 10024b4:	d8c00217 	ldw	r3,8(sp)
 10024b8:	da400417 	ldw	r9,16(sp)
 10024bc:	400d883a 	mov	r6,r8
 10024c0:	180b883a 	mov	r5,r3
 10024c4:	480f883a 	mov	r7,r9
 10024c8:	1009883a 	mov	r4,r2
 10024cc:	1002e700 	call	1002e70 <__kernel_cos>
 10024d0:	100d883a 	mov	r6,r2
 10024d4:	19e0003c 	xorhi	r7,r3,32768
 10024d8:	003fb706 	br	10023b8 <cos+0x44>

010024dc <sin>:
 10024dc:	00a00034 	movhi	r2,32768
 10024e0:	10bfffc4 	addi	r2,r2,-1
 10024e4:	defffa04 	addi	sp,sp,-24
 10024e8:	114c703a 	and	r6,r2,r5
 10024ec:	008ffa74 	movhi	r2,16361
 10024f0:	10887ec4 	addi	r2,r2,8699
 10024f4:	dfc00515 	stw	ra,20(sp)
 10024f8:	2011883a 	mov	r8,r4
 10024fc:	1180220e 	bge	r2,r6,1002588 <sin+0xac>
 1002500:	009ffc34 	movhi	r2,32752
 1002504:	10bfffc4 	addi	r2,r2,-1
 1002508:	11800a0e 	bge	r2,r6,1002534 <sin+0x58>
 100250c:	280f883a 	mov	r7,r5
 1002510:	400d883a 	mov	r6,r8
 1002514:	1004d880 	call	1004d88 <__subdf3>
 1002518:	100d883a 	mov	r6,r2
 100251c:	180f883a 	mov	r7,r3
 1002520:	3005883a 	mov	r2,r6
 1002524:	3807883a 	mov	r3,r7
 1002528:	dfc00517 	ldw	ra,20(sp)
 100252c:	dec00604 	addi	sp,sp,24
 1002530:	f800283a 	ret
 1002534:	d9800104 	addi	r6,sp,4
 1002538:	10026480 	call	1002648 <__ieee754_rem_pio2>
 100253c:	10c000cc 	andi	r3,r2,3
 1002540:	01000044 	movi	r4,1
 1002544:	19001b26 	beq	r3,r4,10025b4 <sin+0xd8>
 1002548:	00800084 	movi	r2,2
 100254c:	18803126 	beq	r3,r2,1002614 <sin+0x138>
 1002550:	1800241e 	bne	r3,zero,10025e4 <sin+0x108>
 1002554:	d8800117 	ldw	r2,4(sp)
 1002558:	da000317 	ldw	r8,12(sp)
 100255c:	d8c00217 	ldw	r3,8(sp)
 1002560:	da400417 	ldw	r9,16(sp)
 1002564:	d9000015 	stw	r4,0(sp)
 1002568:	400d883a 	mov	r6,r8
 100256c:	480f883a 	mov	r7,r9
 1002570:	180b883a 	mov	r5,r3
 1002574:	1009883a 	mov	r4,r2
 1002578:	10042200 	call	1004220 <__kernel_sin>
 100257c:	100d883a 	mov	r6,r2
 1002580:	180f883a 	mov	r7,r3
 1002584:	003fe606 	br	1002520 <sin+0x44>
 1002588:	000d883a 	mov	r6,zero
 100258c:	000f883a 	mov	r7,zero
 1002590:	d8000015 	stw	zero,0(sp)
 1002594:	10042200 	call	1004220 <__kernel_sin>
 1002598:	100d883a 	mov	r6,r2
 100259c:	180f883a 	mov	r7,r3
 10025a0:	3005883a 	mov	r2,r6
 10025a4:	3807883a 	mov	r3,r7
 10025a8:	dfc00517 	ldw	ra,20(sp)
 10025ac:	dec00604 	addi	sp,sp,24
 10025b0:	f800283a 	ret
 10025b4:	d8800117 	ldw	r2,4(sp)
 10025b8:	da000317 	ldw	r8,12(sp)
 10025bc:	d8c00217 	ldw	r3,8(sp)
 10025c0:	da400417 	ldw	r9,16(sp)
 10025c4:	400d883a 	mov	r6,r8
 10025c8:	180b883a 	mov	r5,r3
 10025cc:	480f883a 	mov	r7,r9
 10025d0:	1009883a 	mov	r4,r2
 10025d4:	1002e700 	call	1002e70 <__kernel_cos>
 10025d8:	100d883a 	mov	r6,r2
 10025dc:	180f883a 	mov	r7,r3
 10025e0:	003fcf06 	br	1002520 <sin+0x44>
 10025e4:	d8800117 	ldw	r2,4(sp)
 10025e8:	da000317 	ldw	r8,12(sp)
 10025ec:	d8c00217 	ldw	r3,8(sp)
 10025f0:	da400417 	ldw	r9,16(sp)
 10025f4:	400d883a 	mov	r6,r8
 10025f8:	180b883a 	mov	r5,r3
 10025fc:	480f883a 	mov	r7,r9
 1002600:	1009883a 	mov	r4,r2
 1002604:	1002e700 	call	1002e70 <__kernel_cos>
 1002608:	100d883a 	mov	r6,r2
 100260c:	19e0003c 	xorhi	r7,r3,32768
 1002610:	003fc306 	br	1002520 <sin+0x44>
 1002614:	d8800117 	ldw	r2,4(sp)
 1002618:	da000317 	ldw	r8,12(sp)
 100261c:	d8c00217 	ldw	r3,8(sp)
 1002620:	da400417 	ldw	r9,16(sp)
 1002624:	d9000015 	stw	r4,0(sp)
 1002628:	400d883a 	mov	r6,r8
 100262c:	480f883a 	mov	r7,r9
 1002630:	180b883a 	mov	r5,r3
 1002634:	1009883a 	mov	r4,r2
 1002638:	10042200 	call	1004220 <__kernel_sin>
 100263c:	100d883a 	mov	r6,r2
 1002640:	19e0003c 	xorhi	r7,r3,32768
 1002644:	003fb606 	br	1002520 <sin+0x44>

01002648 <__ieee754_rem_pio2>:
 1002648:	deffe304 	addi	sp,sp,-116
 100264c:	00a00034 	movhi	r2,32768
 1002650:	10bfffc4 	addi	r2,r2,-1
 1002654:	dd801915 	stw	r22,100(sp)
 1002658:	28ac703a 	and	r22,r5,r2
 100265c:	008ffa74 	movhi	r2,16361
 1002660:	10887ec4 	addi	r2,r2,8699
 1002664:	df001b15 	stw	fp,108(sp)
 1002668:	dfc01c15 	stw	ra,112(sp)
 100266c:	ddc01a15 	stw	r23,104(sp)
 1002670:	dd401815 	stw	r21,96(sp)
 1002674:	dd001715 	stw	r20,92(sp)
 1002678:	dcc01615 	stw	r19,88(sp)
 100267c:	dc801515 	stw	r18,84(sp)
 1002680:	dc401415 	stw	r17,80(sp)
 1002684:	dc001315 	stw	r16,76(sp)
 1002688:	2013883a 	mov	r9,r4
 100268c:	d9400a15 	stw	r5,40(sp)
 1002690:	3039883a 	mov	fp,r6
 1002694:	15801216 	blt	r2,r22,10026e0 <__ieee754_rem_pio2+0x98>
 1002698:	e1400115 	stw	r5,4(fp)
 100269c:	30000315 	stw	zero,12(r6)
 10026a0:	e1000015 	stw	r4,0(fp)
 10026a4:	d8000b15 	stw	zero,44(sp)
 10026a8:	30000215 	stw	zero,8(r6)
 10026ac:	d8800b17 	ldw	r2,44(sp)
 10026b0:	dfc01c17 	ldw	ra,112(sp)
 10026b4:	df001b17 	ldw	fp,108(sp)
 10026b8:	ddc01a17 	ldw	r23,104(sp)
 10026bc:	dd801917 	ldw	r22,100(sp)
 10026c0:	dd401817 	ldw	r21,96(sp)
 10026c4:	dd001717 	ldw	r20,92(sp)
 10026c8:	dcc01617 	ldw	r19,88(sp)
 10026cc:	dc801517 	ldw	r18,84(sp)
 10026d0:	dc401417 	ldw	r17,80(sp)
 10026d4:	dc001317 	ldw	r16,76(sp)
 10026d8:	dec01d04 	addi	sp,sp,116
 10026dc:	f800283a 	ret
 10026e0:	009000f4 	movhi	r2,16387
 10026e4:	10b65ec4 	addi	r2,r2,-9861
 10026e8:	15800f0e 	bge	r2,r22,1002728 <__ieee754_rem_pio2+0xe0>
 10026ec:	00904e74 	movhi	r2,16697
 10026f0:	10887ec4 	addi	r2,r2,8699
 10026f4:	1580330e 	bge	r2,r22,10027c4 <__ieee754_rem_pio2+0x17c>
 10026f8:	009ffc34 	movhi	r2,32752
 10026fc:	10bfffc4 	addi	r2,r2,-1
 1002700:	1580fe0e 	bge	r2,r22,1002afc <__ieee754_rem_pio2+0x4b4>
 1002704:	280f883a 	mov	r7,r5
 1002708:	480d883a 	mov	r6,r9
 100270c:	1004d880 	call	1004d88 <__subdf3>
 1002710:	e0c00115 	stw	r3,4(fp)
 1002714:	d8000b15 	stw	zero,44(sp)
 1002718:	e0800015 	stw	r2,0(fp)
 100271c:	e0800215 	stw	r2,8(fp)
 1002720:	e0c00315 	stw	r3,12(fp)
 1002724:	003fe106 	br	10026ac <__ieee754_rem_pio2+0x64>
 1002728:	d9000a17 	ldw	r4,40(sp)
 100272c:	0100ce0e 	bge	zero,r4,1002a68 <__ieee754_rem_pio2+0x420>
 1002730:	04151034 	movhi	r16,21568
 1002734:	044ffe74 	movhi	r17,16377
 1002738:	8c487ec4 	addi	r17,r17,8699
 100273c:	4809883a 	mov	r4,r9
 1002740:	800d883a 	mov	r6,r16
 1002744:	880f883a 	mov	r7,r17
 1002748:	1004d880 	call	1004d88 <__subdf3>
 100274c:	1025883a 	mov	r18,r2
 1002750:	1827883a 	mov	r19,r3
 1002754:	b4413c26 	beq	r22,r17,1002c48 <__ieee754_rem_pio2+0x600>
 1002758:	040698b4 	movhi	r16,6754
 100275c:	8418cc44 	addi	r16,r16,25393
 1002760:	044f7474 	movhi	r17,15825
 1002764:	8c6d1844 	addi	r17,r17,-19359
 1002768:	1009883a 	mov	r4,r2
 100276c:	180b883a 	mov	r5,r3
 1002770:	800d883a 	mov	r6,r16
 1002774:	880f883a 	mov	r7,r17
 1002778:	1004d880 	call	1004d88 <__subdf3>
 100277c:	100d883a 	mov	r6,r2
 1002780:	9009883a 	mov	r4,r18
 1002784:	980b883a 	mov	r5,r19
 1002788:	180f883a 	mov	r7,r3
 100278c:	e0800015 	stw	r2,0(fp)
 1002790:	e0c00115 	stw	r3,4(fp)
 1002794:	1004d880 	call	1004d88 <__subdf3>
 1002798:	1009883a 	mov	r4,r2
 100279c:	800d883a 	mov	r6,r16
 10027a0:	880f883a 	mov	r7,r17
 10027a4:	180b883a 	mov	r5,r3
 10027a8:	1004d880 	call	1004d88 <__subdf3>
 10027ac:	1009883a 	mov	r4,r2
 10027b0:	00800044 	movi	r2,1
 10027b4:	d8800b15 	stw	r2,44(sp)
 10027b8:	e0c00315 	stw	r3,12(fp)
 10027bc:	e1000215 	stw	r4,8(fp)
 10027c0:	003fba06 	br	10026ac <__ieee754_rem_pio2+0x64>
 10027c4:	10045380 	call	1004538 <fabs>
 10027c8:	021b72b4 	movhi	r8,28106
 10027cc:	423220c4 	addi	r8,r8,-14205
 10027d0:	024ff934 	movhi	r9,16356
 10027d4:	4a57cc04 	addi	r9,r9,24368
 10027d8:	480f883a 	mov	r7,r9
 10027dc:	400d883a 	mov	r6,r8
 10027e0:	1009883a 	mov	r4,r2
 10027e4:	180b883a 	mov	r5,r3
 10027e8:	1025883a 	mov	r18,r2
 10027ec:	1827883a 	mov	r19,r3
 10027f0:	1004e7c0 	call	1004e7c <__muldf3>
 10027f4:	0011883a 	mov	r8,zero
 10027f8:	024ff834 	movhi	r9,16352
 10027fc:	480f883a 	mov	r7,r9
 1002800:	400d883a 	mov	r6,r8
 1002804:	180b883a 	mov	r5,r3
 1002808:	1009883a 	mov	r4,r2
 100280c:	1004e080 	call	1004e08 <__adddf3>
 1002810:	180b883a 	mov	r5,r3
 1002814:	1009883a 	mov	r4,r2
 1002818:	10058380 	call	1005838 <__fixdfsi>
 100281c:	1009883a 	mov	r4,r2
 1002820:	d8800b15 	stw	r2,44(sp)
 1002824:	10057400 	call	1005740 <__floatsidf>
 1002828:	1823883a 	mov	r17,r3
 100282c:	1009883a 	mov	r4,r2
 1002830:	d8800c15 	stw	r2,48(sp)
 1002834:	00effe74 	movhi	r3,49145
 1002838:	18c87ec4 	addi	r3,r3,8699
 100283c:	00951034 	movhi	r2,21568
 1002840:	880b883a 	mov	r5,r17
 1002844:	180f883a 	mov	r7,r3
 1002848:	100d883a 	mov	r6,r2
 100284c:	dc400d15 	stw	r17,52(sp)
 1002850:	1004e7c0 	call	1004e7c <__muldf3>
 1002854:	180f883a 	mov	r7,r3
 1002858:	980b883a 	mov	r5,r19
 100285c:	9009883a 	mov	r4,r18
 1002860:	100d883a 	mov	r6,r2
 1002864:	1004e080 	call	1004e08 <__adddf3>
 1002868:	d9000c17 	ldw	r4,48(sp)
 100286c:	020698b4 	movhi	r8,6754
 1002870:	4218cc44 	addi	r8,r8,25393
 1002874:	024f7474 	movhi	r9,15825
 1002878:	4a6d1844 	addi	r9,r9,-19359
 100287c:	880b883a 	mov	r5,r17
 1002880:	480f883a 	mov	r7,r9
 1002884:	400d883a 	mov	r6,r8
 1002888:	1025883a 	mov	r18,r2
 100288c:	1827883a 	mov	r19,r3
 1002890:	1004e7c0 	call	1004e7c <__muldf3>
 1002894:	d9000b17 	ldw	r4,44(sp)
 1002898:	100f883a 	mov	r7,r2
 100289c:	1811883a 	mov	r8,r3
 10028a0:	008007c4 	movi	r2,31
 10028a4:	dc800e15 	stw	r18,56(sp)
 10028a8:	3821883a 	mov	r16,r7
 10028ac:	dcc00f15 	stw	r19,60(sp)
 10028b0:	4023883a 	mov	r17,r8
 10028b4:	11010a0e 	bge	r2,r4,1002ce0 <__ieee754_rem_pio2+0x698>
 10028b8:	d9000e17 	ldw	r4,56(sp)
 10028bc:	d9400f17 	ldw	r5,60(sp)
 10028c0:	800d883a 	mov	r6,r16
 10028c4:	880f883a 	mov	r7,r17
 10028c8:	1004d880 	call	1004d88 <__subdf3>
 10028cc:	1810d53a 	srli	r8,r3,20
 10028d0:	b02dd53a 	srai	r22,r22,20
 10028d4:	1009883a 	mov	r4,r2
 10028d8:	4201ffcc 	andi	r8,r8,2047
 10028dc:	180b883a 	mov	r5,r3
 10028e0:	b211c83a 	sub	r8,r22,r8
 10028e4:	00800404 	movi	r2,16
 10028e8:	dd801015 	stw	r22,64(sp)
 10028ec:	e1000015 	stw	r4,0(fp)
 10028f0:	e1400115 	stw	r5,4(fp)
 10028f4:	1200430e 	bge	r2,r8,1002a04 <__ieee754_rem_pio2+0x3bc>
 10028f8:	d9000c17 	ldw	r4,48(sp)
 10028fc:	d9400d17 	ldw	r5,52(sp)
 1002900:	00869834 	movhi	r2,6752
 1002904:	00cf7474 	movhi	r3,15825
 1002908:	18ed1844 	addi	r3,r3,-19359
 100290c:	180f883a 	mov	r7,r3
 1002910:	100d883a 	mov	r6,r2
 1002914:	1004e7c0 	call	1004e7c <__muldf3>
 1002918:	d9000e17 	ldw	r4,56(sp)
 100291c:	d9400f17 	ldw	r5,60(sp)
 1002920:	100d883a 	mov	r6,r2
 1002924:	180f883a 	mov	r7,r3
 1002928:	1025883a 	mov	r18,r2
 100292c:	1827883a 	mov	r19,r3
 1002930:	1004d880 	call	1004d88 <__subdf3>
 1002934:	d9000c17 	ldw	r4,48(sp)
 1002938:	d9400d17 	ldw	r5,52(sp)
 100293c:	058b80f4 	movhi	r22,11779
 1002940:	b59c1cc4 	addi	r22,r22,28787
 1002944:	05cee8f4 	movhi	r23,15267
 1002948:	bdc66284 	addi	r23,r23,6538
 100294c:	b00d883a 	mov	r6,r22
 1002950:	b80f883a 	mov	r7,r23
 1002954:	d8801115 	stw	r2,68(sp)
 1002958:	d8c01215 	stw	r3,72(sp)
 100295c:	d8800815 	stw	r2,32(sp)
 1002960:	1004e7c0 	call	1004e7c <__muldf3>
 1002964:	d9001217 	ldw	r4,72(sp)
 1002968:	d9400f17 	ldw	r5,60(sp)
 100296c:	d9800817 	ldw	r6,32(sp)
 1002970:	d9000915 	stw	r4,36(sp)
 1002974:	d9c01217 	ldw	r7,72(sp)
 1002978:	d9000e17 	ldw	r4,56(sp)
 100297c:	1021883a 	mov	r16,r2
 1002980:	1823883a 	mov	r17,r3
 1002984:	1004d880 	call	1004d88 <__subdf3>
 1002988:	180b883a 	mov	r5,r3
 100298c:	900d883a 	mov	r6,r18
 1002990:	980f883a 	mov	r7,r19
 1002994:	1009883a 	mov	r4,r2
 1002998:	1004d880 	call	1004d88 <__subdf3>
 100299c:	180f883a 	mov	r7,r3
 10029a0:	880b883a 	mov	r5,r17
 10029a4:	8009883a 	mov	r4,r16
 10029a8:	100d883a 	mov	r6,r2
 10029ac:	1004d880 	call	1004d88 <__subdf3>
 10029b0:	d9000817 	ldw	r4,32(sp)
 10029b4:	d9401217 	ldw	r5,72(sp)
 10029b8:	180f883a 	mov	r7,r3
 10029bc:	100d883a 	mov	r6,r2
 10029c0:	1021883a 	mov	r16,r2
 10029c4:	1823883a 	mov	r17,r3
 10029c8:	1004d880 	call	1004d88 <__subdf3>
 10029cc:	1810d53a 	srli	r8,r3,20
 10029d0:	1009883a 	mov	r4,r2
 10029d4:	d8801017 	ldw	r2,64(sp)
 10029d8:	4201ffcc 	andi	r8,r8,2047
 10029dc:	180b883a 	mov	r5,r3
 10029e0:	1211c83a 	sub	r8,r2,r8
 10029e4:	00800c44 	movi	r2,49
 10029e8:	e1000015 	stw	r4,0(fp)
 10029ec:	e1400115 	stw	r5,4(fp)
 10029f0:	1200f016 	blt	r2,r8,1002db4 <__ieee754_rem_pio2+0x76c>
 10029f4:	d8c00817 	ldw	r3,32(sp)
 10029f8:	d9001217 	ldw	r4,72(sp)
 10029fc:	d8c00e15 	stw	r3,56(sp)
 1002a00:	d9000f15 	stw	r4,60(sp)
 1002a04:	e1800017 	ldw	r6,0(fp)
 1002a08:	e1c00117 	ldw	r7,4(fp)
 1002a0c:	d9400f17 	ldw	r5,60(sp)
 1002a10:	d9000e17 	ldw	r4,56(sp)
 1002a14:	1004d880 	call	1004d88 <__subdf3>
 1002a18:	180b883a 	mov	r5,r3
 1002a1c:	800d883a 	mov	r6,r16
 1002a20:	880f883a 	mov	r7,r17
 1002a24:	1009883a 	mov	r4,r2
 1002a28:	1004d880 	call	1004d88 <__subdf3>
 1002a2c:	d9400a17 	ldw	r5,40(sp)
 1002a30:	e0800215 	stw	r2,8(fp)
 1002a34:	e1800204 	addi	r6,fp,8
 1002a38:	30c00115 	stw	r3,4(r6)
 1002a3c:	283f1b0e 	bge	r5,zero,10026ac <__ieee754_rem_pio2+0x64>
 1002a40:	e0c00117 	ldw	r3,4(fp)
 1002a44:	d8800b17 	ldw	r2,44(sp)
 1002a48:	18e0003c 	xorhi	r3,r3,32768
 1002a4c:	0085c83a 	sub	r2,zero,r2
 1002a50:	e0c00115 	stw	r3,4(fp)
 1002a54:	d8800b15 	stw	r2,44(sp)
 1002a58:	30800117 	ldw	r2,4(r6)
 1002a5c:	10a0003c 	xorhi	r2,r2,32768
 1002a60:	30800115 	stw	r2,4(r6)
 1002a64:	003f1106 	br	10026ac <__ieee754_rem_pio2+0x64>
 1002a68:	04151034 	movhi	r16,21568
 1002a6c:	044ffe74 	movhi	r17,16377
 1002a70:	8c487ec4 	addi	r17,r17,8699
 1002a74:	4809883a 	mov	r4,r9
 1002a78:	800d883a 	mov	r6,r16
 1002a7c:	880f883a 	mov	r7,r17
 1002a80:	1004e080 	call	1004e08 <__adddf3>
 1002a84:	1025883a 	mov	r18,r2
 1002a88:	1827883a 	mov	r19,r3
 1002a8c:	b440a326 	beq	r22,r17,1002d1c <__ieee754_rem_pio2+0x6d4>
 1002a90:	040698b4 	movhi	r16,6754
 1002a94:	8418cc44 	addi	r16,r16,25393
 1002a98:	044f7474 	movhi	r17,15825
 1002a9c:	8c6d1844 	addi	r17,r17,-19359
 1002aa0:	1009883a 	mov	r4,r2
 1002aa4:	180b883a 	mov	r5,r3
 1002aa8:	800d883a 	mov	r6,r16
 1002aac:	880f883a 	mov	r7,r17
 1002ab0:	1004e080 	call	1004e08 <__adddf3>
 1002ab4:	100d883a 	mov	r6,r2
 1002ab8:	9009883a 	mov	r4,r18
 1002abc:	980b883a 	mov	r5,r19
 1002ac0:	180f883a 	mov	r7,r3
 1002ac4:	e0800015 	stw	r2,0(fp)
 1002ac8:	e0c00115 	stw	r3,4(fp)
 1002acc:	1004d880 	call	1004d88 <__subdf3>
 1002ad0:	1009883a 	mov	r4,r2
 1002ad4:	800d883a 	mov	r6,r16
 1002ad8:	880f883a 	mov	r7,r17
 1002adc:	180b883a 	mov	r5,r3
 1002ae0:	1004e080 	call	1004e08 <__adddf3>
 1002ae4:	1009883a 	mov	r4,r2
 1002ae8:	00bfffc4 	movi	r2,-1
 1002aec:	d8800b15 	stw	r2,44(sp)
 1002af0:	e0c00315 	stw	r3,12(fp)
 1002af4:	e1000215 	stw	r4,8(fp)
 1002af8:	003eec06 	br	10026ac <__ieee754_rem_pio2+0x64>
 1002afc:	b005d53a 	srai	r2,r22,20
 1002b00:	4821883a 	mov	r16,r9
 1002b04:	05505c34 	movhi	r21,16752
 1002b08:	15fefa84 	addi	r23,r2,-1046
 1002b0c:	b826953a 	slli	r19,r23,20
 1002b10:	0029883a 	mov	r20,zero
 1002b14:	048000c4 	movi	r18,3
 1002b18:	b4e7c83a 	sub	r19,r22,r19
 1002b1c:	980b883a 	mov	r5,r19
 1002b20:	10058380 	call	1005838 <__fixdfsi>
 1002b24:	1009883a 	mov	r4,r2
 1002b28:	10057400 	call	1005740 <__floatsidf>
 1002b2c:	980b883a 	mov	r5,r19
 1002b30:	8009883a 	mov	r4,r16
 1002b34:	180f883a 	mov	r7,r3
 1002b38:	100d883a 	mov	r6,r2
 1002b3c:	d8800215 	stw	r2,8(sp)
 1002b40:	d8c00315 	stw	r3,12(sp)
 1002b44:	1004d880 	call	1004d88 <__subdf3>
 1002b48:	180b883a 	mov	r5,r3
 1002b4c:	a00d883a 	mov	r6,r20
 1002b50:	a80f883a 	mov	r7,r21
 1002b54:	1009883a 	mov	r4,r2
 1002b58:	1004e7c0 	call	1004e7c <__muldf3>
 1002b5c:	180b883a 	mov	r5,r3
 1002b60:	1009883a 	mov	r4,r2
 1002b64:	1823883a 	mov	r17,r3
 1002b68:	1021883a 	mov	r16,r2
 1002b6c:	10058380 	call	1005838 <__fixdfsi>
 1002b70:	1009883a 	mov	r4,r2
 1002b74:	10057400 	call	1005740 <__floatsidf>
 1002b78:	880b883a 	mov	r5,r17
 1002b7c:	8009883a 	mov	r4,r16
 1002b80:	180f883a 	mov	r7,r3
 1002b84:	100d883a 	mov	r6,r2
 1002b88:	d8800415 	stw	r2,16(sp)
 1002b8c:	d8c00515 	stw	r3,20(sp)
 1002b90:	1004d880 	call	1004d88 <__subdf3>
 1002b94:	180b883a 	mov	r5,r3
 1002b98:	000d883a 	mov	r6,zero
 1002b9c:	a80f883a 	mov	r7,r21
 1002ba0:	1009883a 	mov	r4,r2
 1002ba4:	1004e7c0 	call	1004e7c <__muldf3>
 1002ba8:	d8c00715 	stw	r3,28(sp)
 1002bac:	d8800615 	stw	r2,24(sp)
 1002bb0:	00000106 	br	1002bb8 <__ieee754_rem_pio2+0x570>
 1002bb4:	8025883a 	mov	r18,r16
 1002bb8:	943fffc4 	addi	r16,r18,-1
 1002bbc:	800890fa 	slli	r4,r16,3
 1002bc0:	d9400204 	addi	r5,sp,8
 1002bc4:	000d883a 	mov	r6,zero
 1002bc8:	2149883a 	add	r4,r4,r5
 1002bcc:	20c00117 	ldw	r3,4(r4)
 1002bd0:	20800017 	ldw	r2,0(r4)
 1002bd4:	000f883a 	mov	r7,zero
 1002bd8:	180b883a 	mov	r5,r3
 1002bdc:	1009883a 	mov	r4,r2
 1002be0:	10054980 	call	1005498 <__eqdf2>
 1002be4:	103ff326 	beq	r2,zero,1002bb4 <__ieee754_rem_pio2+0x56c>
 1002be8:	00800084 	movi	r2,2
 1002bec:	00c04134 	movhi	r3,260
 1002bf0:	18d96404 	addi	r3,r3,26000
 1002bf4:	b80d883a 	mov	r6,r23
 1002bf8:	900f883a 	mov	r7,r18
 1002bfc:	d9000204 	addi	r4,sp,8
 1002c00:	e00b883a 	mov	r5,fp
 1002c04:	d8800015 	stw	r2,0(sp)
 1002c08:	d8c00115 	stw	r3,4(sp)
 1002c0c:	100339c0 	call	100339c <__kernel_rem_pio2>
 1002c10:	d8800b15 	stw	r2,44(sp)
 1002c14:	d8800a17 	ldw	r2,40(sp)
 1002c18:	103ea40e 	bge	r2,zero,10026ac <__ieee754_rem_pio2+0x64>
 1002c1c:	e0800117 	ldw	r2,4(fp)
 1002c20:	d8c00b17 	ldw	r3,44(sp)
 1002c24:	e1000204 	addi	r4,fp,8
 1002c28:	10a0003c 	xorhi	r2,r2,32768
 1002c2c:	00c7c83a 	sub	r3,zero,r3
 1002c30:	e0800115 	stw	r2,4(fp)
 1002c34:	d8c00b15 	stw	r3,44(sp)
 1002c38:	20c00117 	ldw	r3,4(r4)
 1002c3c:	18e0003c 	xorhi	r3,r3,32768
 1002c40:	20c00115 	stw	r3,4(r4)
 1002c44:	003e9906 	br	10026ac <__ieee754_rem_pio2+0x64>
 1002c48:	00869834 	movhi	r2,6752
 1002c4c:	00cf7474 	movhi	r3,15825
 1002c50:	18ed1844 	addi	r3,r3,-19359
 1002c54:	9009883a 	mov	r4,r18
 1002c58:	980b883a 	mov	r5,r19
 1002c5c:	180f883a 	mov	r7,r3
 1002c60:	100d883a 	mov	r6,r2
 1002c64:	1004d880 	call	1004d88 <__subdf3>
 1002c68:	048b80f4 	movhi	r18,11779
 1002c6c:	949c1cc4 	addi	r18,r18,28787
 1002c70:	04cee8f4 	movhi	r19,15267
 1002c74:	9cc66284 	addi	r19,r19,6538
 1002c78:	1009883a 	mov	r4,r2
 1002c7c:	180b883a 	mov	r5,r3
 1002c80:	900d883a 	mov	r6,r18
 1002c84:	980f883a 	mov	r7,r19
 1002c88:	1021883a 	mov	r16,r2
 1002c8c:	1823883a 	mov	r17,r3
 1002c90:	1004d880 	call	1004d88 <__subdf3>
 1002c94:	100d883a 	mov	r6,r2
 1002c98:	8009883a 	mov	r4,r16
 1002c9c:	880b883a 	mov	r5,r17
 1002ca0:	180f883a 	mov	r7,r3
 1002ca4:	e0800015 	stw	r2,0(fp)
 1002ca8:	e0c00115 	stw	r3,4(fp)
 1002cac:	1004d880 	call	1004d88 <__subdf3>
 1002cb0:	180b883a 	mov	r5,r3
 1002cb4:	1009883a 	mov	r4,r2
 1002cb8:	900d883a 	mov	r6,r18
 1002cbc:	980f883a 	mov	r7,r19
 1002cc0:	1004d880 	call	1004d88 <__subdf3>
 1002cc4:	180b883a 	mov	r5,r3
 1002cc8:	1009883a 	mov	r4,r2
 1002ccc:	00c00044 	movi	r3,1
 1002cd0:	d8c00b15 	stw	r3,44(sp)
 1002cd4:	e1400315 	stw	r5,12(fp)
 1002cd8:	e1000215 	stw	r4,8(fp)
 1002cdc:	003e7306 	br	10026ac <__ieee754_rem_pio2+0x64>
 1002ce0:	2105883a 	add	r2,r4,r4
 1002ce4:	1085883a 	add	r2,r2,r2
 1002ce8:	00c04134 	movhi	r3,260
 1002cec:	18d94404 	addi	r3,r3,25872
 1002cf0:	10c5883a 	add	r2,r2,r3
 1002cf4:	113fff17 	ldw	r4,-4(r2)
 1002cf8:	b13eef26 	beq	r22,r4,10028b8 <__ieee754_rem_pio2+0x270>
 1002cfc:	980b883a 	mov	r5,r19
 1002d00:	400f883a 	mov	r7,r8
 1002d04:	9009883a 	mov	r4,r18
 1002d08:	800d883a 	mov	r6,r16
 1002d0c:	1004d880 	call	1004d88 <__subdf3>
 1002d10:	e0c00115 	stw	r3,4(fp)
 1002d14:	e0800015 	stw	r2,0(fp)
 1002d18:	003f3a06 	br	1002a04 <__ieee754_rem_pio2+0x3bc>
 1002d1c:	00869834 	movhi	r2,6752
 1002d20:	00cf7474 	movhi	r3,15825
 1002d24:	18ed1844 	addi	r3,r3,-19359
 1002d28:	9009883a 	mov	r4,r18
 1002d2c:	980b883a 	mov	r5,r19
 1002d30:	180f883a 	mov	r7,r3
 1002d34:	100d883a 	mov	r6,r2
 1002d38:	1004e080 	call	1004e08 <__adddf3>
 1002d3c:	048b80f4 	movhi	r18,11779
 1002d40:	949c1cc4 	addi	r18,r18,28787
 1002d44:	04cee8f4 	movhi	r19,15267
 1002d48:	9cc66284 	addi	r19,r19,6538
 1002d4c:	1009883a 	mov	r4,r2
 1002d50:	180b883a 	mov	r5,r3
 1002d54:	900d883a 	mov	r6,r18
 1002d58:	980f883a 	mov	r7,r19
 1002d5c:	1021883a 	mov	r16,r2
 1002d60:	1823883a 	mov	r17,r3
 1002d64:	1004e080 	call	1004e08 <__adddf3>
 1002d68:	100d883a 	mov	r6,r2
 1002d6c:	8009883a 	mov	r4,r16
 1002d70:	880b883a 	mov	r5,r17
 1002d74:	180f883a 	mov	r7,r3
 1002d78:	e0800015 	stw	r2,0(fp)
 1002d7c:	e0c00115 	stw	r3,4(fp)
 1002d80:	1004d880 	call	1004d88 <__subdf3>
 1002d84:	180b883a 	mov	r5,r3
 1002d88:	1009883a 	mov	r4,r2
 1002d8c:	900d883a 	mov	r6,r18
 1002d90:	980f883a 	mov	r7,r19
 1002d94:	1004e080 	call	1004e08 <__adddf3>
 1002d98:	180b883a 	mov	r5,r3
 1002d9c:	1009883a 	mov	r4,r2
 1002da0:	00ffffc4 	movi	r3,-1
 1002da4:	d8c00b15 	stw	r3,44(sp)
 1002da8:	e1400315 	stw	r5,12(fp)
 1002dac:	e1000215 	stw	r4,8(fp)
 1002db0:	003e3e06 	br	10026ac <__ieee754_rem_pio2+0x64>
 1002db4:	d9000c17 	ldw	r4,48(sp)
 1002db8:	d9400d17 	ldw	r5,52(sp)
 1002dbc:	018b8034 	movhi	r6,11776
 1002dc0:	b80f883a 	mov	r7,r23
 1002dc4:	1004e7c0 	call	1004e7c <__muldf3>
 1002dc8:	d9000817 	ldw	r4,32(sp)
 1002dcc:	d9401217 	ldw	r5,72(sp)
 1002dd0:	100d883a 	mov	r6,r2
 1002dd4:	180f883a 	mov	r7,r3
 1002dd8:	1025883a 	mov	r18,r2
 1002ddc:	1827883a 	mov	r19,r3
 1002de0:	1004d880 	call	1004d88 <__subdf3>
 1002de4:	d9400d17 	ldw	r5,52(sp)
 1002de8:	d9000c17 	ldw	r4,48(sp)
 1002dec:	02094834 	movhi	r8,9504
 1002df0:	42127044 	addi	r8,r8,18881
 1002df4:	024e5f34 	movhi	r9,14716
 1002df8:	4a60e684 	addi	r9,r9,-31846
 1002dfc:	480f883a 	mov	r7,r9
 1002e00:	400d883a 	mov	r6,r8
 1002e04:	182b883a 	mov	r21,r3
 1002e08:	d8800e15 	stw	r2,56(sp)
 1002e0c:	1004e7c0 	call	1004e7c <__muldf3>
 1002e10:	d9000817 	ldw	r4,32(sp)
 1002e14:	d9401217 	ldw	r5,72(sp)
 1002e18:	d9800e17 	ldw	r6,56(sp)
 1002e1c:	a80f883a 	mov	r7,r21
 1002e20:	1021883a 	mov	r16,r2
 1002e24:	1823883a 	mov	r17,r3
 1002e28:	dd400f15 	stw	r21,60(sp)
 1002e2c:	1004d880 	call	1004d88 <__subdf3>
 1002e30:	180b883a 	mov	r5,r3
 1002e34:	900d883a 	mov	r6,r18
 1002e38:	980f883a 	mov	r7,r19
 1002e3c:	1009883a 	mov	r4,r2
 1002e40:	1004d880 	call	1004d88 <__subdf3>
 1002e44:	180f883a 	mov	r7,r3
 1002e48:	880b883a 	mov	r5,r17
 1002e4c:	8009883a 	mov	r4,r16
 1002e50:	100d883a 	mov	r6,r2
 1002e54:	1004d880 	call	1004d88 <__subdf3>
 1002e58:	d9000e17 	ldw	r4,56(sp)
 1002e5c:	1021883a 	mov	r16,r2
 1002e60:	1823883a 	mov	r17,r3
 1002e64:	a80b883a 	mov	r5,r21
 1002e68:	180f883a 	mov	r7,r3
 1002e6c:	003fa606 	br	1002d08 <__ieee754_rem_pio2+0x6c0>

01002e70 <__kernel_cos>:
 1002e70:	defff104 	addi	sp,sp,-60
 1002e74:	00a00034 	movhi	r2,32768
 1002e78:	10bfffc4 	addi	r2,r2,-1
 1002e7c:	dd800c15 	stw	r22,48(sp)
 1002e80:	116c703a 	and	r22,r2,r5
 1002e84:	0005883a 	mov	r2,zero
 1002e88:	dd000a15 	stw	r20,40(sp)
 1002e8c:	d8800215 	stw	r2,8(sp)
 1002e90:	2029883a 	mov	r20,r4
 1002e94:	008f9034 	movhi	r2,15936
 1002e98:	10bfffc4 	addi	r2,r2,-1
 1002e9c:	0009883a 	mov	r4,zero
 1002ea0:	dd400b15 	stw	r21,44(sp)
 1002ea4:	dfc00e15 	stw	ra,56(sp)
 1002ea8:	ddc00d15 	stw	r23,52(sp)
 1002eac:	dcc00915 	stw	r19,36(sp)
 1002eb0:	dc800815 	stw	r18,32(sp)
 1002eb4:	dc400715 	stw	r17,28(sp)
 1002eb8:	dc000615 	stw	r16,24(sp)
 1002ebc:	282b883a 	mov	r21,r5
 1002ec0:	d9800415 	stw	r6,16(sp)
 1002ec4:	d9c00515 	stw	r7,20(sp)
 1002ec8:	d9000315 	stw	r4,12(sp)
 1002ecc:	15809216 	blt	r2,r22,1003118 <__kernel_cos+0x2a8>
 1002ed0:	a009883a 	mov	r4,r20
 1002ed4:	10058380 	call	1005838 <__fixdfsi>
 1002ed8:	10011c26 	beq	r2,zero,100334c <__kernel_cos+0x4dc>
 1002edc:	a009883a 	mov	r4,r20
 1002ee0:	a80b883a 	mov	r5,r21
 1002ee4:	a00d883a 	mov	r6,r20
 1002ee8:	a80f883a 	mov	r7,r21
 1002eec:	1004e7c0 	call	1004e7c <__muldf3>
 1002ef0:	1021883a 	mov	r16,r2
 1002ef4:	1823883a 	mov	r17,r3
 1002ef8:	1025883a 	mov	r18,r2
 1002efc:	1827883a 	mov	r19,r3
 1002f00:	00afa234 	movhi	r2,48776
 1002f04:	108e3504 	addi	r2,r2,14548
 1002f08:	00ef6a74 	movhi	r3,48553
 1002f0c:	18feba44 	addi	r3,r3,-1303
 1002f10:	8009883a 	mov	r4,r16
 1002f14:	880b883a 	mov	r5,r17
 1002f18:	180f883a 	mov	r7,r3
 1002f1c:	100d883a 	mov	r6,r2
 1002f20:	1004e7c0 	call	1004e7c <__muldf3>
 1002f24:	022f6d74 	movhi	r8,48565
 1002f28:	422c7104 	addi	r8,r8,-20028
 1002f2c:	024f88b4 	movhi	r9,15906
 1002f30:	4a7ba784 	addi	r9,r9,-4450
 1002f34:	480f883a 	mov	r7,r9
 1002f38:	400d883a 	mov	r6,r8
 1002f3c:	180b883a 	mov	r5,r3
 1002f40:	1009883a 	mov	r4,r2
 1002f44:	1004e080 	call	1004e08 <__adddf3>
 1002f48:	180f883a 	mov	r7,r3
 1002f4c:	8009883a 	mov	r4,r16
 1002f50:	880b883a 	mov	r5,r17
 1002f54:	100d883a 	mov	r6,r2
 1002f58:	1004e7c0 	call	1004e7c <__muldf3>
 1002f5c:	02202734 	movhi	r8,32924
 1002f60:	4214ab44 	addi	r8,r8,21165
 1002f64:	024fa4b4 	movhi	r9,16018
 1002f68:	4a5f93c4 	addi	r9,r9,32335
 1002f6c:	480f883a 	mov	r7,r9
 1002f70:	400d883a 	mov	r6,r8
 1002f74:	180b883a 	mov	r5,r3
 1002f78:	1009883a 	mov	r4,r2
 1002f7c:	1004d880 	call	1004d88 <__subdf3>
 1002f80:	180f883a 	mov	r7,r3
 1002f84:	8009883a 	mov	r4,r16
 1002f88:	880b883a 	mov	r5,r17
 1002f8c:	100d883a 	mov	r6,r2
 1002f90:	1004e7c0 	call	1004e7c <__muldf3>
 1002f94:	020672f4 	movhi	r8,6603
 1002f98:	42056404 	addi	r8,r8,5520
 1002f9c:	024fbeb4 	movhi	r9,16122
 1002fa0:	4a406804 	addi	r9,r9,416
 1002fa4:	480f883a 	mov	r7,r9
 1002fa8:	400d883a 	mov	r6,r8
 1002fac:	180b883a 	mov	r5,r3
 1002fb0:	1009883a 	mov	r4,r2
 1002fb4:	1004e080 	call	1004e08 <__adddf3>
 1002fb8:	180f883a 	mov	r7,r3
 1002fbc:	8009883a 	mov	r4,r16
 1002fc0:	880b883a 	mov	r5,r17
 1002fc4:	100d883a 	mov	r6,r2
 1002fc8:	1004e7c0 	call	1004e7c <__muldf3>
 1002fcc:	0205b074 	movhi	r8,5825
 1002fd0:	42145dc4 	addi	r8,r8,20855
 1002fd4:	024fd5f4 	movhi	r9,16215
 1002fd8:	4a705b04 	addi	r9,r9,-16020
 1002fdc:	480f883a 	mov	r7,r9
 1002fe0:	400d883a 	mov	r6,r8
 1002fe4:	180b883a 	mov	r5,r3
 1002fe8:	1009883a 	mov	r4,r2
 1002fec:	1004d880 	call	1004d88 <__subdf3>
 1002ff0:	180f883a 	mov	r7,r3
 1002ff4:	8009883a 	mov	r4,r16
 1002ff8:	880b883a 	mov	r5,r17
 1002ffc:	100d883a 	mov	r6,r2
 1003000:	1004e7c0 	call	1004e7c <__muldf3>
 1003004:	02155574 	movhi	r8,21845
 1003008:	42155304 	addi	r8,r8,21836
 100300c:	024fe974 	movhi	r9,16293
 1003010:	4a555544 	addi	r9,r9,21845
 1003014:	480f883a 	mov	r7,r9
 1003018:	400d883a 	mov	r6,r8
 100301c:	180b883a 	mov	r5,r3
 1003020:	1009883a 	mov	r4,r2
 1003024:	1004e080 	call	1004e08 <__adddf3>
 1003028:	180f883a 	mov	r7,r3
 100302c:	880b883a 	mov	r5,r17
 1003030:	8009883a 	mov	r4,r16
 1003034:	100d883a 	mov	r6,r2
 1003038:	1004e7c0 	call	1004e7c <__muldf3>
 100303c:	1021883a 	mov	r16,r2
 1003040:	1823883a 	mov	r17,r3
 1003044:	0005883a 	mov	r2,zero
 1003048:	00cff834 	movhi	r3,16352
 100304c:	9009883a 	mov	r4,r18
 1003050:	980b883a 	mov	r5,r19
 1003054:	180f883a 	mov	r7,r3
 1003058:	100d883a 	mov	r6,r2
 100305c:	1004e7c0 	call	1004e7c <__muldf3>
 1003060:	980b883a 	mov	r5,r19
 1003064:	880f883a 	mov	r7,r17
 1003068:	9009883a 	mov	r4,r18
 100306c:	800d883a 	mov	r6,r16
 1003070:	1025883a 	mov	r18,r2
 1003074:	1827883a 	mov	r19,r3
 1003078:	1004e7c0 	call	1004e7c <__muldf3>
 100307c:	d9c00517 	ldw	r7,20(sp)
 1003080:	d9800417 	ldw	r6,16(sp)
 1003084:	a80b883a 	mov	r5,r21
 1003088:	a009883a 	mov	r4,r20
 100308c:	1021883a 	mov	r16,r2
 1003090:	1823883a 	mov	r17,r3
 1003094:	1004e7c0 	call	1004e7c <__muldf3>
 1003098:	180f883a 	mov	r7,r3
 100309c:	880b883a 	mov	r5,r17
 10030a0:	8009883a 	mov	r4,r16
 10030a4:	100d883a 	mov	r6,r2
 10030a8:	1004d880 	call	1004d88 <__subdf3>
 10030ac:	180f883a 	mov	r7,r3
 10030b0:	980b883a 	mov	r5,r19
 10030b4:	9009883a 	mov	r4,r18
 10030b8:	100d883a 	mov	r6,r2
 10030bc:	1004d880 	call	1004d88 <__subdf3>
 10030c0:	0011883a 	mov	r8,zero
 10030c4:	024ffc34 	movhi	r9,16368
 10030c8:	480b883a 	mov	r5,r9
 10030cc:	180f883a 	mov	r7,r3
 10030d0:	4009883a 	mov	r4,r8
 10030d4:	100d883a 	mov	r6,r2
 10030d8:	1004d880 	call	1004d88 <__subdf3>
 10030dc:	100d883a 	mov	r6,r2
 10030e0:	180f883a 	mov	r7,r3
 10030e4:	3005883a 	mov	r2,r6
 10030e8:	3807883a 	mov	r3,r7
 10030ec:	dfc00e17 	ldw	ra,56(sp)
 10030f0:	ddc00d17 	ldw	r23,52(sp)
 10030f4:	dd800c17 	ldw	r22,48(sp)
 10030f8:	dd400b17 	ldw	r21,44(sp)
 10030fc:	dd000a17 	ldw	r20,40(sp)
 1003100:	dcc00917 	ldw	r19,36(sp)
 1003104:	dc800817 	ldw	r18,32(sp)
 1003108:	dc400717 	ldw	r17,28(sp)
 100310c:	dc000617 	ldw	r16,24(sp)
 1003110:	dec00f04 	addi	sp,sp,60
 1003114:	f800283a 	ret
 1003118:	280f883a 	mov	r7,r5
 100311c:	a009883a 	mov	r4,r20
 1003120:	a00d883a 	mov	r6,r20
 1003124:	1004e7c0 	call	1004e7c <__muldf3>
 1003128:	1021883a 	mov	r16,r2
 100312c:	1823883a 	mov	r17,r3
 1003130:	1025883a 	mov	r18,r2
 1003134:	1827883a 	mov	r19,r3
 1003138:	00afa234 	movhi	r2,48776
 100313c:	108e3504 	addi	r2,r2,14548
 1003140:	00ef6a74 	movhi	r3,48553
 1003144:	18feba44 	addi	r3,r3,-1303
 1003148:	8009883a 	mov	r4,r16
 100314c:	880b883a 	mov	r5,r17
 1003150:	180f883a 	mov	r7,r3
 1003154:	100d883a 	mov	r6,r2
 1003158:	1004e7c0 	call	1004e7c <__muldf3>
 100315c:	022f6d74 	movhi	r8,48565
 1003160:	422c7104 	addi	r8,r8,-20028
 1003164:	024f88b4 	movhi	r9,15906
 1003168:	4a7ba784 	addi	r9,r9,-4450
 100316c:	480f883a 	mov	r7,r9
 1003170:	400d883a 	mov	r6,r8
 1003174:	180b883a 	mov	r5,r3
 1003178:	1009883a 	mov	r4,r2
 100317c:	1004e080 	call	1004e08 <__adddf3>
 1003180:	180f883a 	mov	r7,r3
 1003184:	8009883a 	mov	r4,r16
 1003188:	880b883a 	mov	r5,r17
 100318c:	100d883a 	mov	r6,r2
 1003190:	1004e7c0 	call	1004e7c <__muldf3>
 1003194:	02202734 	movhi	r8,32924
 1003198:	4214ab44 	addi	r8,r8,21165
 100319c:	024fa4b4 	movhi	r9,16018
 10031a0:	4a5f93c4 	addi	r9,r9,32335
 10031a4:	480f883a 	mov	r7,r9
 10031a8:	400d883a 	mov	r6,r8
 10031ac:	180b883a 	mov	r5,r3
 10031b0:	1009883a 	mov	r4,r2
 10031b4:	1004d880 	call	1004d88 <__subdf3>
 10031b8:	180f883a 	mov	r7,r3
 10031bc:	8009883a 	mov	r4,r16
 10031c0:	880b883a 	mov	r5,r17
 10031c4:	100d883a 	mov	r6,r2
 10031c8:	1004e7c0 	call	1004e7c <__muldf3>
 10031cc:	020672f4 	movhi	r8,6603
 10031d0:	42056404 	addi	r8,r8,5520
 10031d4:	024fbeb4 	movhi	r9,16122
 10031d8:	4a406804 	addi	r9,r9,416
 10031dc:	480f883a 	mov	r7,r9
 10031e0:	400d883a 	mov	r6,r8
 10031e4:	180b883a 	mov	r5,r3
 10031e8:	1009883a 	mov	r4,r2
 10031ec:	1004e080 	call	1004e08 <__adddf3>
 10031f0:	180f883a 	mov	r7,r3
 10031f4:	8009883a 	mov	r4,r16
 10031f8:	880b883a 	mov	r5,r17
 10031fc:	100d883a 	mov	r6,r2
 1003200:	1004e7c0 	call	1004e7c <__muldf3>
 1003204:	0205b074 	movhi	r8,5825
 1003208:	42145dc4 	addi	r8,r8,20855
 100320c:	024fd5f4 	movhi	r9,16215
 1003210:	4a705b04 	addi	r9,r9,-16020
 1003214:	480f883a 	mov	r7,r9
 1003218:	400d883a 	mov	r6,r8
 100321c:	180b883a 	mov	r5,r3
 1003220:	1009883a 	mov	r4,r2
 1003224:	1004d880 	call	1004d88 <__subdf3>
 1003228:	180f883a 	mov	r7,r3
 100322c:	8009883a 	mov	r4,r16
 1003230:	880b883a 	mov	r5,r17
 1003234:	100d883a 	mov	r6,r2
 1003238:	1004e7c0 	call	1004e7c <__muldf3>
 100323c:	02155574 	movhi	r8,21845
 1003240:	42155304 	addi	r8,r8,21836
 1003244:	024fe974 	movhi	r9,16293
 1003248:	4a555544 	addi	r9,r9,21845
 100324c:	480f883a 	mov	r7,r9
 1003250:	400d883a 	mov	r6,r8
 1003254:	180b883a 	mov	r5,r3
 1003258:	1009883a 	mov	r4,r2
 100325c:	1004e080 	call	1004e08 <__adddf3>
 1003260:	180f883a 	mov	r7,r3
 1003264:	880b883a 	mov	r5,r17
 1003268:	8009883a 	mov	r4,r16
 100326c:	100d883a 	mov	r6,r2
 1003270:	1004e7c0 	call	1004e7c <__muldf3>
 1003274:	1021883a 	mov	r16,r2
 1003278:	008ff4f4 	movhi	r2,16339
 100327c:	108ccc84 	addi	r2,r2,13106
 1003280:	1823883a 	mov	r17,r3
 1003284:	15bf6f0e 	bge	r2,r22,1003044 <__kernel_cos+0x1d4>
 1003288:	008ffa74 	movhi	r2,16361
 100328c:	1580320e 	bge	r2,r22,1003358 <__kernel_cos+0x4e8>
 1003290:	0005883a 	mov	r2,zero
 1003294:	010ff9f4 	movhi	r4,16359
 1003298:	002d883a 	mov	r22,zero
 100329c:	d8800015 	stw	r2,0(sp)
 10032a0:	05cff4b4 	movhi	r23,16338
 10032a4:	d9000115 	stw	r4,4(sp)
 10032a8:	0005883a 	mov	r2,zero
 10032ac:	00cff834 	movhi	r3,16352
 10032b0:	9009883a 	mov	r4,r18
 10032b4:	980b883a 	mov	r5,r19
 10032b8:	180f883a 	mov	r7,r3
 10032bc:	100d883a 	mov	r6,r2
 10032c0:	1004e7c0 	call	1004e7c <__muldf3>
 10032c4:	180b883a 	mov	r5,r3
 10032c8:	b80f883a 	mov	r7,r23
 10032cc:	1009883a 	mov	r4,r2
 10032d0:	b00d883a 	mov	r6,r22
 10032d4:	1004d880 	call	1004d88 <__subdf3>
 10032d8:	980b883a 	mov	r5,r19
 10032dc:	880f883a 	mov	r7,r17
 10032e0:	9009883a 	mov	r4,r18
 10032e4:	800d883a 	mov	r6,r16
 10032e8:	1025883a 	mov	r18,r2
 10032ec:	1827883a 	mov	r19,r3
 10032f0:	1004e7c0 	call	1004e7c <__muldf3>
 10032f4:	d9c00517 	ldw	r7,20(sp)
 10032f8:	d9800417 	ldw	r6,16(sp)
 10032fc:	a80b883a 	mov	r5,r21
 1003300:	a009883a 	mov	r4,r20
 1003304:	1021883a 	mov	r16,r2
 1003308:	1823883a 	mov	r17,r3
 100330c:	1004e7c0 	call	1004e7c <__muldf3>
 1003310:	180f883a 	mov	r7,r3
 1003314:	880b883a 	mov	r5,r17
 1003318:	8009883a 	mov	r4,r16
 100331c:	100d883a 	mov	r6,r2
 1003320:	1004d880 	call	1004d88 <__subdf3>
 1003324:	180f883a 	mov	r7,r3
 1003328:	980b883a 	mov	r5,r19
 100332c:	9009883a 	mov	r4,r18
 1003330:	100d883a 	mov	r6,r2
 1003334:	1004d880 	call	1004d88 <__subdf3>
 1003338:	d9400117 	ldw	r5,4(sp)
 100333c:	d9000017 	ldw	r4,0(sp)
 1003340:	180f883a 	mov	r7,r3
 1003344:	100d883a 	mov	r6,r2
 1003348:	003f6306 	br	10030d8 <__kernel_cos+0x268>
 100334c:	000d883a 	mov	r6,zero
 1003350:	01cffc34 	movhi	r7,16368
 1003354:	003f6306 	br	10030e4 <__kernel_cos+0x274>
 1003358:	00bff834 	movhi	r2,65504
 100335c:	b0ad883a 	add	r22,r22,r2
 1003360:	dd800315 	stw	r22,12(sp)
 1003364:	d9000317 	ldw	r4,12(sp)
 1003368:	0005883a 	mov	r2,zero
 100336c:	00cffc34 	movhi	r3,16368
 1003370:	002d883a 	mov	r22,zero
 1003374:	200f883a 	mov	r7,r4
 1003378:	202f883a 	mov	r23,r4
 100337c:	180b883a 	mov	r5,r3
 1003380:	1009883a 	mov	r4,r2
 1003384:	b00d883a 	mov	r6,r22
 1003388:	d8800215 	stw	r2,8(sp)
 100338c:	1004d880 	call	1004d88 <__subdf3>
 1003390:	d8800015 	stw	r2,0(sp)
 1003394:	d8c00115 	stw	r3,4(sp)
 1003398:	003fc306 	br	10032a8 <__kernel_cos+0x438>

0100339c <__kernel_rem_pio2>:
 100339c:	deff5304 	addi	sp,sp,-692
 10033a0:	d880ad17 	ldw	r2,692(sp)
 10033a4:	d9009615 	stw	r4,600(sp)
 10033a8:	d9409715 	stw	r5,604(sp)
 10033ac:	1087883a 	add	r3,r2,r2
 10033b0:	18c7883a 	add	r3,r3,r3
 10033b4:	00804134 	movhi	r2,260
 10033b8:	1099a604 	addi	r2,r2,26264
 10033bc:	1887883a 	add	r3,r3,r2
 10033c0:	18c00017 	ldw	r3,0(r3)
 10033c4:	313fff44 	addi	r4,r6,-3
 10033c8:	01400604 	movi	r5,24
 10033cc:	df00ab15 	stw	fp,684(sp)
 10033d0:	dc00a315 	stw	r16,652(sp)
 10033d4:	d8c09515 	stw	r3,596(sp)
 10033d8:	dfc0ac15 	stw	ra,688(sp)
 10033dc:	ddc0aa15 	stw	r23,680(sp)
 10033e0:	dd80a915 	stw	r22,676(sp)
 10033e4:	dd40a815 	stw	r21,672(sp)
 10033e8:	dd00a715 	stw	r20,668(sp)
 10033ec:	dcc0a615 	stw	r19,664(sp)
 10033f0:	dc80a515 	stw	r18,660(sp)
 10033f4:	dc40a415 	stw	r17,656(sp)
 10033f8:	3021883a 	mov	r16,r6
 10033fc:	d9c09815 	stw	r7,608(sp)
 1003400:	100598c0 	call	100598c <__divsi3>
 1003404:	d8c09817 	ldw	r3,608(sp)
 1003408:	d8808c15 	stw	r2,560(sp)
 100340c:	1f3fffc4 	addi	fp,r3,-1
 1003410:	10031a16 	blt	r2,zero,100407c <__kernel_rem_pio2+0xce0>
 1003414:	d9008c17 	ldw	r4,560(sp)
 1003418:	017ffa04 	movi	r5,-24
 100341c:	1005a5c0 	call	1005a5c <__mulsi3>
 1003420:	d9009517 	ldw	r4,596(sp)
 1003424:	8085883a 	add	r2,r16,r2
 1003428:	10bffa04 	addi	r2,r2,-24
 100342c:	2707883a 	add	r3,r4,fp
 1003430:	d8809315 	stw	r2,588(sp)
 1003434:	18001616 	blt	r3,zero,1003490 <__kernel_rem_pio2+0xf4>
 1003438:	d9408c17 	ldw	r5,560(sp)
 100343c:	d980ae17 	ldw	r6,696(sp)
 1003440:	dc801404 	addi	r18,sp,80
 1003444:	2f21c83a 	sub	r16,r5,fp
 1003448:	8405883a 	add	r2,r16,r16
 100344c:	1085883a 	add	r2,r2,r2
 1003450:	30a3883a 	add	r17,r6,r2
 1003454:	80e7883a 	add	r19,r16,r3
 1003458:	00000106 	br	1003460 <__kernel_rem_pio2+0xc4>
 100345c:	84000044 	addi	r16,r16,1
 1003460:	0009883a 	mov	r4,zero
 1003464:	000b883a 	mov	r5,zero
 1003468:	80000416 	blt	r16,zero,100347c <__kernel_rem_pio2+0xe0>
 100346c:	89000017 	ldw	r4,0(r17)
 1003470:	10057400 	call	1005740 <__floatsidf>
 1003474:	1009883a 	mov	r4,r2
 1003478:	180b883a 	mov	r5,r3
 100347c:	91400115 	stw	r5,4(r18)
 1003480:	91000015 	stw	r4,0(r18)
 1003484:	8c400104 	addi	r17,r17,4
 1003488:	94800204 	addi	r18,r18,8
 100348c:	84fff31e 	bne	r16,r19,100345c <__kernel_rem_pio2+0xc0>
 1003490:	d9c09517 	ldw	r7,596(sp)
 1003494:	38002416 	blt	r7,zero,1003528 <__kernel_rem_pio2+0x18c>
 1003498:	da809817 	ldw	r10,608(sp)
 100349c:	e029883a 	mov	r20,fp
 10034a0:	dd406404 	addi	r21,sp,400
 10034a4:	3aaf883a 	add	r23,r7,r10
 10034a8:	e02c403a 	cmpge	r22,fp,zero
 10034ac:	b0023e26 	beq	r22,zero,1003da8 <__kernel_rem_pio2+0xa0c>
 10034b0:	dcc09617 	ldw	r19,600(sp)
 10034b4:	0021883a 	mov	r16,zero
 10034b8:	0025883a 	mov	r18,zero
 10034bc:	0023883a 	mov	r17,zero
 10034c0:	a489c83a 	sub	r4,r20,r18
 10034c4:	200890fa 	slli	r4,r4,3
 10034c8:	99800017 	ldw	r6,0(r19)
 10034cc:	99c00117 	ldw	r7,4(r19)
 10034d0:	26c9883a 	add	r4,r4,sp
 10034d4:	20c01517 	ldw	r3,84(r4)
 10034d8:	20801417 	ldw	r2,80(r4)
 10034dc:	94800044 	addi	r18,r18,1
 10034e0:	180b883a 	mov	r5,r3
 10034e4:	1009883a 	mov	r4,r2
 10034e8:	1004e7c0 	call	1004e7c <__muldf3>
 10034ec:	180f883a 	mov	r7,r3
 10034f0:	880b883a 	mov	r5,r17
 10034f4:	8009883a 	mov	r4,r16
 10034f8:	100d883a 	mov	r6,r2
 10034fc:	1004e080 	call	1004e08 <__adddf3>
 1003500:	1021883a 	mov	r16,r2
 1003504:	d8809817 	ldw	r2,608(sp)
 1003508:	9cc00204 	addi	r19,r19,8
 100350c:	1823883a 	mov	r17,r3
 1003510:	14bfeb1e 	bne	r2,r18,10034c0 <__kernel_rem_pio2+0x124>
 1003514:	a5000044 	addi	r20,r20,1
 1003518:	ac400115 	stw	r17,4(r21)
 100351c:	ac000015 	stw	r16,0(r21)
 1003520:	ad400204 	addi	r21,r21,8
 1003524:	a5ffe11e 	bne	r20,r23,10034ac <__kernel_rem_pio2+0x110>
 1003528:	d8c09517 	ldw	r3,596(sp)
 100352c:	d9409317 	ldw	r5,588(sp)
 1003530:	e038403a 	cmpge	fp,fp,zero
 1003534:	d8c08d15 	stw	r3,564(sp)
 1003538:	d9008d17 	ldw	r4,564(sp)
 100353c:	18c5883a 	add	r2,r3,r3
 1003540:	10c7883a 	add	r3,r2,r3
 1003544:	1907883a 	add	r3,r3,r4
 1003548:	1085883a 	add	r2,r2,r2
 100354c:	16c5883a 	add	r2,r2,sp
 1003550:	1ec7883a 	add	r3,r3,sp
 1003554:	29400050 	cmplti	r5,r5,1
 1003558:	df00a215 	stw	fp,648(sp)
 100355c:	d8809915 	stw	r2,612(sp)
 1003560:	d8c0a115 	stw	r3,644(sp)
 1003564:	d940a015 	stw	r5,640(sp)
 1003568:	d9808d17 	ldw	r6,564(sp)
 100356c:	300490fa 	slli	r2,r6,3
 1003570:	16c5883a 	add	r2,r2,sp
 1003574:	15006417 	ldw	r20,400(r2)
 1003578:	15406517 	ldw	r21,404(r2)
 100357c:	01802e0e 	bge	zero,r6,1003638 <__kernel_rem_pio2+0x29c>
 1003580:	102d883a 	mov	r22,r2
 1003584:	302f883a 	mov	r23,r6
 1003588:	d839883a 	mov	fp,sp
 100358c:	0005883a 	mov	r2,zero
 1003590:	00cf9c34 	movhi	r3,15984
 1003594:	180f883a 	mov	r7,r3
 1003598:	100d883a 	mov	r6,r2
 100359c:	a009883a 	mov	r4,r20
 10035a0:	a80b883a 	mov	r5,r21
 10035a4:	1004e7c0 	call	1004e7c <__muldf3>
 10035a8:	180b883a 	mov	r5,r3
 10035ac:	1009883a 	mov	r4,r2
 10035b0:	10058380 	call	1005838 <__fixdfsi>
 10035b4:	1009883a 	mov	r4,r2
 10035b8:	10057400 	call	1005740 <__floatsidf>
 10035bc:	1021883a 	mov	r16,r2
 10035c0:	1823883a 	mov	r17,r3
 10035c4:	0005883a 	mov	r2,zero
 10035c8:	00f05c34 	movhi	r3,49520
 10035cc:	180f883a 	mov	r7,r3
 10035d0:	8009883a 	mov	r4,r16
 10035d4:	880b883a 	mov	r5,r17
 10035d8:	100d883a 	mov	r6,r2
 10035dc:	1004e7c0 	call	1004e7c <__muldf3>
 10035e0:	180b883a 	mov	r5,r3
 10035e4:	a80f883a 	mov	r7,r21
 10035e8:	a00d883a 	mov	r6,r20
 10035ec:	1009883a 	mov	r4,r2
 10035f0:	1004e080 	call	1004e08 <__adddf3>
 10035f4:	180b883a 	mov	r5,r3
 10035f8:	1009883a 	mov	r4,r2
 10035fc:	10058380 	call	1005838 <__fixdfsi>
 1003600:	e0800015 	stw	r2,0(fp)
 1003604:	b5bffe04 	addi	r22,r22,-8
 1003608:	b0806417 	ldw	r2,400(r22)
 100360c:	b0c06517 	ldw	r3,404(r22)
 1003610:	8009883a 	mov	r4,r16
 1003614:	880b883a 	mov	r5,r17
 1003618:	180f883a 	mov	r7,r3
 100361c:	100d883a 	mov	r6,r2
 1003620:	1004e080 	call	1004e08 <__adddf3>
 1003624:	bdffffc4 	addi	r23,r23,-1
 1003628:	e7000104 	addi	fp,fp,4
 100362c:	1029883a 	mov	r20,r2
 1003630:	182b883a 	mov	r21,r3
 1003634:	b83fd51e 	bne	r23,zero,100358c <__kernel_rem_pio2+0x1f0>
 1003638:	d9809317 	ldw	r6,588(sp)
 100363c:	a80b883a 	mov	r5,r21
 1003640:	a009883a 	mov	r4,r20
 1003644:	10047740 	call	1004774 <scalbn>
 1003648:	0009883a 	mov	r4,zero
 100364c:	014ff034 	movhi	r5,16320
 1003650:	280f883a 	mov	r7,r5
 1003654:	200d883a 	mov	r6,r4
 1003658:	180b883a 	mov	r5,r3
 100365c:	1009883a 	mov	r4,r2
 1003660:	1021883a 	mov	r16,r2
 1003664:	1823883a 	mov	r17,r3
 1003668:	1004e7c0 	call	1004e7c <__muldf3>
 100366c:	180b883a 	mov	r5,r3
 1003670:	1009883a 	mov	r4,r2
 1003674:	10045500 	call	1004550 <floor>
 1003678:	0011883a 	mov	r8,zero
 100367c:	02700834 	movhi	r9,49184
 1003680:	480f883a 	mov	r7,r9
 1003684:	400d883a 	mov	r6,r8
 1003688:	180b883a 	mov	r5,r3
 100368c:	1009883a 	mov	r4,r2
 1003690:	1004e7c0 	call	1004e7c <__muldf3>
 1003694:	180f883a 	mov	r7,r3
 1003698:	100d883a 	mov	r6,r2
 100369c:	880b883a 	mov	r5,r17
 10036a0:	8009883a 	mov	r4,r16
 10036a4:	1004e080 	call	1004e08 <__adddf3>
 10036a8:	180b883a 	mov	r5,r3
 10036ac:	1009883a 	mov	r4,r2
 10036b0:	1823883a 	mov	r17,r3
 10036b4:	1021883a 	mov	r16,r2
 10036b8:	10058380 	call	1005838 <__fixdfsi>
 10036bc:	1009883a 	mov	r4,r2
 10036c0:	d8809415 	stw	r2,592(sp)
 10036c4:	10057400 	call	1005740 <__floatsidf>
 10036c8:	880b883a 	mov	r5,r17
 10036cc:	8009883a 	mov	r4,r16
 10036d0:	180f883a 	mov	r7,r3
 10036d4:	100d883a 	mov	r6,r2
 10036d8:	1004d880 	call	1004d88 <__subdf3>
 10036dc:	d9c0a017 	ldw	r7,640(sp)
 10036e0:	180d883a 	mov	r6,r3
 10036e4:	1021883a 	mov	r16,r2
 10036e8:	1823883a 	mov	r17,r3
 10036ec:	38017d1e 	bne	r7,zero,1003ce4 <__kernel_rem_pio2+0x948>
 10036f0:	da808d17 	ldw	r10,564(sp)
 10036f4:	d9009317 	ldw	r4,588(sp)
 10036f8:	00c00604 	movi	r3,24
 10036fc:	50bfffc4 	addi	r2,r10,-1
 1003700:	1085883a 	add	r2,r2,r2
 1003704:	1085883a 	add	r2,r2,r2
 1003708:	16c5883a 	add	r2,r2,sp
 100370c:	11400017 	ldw	r5,0(r2)
 1003710:	1907c83a 	sub	r3,r3,r4
 1003714:	d9c09317 	ldw	r7,588(sp)
 1003718:	28cdd83a 	sra	r6,r5,r3
 100371c:	010005c4 	movi	r4,23
 1003720:	da809417 	ldw	r10,592(sp)
 1003724:	30c6983a 	sll	r3,r6,r3
 1003728:	21c9c83a 	sub	r4,r4,r7
 100372c:	5195883a 	add	r10,r10,r6
 1003730:	28cbc83a 	sub	r5,r5,r3
 1003734:	2909d83a 	sra	r4,r5,r4
 1003738:	da809415 	stw	r10,592(sp)
 100373c:	11400015 	stw	r5,0(r2)
 1003740:	d9009215 	stw	r4,584(sp)
 1003744:	d9409217 	ldw	r5,584(sp)
 1003748:	0140270e 	bge	zero,r5,10037e8 <__kernel_rem_pio2+0x44c>
 100374c:	d9809417 	ldw	r6,592(sp)
 1003750:	d9c08d17 	ldw	r7,564(sp)
 1003754:	31800044 	addi	r6,r6,1
 1003758:	d9809415 	stw	r6,592(sp)
 100375c:	01c1a50e 	bge	zero,r7,1003df4 <__kernel_rem_pio2+0xa58>
 1003760:	002d883a 	mov	r22,zero
 1003764:	000b883a 	mov	r5,zero
 1003768:	d809883a 	mov	r4,sp
 100376c:	01c04034 	movhi	r7,256
 1003770:	01804034 	movhi	r6,256
 1003774:	31bfffc4 	addi	r6,r6,-1
 1003778:	00000806 	br	100379c <__kernel_rem_pio2+0x400>
 100377c:	38c5c83a 	sub	r2,r7,r3
 1003780:	18000226 	beq	r3,zero,100378c <__kernel_rem_pio2+0x3f0>
 1003784:	05800044 	movi	r22,1
 1003788:	20800015 	stw	r2,0(r4)
 100378c:	da808d17 	ldw	r10,564(sp)
 1003790:	29400044 	addi	r5,r5,1
 1003794:	21000104 	addi	r4,r4,4
 1003798:	51400926 	beq	r10,r5,10037c0 <__kernel_rem_pio2+0x424>
 100379c:	b004c03a 	cmpne	r2,r22,zero
 10037a0:	20c00017 	ldw	r3,0(r4)
 10037a4:	103ff526 	beq	r2,zero,100377c <__kernel_rem_pio2+0x3e0>
 10037a8:	da808d17 	ldw	r10,564(sp)
 10037ac:	30c5c83a 	sub	r2,r6,r3
 10037b0:	29400044 	addi	r5,r5,1
 10037b4:	20800015 	stw	r2,0(r4)
 10037b8:	21000104 	addi	r4,r4,4
 10037bc:	517ff71e 	bne	r10,r5,100379c <__kernel_rem_pio2+0x400>
 10037c0:	d880a017 	ldw	r2,640(sp)
 10037c4:	1000051e 	bne	r2,zero,10037dc <__kernel_rem_pio2+0x440>
 10037c8:	d8c09317 	ldw	r3,588(sp)
 10037cc:	00800044 	movi	r2,1
 10037d0:	18814e26 	beq	r3,r2,1003d0c <__kernel_rem_pio2+0x970>
 10037d4:	00800084 	movi	r2,2
 10037d8:	18815826 	beq	r3,r2,1003d3c <__kernel_rem_pio2+0x9a0>
 10037dc:	d9c09217 	ldw	r7,584(sp)
 10037e0:	00800084 	movi	r2,2
 10037e4:	38806926 	beq	r7,r2,100398c <__kernel_rem_pio2+0x5f0>
 10037e8:	000d883a 	mov	r6,zero
 10037ec:	000f883a 	mov	r7,zero
 10037f0:	8009883a 	mov	r4,r16
 10037f4:	880b883a 	mov	r5,r17
 10037f8:	10054980 	call	1005498 <__eqdf2>
 10037fc:	1000811e 	bne	r2,zero,1003a04 <__kernel_rem_pio2+0x668>
 1003800:	da808d17 	ldw	r10,564(sp)
 1003804:	d8809517 	ldw	r2,596(sp)
 1003808:	51bfffc4 	addi	r6,r10,-1
 100380c:	30800c16 	blt	r6,r2,1003840 <__kernel_rem_pio2+0x4a4>
 1003810:	3185883a 	add	r2,r6,r6
 1003814:	1085883a 	add	r2,r2,r2
 1003818:	16c9883a 	add	r4,r2,sp
 100381c:	3007883a 	mov	r3,r6
 1003820:	000b883a 	mov	r5,zero
 1003824:	20800017 	ldw	r2,0(r4)
 1003828:	d9c09517 	ldw	r7,596(sp)
 100382c:	18ffffc4 	addi	r3,r3,-1
 1003830:	213fff04 	addi	r4,r4,-4
 1003834:	288ab03a 	or	r5,r5,r2
 1003838:	19fffa0e 	bge	r3,r7,1003824 <__kernel_rem_pio2+0x488>
 100383c:	2800791e 	bne	r5,zero,1003a24 <__kernel_rem_pio2+0x688>
 1003840:	da809917 	ldw	r10,612(sp)
 1003844:	50bfff17 	ldw	r2,-4(r10)
 1003848:	1001511e 	bne	r2,zero,1003d90 <__kernel_rem_pio2+0x9f4>
 100384c:	d880a117 	ldw	r2,644(sp)
 1003850:	01000044 	movi	r4,1
 1003854:	10ffff04 	addi	r3,r2,-4
 1003858:	18ffff04 	addi	r3,r3,-4
 100385c:	18800017 	ldw	r2,0(r3)
 1003860:	21000044 	addi	r4,r4,1
 1003864:	103ffc26 	beq	r2,zero,1003858 <__kernel_rem_pio2+0x4bc>
 1003868:	d8c08d17 	ldw	r3,564(sp)
 100386c:	192f883a 	add	r23,r3,r4
 1003870:	1f000044 	addi	fp,r3,1
 1003874:	bf00020e 	bge	r23,fp,1003880 <__kernel_rem_pio2+0x4e4>
 1003878:	ddc08d15 	stw	r23,564(sp)
 100387c:	003f3a06 	br	1003568 <__kernel_rem_pio2+0x1cc>
 1003880:	d9408c17 	ldw	r5,560(sp)
 1003884:	d9009817 	ldw	r4,608(sp)
 1003888:	da80ae17 	ldw	r10,696(sp)
 100388c:	1945883a 	add	r2,r3,r5
 1003890:	190f883a 	add	r7,r3,r4
 1003894:	1085883a 	add	r2,r2,r2
 1003898:	380a90fa 	slli	r5,r7,3
 100389c:	e00c90fa 	slli	r6,fp,3
 10038a0:	1085883a 	add	r2,r2,r2
 10038a4:	5085883a 	add	r2,r10,r2
 10038a8:	d8c01404 	addi	r3,sp,80
 10038ac:	d9006404 	addi	r4,sp,400
 10038b0:	10800104 	addi	r2,r2,4
 10038b4:	196b883a 	add	r21,r3,r5
 10038b8:	21a1883a 	add	r16,r4,r6
 10038bc:	d8809115 	stw	r2,580(sp)
 10038c0:	d9c09015 	stw	r7,576(sp)
 10038c4:	d8809117 	ldw	r2,580(sp)
 10038c8:	11000017 	ldw	r4,0(r2)
 10038cc:	10057400 	call	1005740 <__floatsidf>
 10038d0:	a8c00115 	stw	r3,4(r21)
 10038d4:	d8c0a217 	ldw	r3,648(sp)
 10038d8:	a8800015 	stw	r2,0(r21)
 10038dc:	18002826 	beq	r3,zero,1003980 <__kernel_rem_pio2+0x5e4>
 10038e0:	d9009017 	ldw	r4,576(sp)
 10038e4:	dd009617 	ldw	r20,600(sp)
 10038e8:	0023883a 	mov	r17,zero
 10038ec:	200490fa 	slli	r2,r4,3
 10038f0:	002d883a 	mov	r22,zero
 10038f4:	0025883a 	mov	r18,zero
 10038f8:	16e7883a 	add	r19,r2,sp
 10038fc:	98801417 	ldw	r2,80(r19)
 1003900:	98c01517 	ldw	r3,84(r19)
 1003904:	a1800017 	ldw	r6,0(r20)
 1003908:	a1c00117 	ldw	r7,4(r20)
 100390c:	180b883a 	mov	r5,r3
 1003910:	1009883a 	mov	r4,r2
 1003914:	1004e7c0 	call	1004e7c <__muldf3>
 1003918:	180f883a 	mov	r7,r3
 100391c:	900b883a 	mov	r5,r18
 1003920:	8809883a 	mov	r4,r17
 1003924:	100d883a 	mov	r6,r2
 1003928:	1004e080 	call	1004e08 <__adddf3>
 100392c:	d9409817 	ldw	r5,608(sp)
 1003930:	b5800044 	addi	r22,r22,1
 1003934:	9cfffe04 	addi	r19,r19,-8
 1003938:	1023883a 	mov	r17,r2
 100393c:	1825883a 	mov	r18,r3
 1003940:	a5000204 	addi	r20,r20,8
 1003944:	2dbfed1e 	bne	r5,r22,10038fc <__kernel_rem_pio2+0x560>
 1003948:	d9809117 	ldw	r6,580(sp)
 100394c:	d9c09017 	ldw	r7,576(sp)
 1003950:	e7000044 	addi	fp,fp,1
 1003954:	31800104 	addi	r6,r6,4
 1003958:	39c00044 	addi	r7,r7,1
 100395c:	84800115 	stw	r18,4(r16)
 1003960:	84400015 	stw	r17,0(r16)
 1003964:	d9809115 	stw	r6,580(sp)
 1003968:	ad400204 	addi	r21,r21,8
 100396c:	84000204 	addi	r16,r16,8
 1003970:	d9c09015 	stw	r7,576(sp)
 1003974:	bf3fd30e 	bge	r23,fp,10038c4 <__kernel_rem_pio2+0x528>
 1003978:	ddc08d15 	stw	r23,564(sp)
 100397c:	003efa06 	br	1003568 <__kernel_rem_pio2+0x1cc>
 1003980:	0023883a 	mov	r17,zero
 1003984:	0025883a 	mov	r18,zero
 1003988:	003fef06 	br	1003948 <__kernel_rem_pio2+0x5ac>
 100398c:	0029883a 	mov	r20,zero
 1003990:	054ffc34 	movhi	r21,16368
 1003994:	880f883a 	mov	r7,r17
 1003998:	800d883a 	mov	r6,r16
 100399c:	a009883a 	mov	r4,r20
 10039a0:	a80b883a 	mov	r5,r21
 10039a4:	1004d880 	call	1004d88 <__subdf3>
 10039a8:	1025883a 	mov	r18,r2
 10039ac:	b005003a 	cmpeq	r2,r22,zero
 10039b0:	1827883a 	mov	r19,r3
 10039b4:	9021883a 	mov	r16,r18
 10039b8:	1823883a 	mov	r17,r3
 10039bc:	103f8a1e 	bne	r2,zero,10037e8 <__kernel_rem_pio2+0x44c>
 10039c0:	d9809317 	ldw	r6,588(sp)
 10039c4:	0009883a 	mov	r4,zero
 10039c8:	a80b883a 	mov	r5,r21
 10039cc:	10047740 	call	1004774 <scalbn>
 10039d0:	180f883a 	mov	r7,r3
 10039d4:	9009883a 	mov	r4,r18
 10039d8:	980b883a 	mov	r5,r19
 10039dc:	100d883a 	mov	r6,r2
 10039e0:	1004d880 	call	1004d88 <__subdf3>
 10039e4:	1021883a 	mov	r16,r2
 10039e8:	1823883a 	mov	r17,r3
 10039ec:	000d883a 	mov	r6,zero
 10039f0:	000f883a 	mov	r7,zero
 10039f4:	8009883a 	mov	r4,r16
 10039f8:	880b883a 	mov	r5,r17
 10039fc:	10054980 	call	1005498 <__eqdf2>
 1003a00:	103f7f26 	beq	r2,zero,1003800 <__kernel_rem_pio2+0x464>
 1003a04:	000d883a 	mov	r6,zero
 1003a08:	000f883a 	mov	r7,zero
 1003a0c:	8009883a 	mov	r4,r16
 1003a10:	880b883a 	mov	r5,r17
 1003a14:	10054980 	call	1005498 <__eqdf2>
 1003a18:	10019a1e 	bne	r2,zero,1004084 <__kernel_rem_pio2+0xce8>
 1003a1c:	da808d17 	ldw	r10,564(sp)
 1003a20:	51bfffc4 	addi	r6,r10,-1
 1003a24:	3185883a 	add	r2,r6,r6
 1003a28:	1085883a 	add	r2,r2,r2
 1003a2c:	d9009317 	ldw	r4,588(sp)
 1003a30:	16c5883a 	add	r2,r2,sp
 1003a34:	10c00017 	ldw	r3,0(r2)
 1003a38:	213ffa04 	addi	r4,r4,-24
 1003a3c:	d9009315 	stw	r4,588(sp)
 1003a40:	1801d41e 	bne	r3,zero,1004194 <__kernel_rem_pio2+0xdf8>
 1003a44:	d9808d15 	stw	r6,564(sp)
 1003a48:	1007883a 	mov	r3,r2
 1003a4c:	d9408d17 	ldw	r5,564(sp)
 1003a50:	d9809317 	ldw	r6,588(sp)
 1003a54:	18ffff04 	addi	r3,r3,-4
 1003a58:	18800017 	ldw	r2,0(r3)
 1003a5c:	297fffc4 	addi	r5,r5,-1
 1003a60:	31bffa04 	addi	r6,r6,-24
 1003a64:	d9408d15 	stw	r5,564(sp)
 1003a68:	d9809315 	stw	r6,588(sp)
 1003a6c:	103ff726 	beq	r2,zero,1003a4c <__kernel_rem_pio2+0x6b0>
 1003a70:	d9809317 	ldw	r6,588(sp)
 1003a74:	0005883a 	mov	r2,zero
 1003a78:	00cffc34 	movhi	r3,16368
 1003a7c:	180b883a 	mov	r5,r3
 1003a80:	1009883a 	mov	r4,r2
 1003a84:	10047740 	call	1004774 <scalbn>
 1003a88:	d9808d17 	ldw	r6,564(sp)
 1003a8c:	1021883a 	mov	r16,r2
 1003a90:	1823883a 	mov	r17,r3
 1003a94:	30004616 	blt	r6,zero,1003bb0 <__kernel_rem_pio2+0x814>
 1003a98:	300690fa 	slli	r3,r6,3
 1003a9c:	3185883a 	add	r2,r6,r6
 1003aa0:	1085883a 	add	r2,r2,r2
 1003aa4:	16e9883a 	add	r20,r2,sp
 1003aa8:	1ee5883a 	add	r18,r3,sp
 1003aac:	3027883a 	mov	r19,r6
 1003ab0:	057fffc4 	movi	r21,-1
 1003ab4:	a1000017 	ldw	r4,0(r20)
 1003ab8:	9cffffc4 	addi	r19,r19,-1
 1003abc:	a53fff04 	addi	r20,r20,-4
 1003ac0:	10057400 	call	1005740 <__floatsidf>
 1003ac4:	800d883a 	mov	r6,r16
 1003ac8:	880f883a 	mov	r7,r17
 1003acc:	180b883a 	mov	r5,r3
 1003ad0:	1009883a 	mov	r4,r2
 1003ad4:	1004e7c0 	call	1004e7c <__muldf3>
 1003ad8:	0015883a 	mov	r10,zero
 1003adc:	02cf9c34 	movhi	r11,15984
 1003ae0:	880b883a 	mov	r5,r17
 1003ae4:	8009883a 	mov	r4,r16
 1003ae8:	90c06515 	stw	r3,404(r18)
 1003aec:	90806415 	stw	r2,400(r18)
 1003af0:	580f883a 	mov	r7,r11
 1003af4:	500d883a 	mov	r6,r10
 1003af8:	1004e7c0 	call	1004e7c <__muldf3>
 1003afc:	1021883a 	mov	r16,r2
 1003b00:	1823883a 	mov	r17,r3
 1003b04:	94bffe04 	addi	r18,r18,-8
 1003b08:	9d7fea1e 	bne	r19,r21,1003ab4 <__kernel_rem_pio2+0x718>
 1003b0c:	d9c09517 	ldw	r7,596(sp)
 1003b10:	dd808d17 	ldw	r22,564(sp)
 1003b14:	002b883a 	mov	r21,zero
 1003b18:	382e403a 	cmpge	r23,r7,zero
 1003b1c:	b800aa26 	beq	r23,zero,1003dc8 <__kernel_rem_pio2+0xa2c>
 1003b20:	a800a916 	blt	r21,zero,1003dc8 <__kernel_rem_pio2+0xa2c>
 1003b24:	b00690fa 	slli	r3,r22,3
 1003b28:	d8806404 	addi	r2,sp,400
 1003b2c:	0021883a 	mov	r16,zero
 1003b30:	10e9883a 	add	r20,r2,r3
 1003b34:	0027883a 	mov	r19,zero
 1003b38:	0023883a 	mov	r17,zero
 1003b3c:	04804134 	movhi	r18,260
 1003b40:	9499aa04 	addi	r18,r18,26280
 1003b44:	00000106 	br	1003b4c <__kernel_rem_pio2+0x7b0>
 1003b48:	acc01116 	blt	r21,r19,1003b90 <__kernel_rem_pio2+0x7f4>
 1003b4c:	91000017 	ldw	r4,0(r18)
 1003b50:	91400117 	ldw	r5,4(r18)
 1003b54:	a1800017 	ldw	r6,0(r20)
 1003b58:	a1c00117 	ldw	r7,4(r20)
 1003b5c:	9cc00044 	addi	r19,r19,1
 1003b60:	94800204 	addi	r18,r18,8
 1003b64:	1004e7c0 	call	1004e7c <__muldf3>
 1003b68:	180f883a 	mov	r7,r3
 1003b6c:	880b883a 	mov	r5,r17
 1003b70:	8009883a 	mov	r4,r16
 1003b74:	100d883a 	mov	r6,r2
 1003b78:	1004e080 	call	1004e08 <__adddf3>
 1003b7c:	da809517 	ldw	r10,596(sp)
 1003b80:	a5000204 	addi	r20,r20,8
 1003b84:	1021883a 	mov	r16,r2
 1003b88:	1823883a 	mov	r17,r3
 1003b8c:	54ffee0e 	bge	r10,r19,1003b48 <__kernel_rem_pio2+0x7ac>
 1003b90:	a80490fa 	slli	r2,r21,3
 1003b94:	b5bfffc4 	addi	r22,r22,-1
 1003b98:	ad400044 	addi	r21,r21,1
 1003b9c:	16c5883a 	add	r2,r2,sp
 1003ba0:	14403d15 	stw	r17,244(r2)
 1003ba4:	14003c15 	stw	r16,240(r2)
 1003ba8:	00bfffc4 	movi	r2,-1
 1003bac:	b0bfdb1e 	bne	r22,r2,1003b1c <__kernel_rem_pio2+0x780>
 1003bb0:	d8c0ad17 	ldw	r3,692(sp)
 1003bb4:	00800084 	movi	r2,2
 1003bb8:	10c09316 	blt	r2,r3,1003e08 <__kernel_rem_pio2+0xa6c>
 1003bbc:	00c1120e 	bge	zero,r3,1004008 <__kernel_rem_pio2+0xc6c>
 1003bc0:	d9808d17 	ldw	r6,564(sp)
 1003bc4:	30018d16 	blt	r6,zero,10041fc <__kernel_rem_pio2+0xe60>
 1003bc8:	d8c08d17 	ldw	r3,564(sp)
 1003bcc:	0011883a 	mov	r8,zero
 1003bd0:	0013883a 	mov	r9,zero
 1003bd4:	180490fa 	slli	r2,r3,3
 1003bd8:	1823883a 	mov	r17,r3
 1003bdc:	04bfffc4 	movi	r18,-1
 1003be0:	16e1883a 	add	r16,r2,sp
 1003be4:	80803c17 	ldw	r2,240(r16)
 1003be8:	80c03d17 	ldw	r3,244(r16)
 1003bec:	480b883a 	mov	r5,r9
 1003bf0:	4009883a 	mov	r4,r8
 1003bf4:	180f883a 	mov	r7,r3
 1003bf8:	100d883a 	mov	r6,r2
 1003bfc:	1004e080 	call	1004e08 <__adddf3>
 1003c00:	8c7fffc4 	addi	r17,r17,-1
 1003c04:	843ffe04 	addi	r16,r16,-8
 1003c08:	1011883a 	mov	r8,r2
 1003c0c:	1813883a 	mov	r9,r3
 1003c10:	8cbff41e 	bne	r17,r18,1003be4 <__kernel_rem_pio2+0x848>
 1003c14:	d9009217 	ldw	r4,584(sp)
 1003c18:	20015b1e 	bne	r4,zero,1004188 <__kernel_rem_pio2+0xdec>
 1003c1c:	4009883a 	mov	r4,r8
 1003c20:	480b883a 	mov	r5,r9
 1003c24:	d9809717 	ldw	r6,604(sp)
 1003c28:	d8803c17 	ldw	r2,240(sp)
 1003c2c:	480f883a 	mov	r7,r9
 1003c30:	31400115 	stw	r5,4(r6)
 1003c34:	31000015 	stw	r4,0(r6)
 1003c38:	d8c03d17 	ldw	r3,244(sp)
 1003c3c:	400d883a 	mov	r6,r8
 1003c40:	1009883a 	mov	r4,r2
 1003c44:	180b883a 	mov	r5,r3
 1003c48:	1004d880 	call	1004d88 <__subdf3>
 1003c4c:	d9c08d17 	ldw	r7,564(sp)
 1003c50:	1011883a 	mov	r8,r2
 1003c54:	1813883a 	mov	r9,r3
 1003c58:	01c00d0e 	bge	zero,r7,1003c90 <__kernel_rem_pio2+0x8f4>
 1003c5c:	0023883a 	mov	r17,zero
 1003c60:	dc003e04 	addi	r16,sp,248
 1003c64:	81800017 	ldw	r6,0(r16)
 1003c68:	81c00117 	ldw	r7,4(r16)
 1003c6c:	480b883a 	mov	r5,r9
 1003c70:	4009883a 	mov	r4,r8
 1003c74:	1004e080 	call	1004e08 <__adddf3>
 1003c78:	da808d17 	ldw	r10,564(sp)
 1003c7c:	8c400044 	addi	r17,r17,1
 1003c80:	1011883a 	mov	r8,r2
 1003c84:	1813883a 	mov	r9,r3
 1003c88:	84000204 	addi	r16,r16,8
 1003c8c:	8abff51e 	bne	r17,r10,1003c64 <__kernel_rem_pio2+0x8c8>
 1003c90:	d8809217 	ldw	r2,584(sp)
 1003c94:	10000226 	beq	r2,zero,1003ca0 <__kernel_rem_pio2+0x904>
 1003c98:	48e0003c 	xorhi	r3,r9,32768
 1003c9c:	1813883a 	mov	r9,r3
 1003ca0:	d8c09717 	ldw	r3,604(sp)
 1003ca4:	1a400315 	stw	r9,12(r3)
 1003ca8:	1a000215 	stw	r8,8(r3)
 1003cac:	d8c09417 	ldw	r3,592(sp)
 1003cb0:	188001cc 	andi	r2,r3,7
 1003cb4:	dfc0ac17 	ldw	ra,688(sp)
 1003cb8:	df00ab17 	ldw	fp,684(sp)
 1003cbc:	ddc0aa17 	ldw	r23,680(sp)
 1003cc0:	dd80a917 	ldw	r22,676(sp)
 1003cc4:	dd40a817 	ldw	r21,672(sp)
 1003cc8:	dd00a717 	ldw	r20,668(sp)
 1003ccc:	dcc0a617 	ldw	r19,664(sp)
 1003cd0:	dc80a517 	ldw	r18,660(sp)
 1003cd4:	dc40a417 	ldw	r17,656(sp)
 1003cd8:	dc00a317 	ldw	r16,652(sp)
 1003cdc:	dec0ad04 	addi	sp,sp,692
 1003ce0:	f800283a 	ret
 1003ce4:	d8809317 	ldw	r2,588(sp)
 1003ce8:	10001f1e 	bne	r2,zero,1003d68 <__kernel_rem_pio2+0x9cc>
 1003cec:	d8c08d17 	ldw	r3,564(sp)
 1003cf0:	18c5883a 	add	r2,r3,r3
 1003cf4:	1085883a 	add	r2,r2,r2
 1003cf8:	16c5883a 	add	r2,r2,sp
 1003cfc:	10ffff17 	ldw	r3,-4(r2)
 1003d00:	1807d5fa 	srai	r3,r3,23
 1003d04:	d8c09215 	stw	r3,584(sp)
 1003d08:	003e8e06 	br	1003744 <__kernel_rem_pio2+0x3a8>
 1003d0c:	d9008d17 	ldw	r4,564(sp)
 1003d10:	d9409317 	ldw	r5,588(sp)
 1003d14:	2145c83a 	sub	r2,r4,r5
 1003d18:	1085883a 	add	r2,r2,r2
 1003d1c:	1085883a 	add	r2,r2,r2
 1003d20:	16c5883a 	add	r2,r2,sp
 1003d24:	10c00017 	ldw	r3,0(r2)
 1003d28:	01002034 	movhi	r4,128
 1003d2c:	213fffc4 	addi	r4,r4,-1
 1003d30:	1906703a 	and	r3,r3,r4
 1003d34:	10c00015 	stw	r3,0(r2)
 1003d38:	003ea806 	br	10037dc <__kernel_rem_pio2+0x440>
 1003d3c:	d9808d17 	ldw	r6,564(sp)
 1003d40:	01001034 	movhi	r4,64
 1003d44:	213fffc4 	addi	r4,r4,-1
 1003d48:	30bfffc4 	addi	r2,r6,-1
 1003d4c:	1085883a 	add	r2,r2,r2
 1003d50:	1085883a 	add	r2,r2,r2
 1003d54:	16c5883a 	add	r2,r2,sp
 1003d58:	10c00017 	ldw	r3,0(r2)
 1003d5c:	1906703a 	and	r3,r3,r4
 1003d60:	10c00015 	stw	r3,0(r2)
 1003d64:	003e9d06 	br	10037dc <__kernel_rem_pio2+0x440>
 1003d68:	0005883a 	mov	r2,zero
 1003d6c:	00cff834 	movhi	r3,16352
 1003d70:	300b883a 	mov	r5,r6
 1003d74:	180f883a 	mov	r7,r3
 1003d78:	8009883a 	mov	r4,r16
 1003d7c:	100d883a 	mov	r6,r2
 1003d80:	10055a80 	call	10055a8 <__gedf2>
 1003d84:	10001d0e 	bge	r2,zero,1003dfc <__kernel_rem_pio2+0xa60>
 1003d88:	d8009215 	stw	zero,584(sp)
 1003d8c:	003e9606 	br	10037e8 <__kernel_rem_pio2+0x44c>
 1003d90:	d8c08d17 	ldw	r3,564(sp)
 1003d94:	01000044 	movi	r4,1
 1003d98:	192f883a 	add	r23,r3,r4
 1003d9c:	1f000044 	addi	fp,r3,1
 1003da0:	bf3eb516 	blt	r23,fp,1003878 <__kernel_rem_pio2+0x4dc>
 1003da4:	003eb606 	br	1003880 <__kernel_rem_pio2+0x4e4>
 1003da8:	0021883a 	mov	r16,zero
 1003dac:	0023883a 	mov	r17,zero
 1003db0:	a5000044 	addi	r20,r20,1
 1003db4:	ac400115 	stw	r17,4(r21)
 1003db8:	ac000015 	stw	r16,0(r21)
 1003dbc:	ad400204 	addi	r21,r21,8
 1003dc0:	a5fdba1e 	bne	r20,r23,10034ac <__kernel_rem_pio2+0x110>
 1003dc4:	003dd806 	br	1003528 <__kernel_rem_pio2+0x18c>
 1003dc8:	a80490fa 	slli	r2,r21,3
 1003dcc:	0021883a 	mov	r16,zero
 1003dd0:	0023883a 	mov	r17,zero
 1003dd4:	16c5883a 	add	r2,r2,sp
 1003dd8:	14403d15 	stw	r17,244(r2)
 1003ddc:	14003c15 	stw	r16,240(r2)
 1003de0:	b5bfffc4 	addi	r22,r22,-1
 1003de4:	00bfffc4 	movi	r2,-1
 1003de8:	ad400044 	addi	r21,r21,1
 1003dec:	b0bf4b1e 	bne	r22,r2,1003b1c <__kernel_rem_pio2+0x780>
 1003df0:	003f6f06 	br	1003bb0 <__kernel_rem_pio2+0x814>
 1003df4:	002d883a 	mov	r22,zero
 1003df8:	003e7106 	br	10037c0 <__kernel_rem_pio2+0x424>
 1003dfc:	01000084 	movi	r4,2
 1003e00:	d9009215 	stw	r4,584(sp)
 1003e04:	003e5106 	br	100374c <__kernel_rem_pio2+0x3b0>
 1003e08:	d900ad17 	ldw	r4,692(sp)
 1003e0c:	008000c4 	movi	r2,3
 1003e10:	20bfa61e 	bne	r4,r2,1003cac <__kernel_rem_pio2+0x910>
 1003e14:	d9c08d17 	ldw	r7,564(sp)
 1003e18:	01c02c0e 	bge	zero,r7,1003ecc <__kernel_rem_pio2+0xb30>
 1003e1c:	3805883a 	mov	r2,r7
 1003e20:	00000106 	br	1003e28 <__kernel_rem_pio2+0xa8c>
 1003e24:	d8808e17 	ldw	r2,568(sp)
 1003e28:	113fffc4 	addi	r4,r2,-1
 1003e2c:	100690fa 	slli	r3,r2,3
 1003e30:	200490fa 	slli	r2,r4,3
 1003e34:	d9008e15 	stw	r4,568(sp)
 1003e38:	1ef9883a 	add	fp,r3,sp
 1003e3c:	16c5883a 	add	r2,r2,sp
 1003e40:	d8809a15 	stw	r2,616(sp)
 1003e44:	11403c04 	addi	r5,r2,240
 1003e48:	e1803c04 	addi	r6,fp,240
 1003e4c:	14003c17 	ldw	r16,240(r2)
 1003e50:	e5003c17 	ldw	r20,240(fp)
 1003e54:	d9409b15 	stw	r5,620(sp)
 1003e58:	d9809c15 	stw	r6,624(sp)
 1003e5c:	35400117 	ldw	r21,4(r6)
 1003e60:	2c400117 	ldw	r17,4(r5)
 1003e64:	8009883a 	mov	r4,r16
 1003e68:	a00d883a 	mov	r6,r20
 1003e6c:	880b883a 	mov	r5,r17
 1003e70:	a80f883a 	mov	r7,r21
 1003e74:	1004e080 	call	1004e08 <__adddf3>
 1003e78:	100d883a 	mov	r6,r2
 1003e7c:	880b883a 	mov	r5,r17
 1003e80:	8009883a 	mov	r4,r16
 1003e84:	180f883a 	mov	r7,r3
 1003e88:	1025883a 	mov	r18,r2
 1003e8c:	1827883a 	mov	r19,r3
 1003e90:	1004d880 	call	1004d88 <__subdf3>
 1003e94:	180f883a 	mov	r7,r3
 1003e98:	a80b883a 	mov	r5,r21
 1003e9c:	a009883a 	mov	r4,r20
 1003ea0:	100d883a 	mov	r6,r2
 1003ea4:	1004e080 	call	1004e08 <__adddf3>
 1003ea8:	e0803c15 	stw	r2,240(fp)
 1003eac:	d9c09c17 	ldw	r7,624(sp)
 1003eb0:	38c00115 	stw	r3,4(r7)
 1003eb4:	da809a17 	ldw	r10,616(sp)
 1003eb8:	54803c15 	stw	r18,240(r10)
 1003ebc:	d8809b17 	ldw	r2,620(sp)
 1003ec0:	14c00115 	stw	r19,4(r2)
 1003ec4:	d8c08e17 	ldw	r3,568(sp)
 1003ec8:	183fd61e 	bne	r3,zero,1003e24 <__kernel_rem_pio2+0xa88>
 1003ecc:	d9008d17 	ldw	r4,564(sp)
 1003ed0:	00800044 	movi	r2,1
 1003ed4:	1100cc0e 	bge	r2,r4,1004208 <__kernel_rem_pio2+0xe6c>
 1003ed8:	d8808d17 	ldw	r2,564(sp)
 1003edc:	117fffc4 	addi	r5,r2,-1
 1003ee0:	100690fa 	slli	r3,r2,3
 1003ee4:	280490fa 	slli	r2,r5,3
 1003ee8:	d9408f15 	stw	r5,572(sp)
 1003eec:	1ef9883a 	add	fp,r3,sp
 1003ef0:	16c5883a 	add	r2,r2,sp
 1003ef4:	d8809d15 	stw	r2,628(sp)
 1003ef8:	11803c04 	addi	r6,r2,240
 1003efc:	e1c03c04 	addi	r7,fp,240
 1003f00:	14003c17 	ldw	r16,240(r2)
 1003f04:	e5003c17 	ldw	r20,240(fp)
 1003f08:	d9809e15 	stw	r6,632(sp)
 1003f0c:	d9c09f15 	stw	r7,636(sp)
 1003f10:	34400117 	ldw	r17,4(r6)
 1003f14:	3d400117 	ldw	r21,4(r7)
 1003f18:	8009883a 	mov	r4,r16
 1003f1c:	880b883a 	mov	r5,r17
 1003f20:	a00d883a 	mov	r6,r20
 1003f24:	a80f883a 	mov	r7,r21
 1003f28:	1004e080 	call	1004e08 <__adddf3>
 1003f2c:	100d883a 	mov	r6,r2
 1003f30:	880b883a 	mov	r5,r17
 1003f34:	8009883a 	mov	r4,r16
 1003f38:	180f883a 	mov	r7,r3
 1003f3c:	1025883a 	mov	r18,r2
 1003f40:	1827883a 	mov	r19,r3
 1003f44:	1004d880 	call	1004d88 <__subdf3>
 1003f48:	180f883a 	mov	r7,r3
 1003f4c:	a80b883a 	mov	r5,r21
 1003f50:	a009883a 	mov	r4,r20
 1003f54:	100d883a 	mov	r6,r2
 1003f58:	1004e080 	call	1004e08 <__adddf3>
 1003f5c:	e0803c15 	stw	r2,240(fp)
 1003f60:	da809f17 	ldw	r10,636(sp)
 1003f64:	50c00115 	stw	r3,4(r10)
 1003f68:	d8c09d17 	ldw	r3,628(sp)
 1003f6c:	d8808f17 	ldw	r2,572(sp)
 1003f70:	1c803c15 	stw	r18,240(r3)
 1003f74:	d9009e17 	ldw	r4,632(sp)
 1003f78:	00c00044 	movi	r3,1
 1003f7c:	24c00115 	stw	r19,4(r4)
 1003f80:	d9408f17 	ldw	r5,572(sp)
 1003f84:	28ffd51e 	bne	r5,r3,1003edc <__kernel_rem_pio2+0xb40>
 1003f88:	dc008d17 	ldw	r16,564(sp)
 1003f8c:	0011883a 	mov	r8,zero
 1003f90:	1825883a 	mov	r18,r3
 1003f94:	800490fa 	slli	r2,r16,3
 1003f98:	0013883a 	mov	r9,zero
 1003f9c:	16e3883a 	add	r17,r2,sp
 1003fa0:	88803c17 	ldw	r2,240(r17)
 1003fa4:	88c03d17 	ldw	r3,244(r17)
 1003fa8:	480b883a 	mov	r5,r9
 1003fac:	4009883a 	mov	r4,r8
 1003fb0:	180f883a 	mov	r7,r3
 1003fb4:	100d883a 	mov	r6,r2
 1003fb8:	1004e080 	call	1004e08 <__adddf3>
 1003fbc:	843fffc4 	addi	r16,r16,-1
 1003fc0:	8c7ffe04 	addi	r17,r17,-8
 1003fc4:	1011883a 	mov	r8,r2
 1003fc8:	1813883a 	mov	r9,r3
 1003fcc:	84bff41e 	bne	r16,r18,1003fa0 <__kernel_rem_pio2+0xc04>
 1003fd0:	d9809217 	ldw	r6,584(sp)
 1003fd4:	30007a1e 	bne	r6,zero,10041c0 <__kernel_rem_pio2+0xe24>
 1003fd8:	d9c09717 	ldw	r7,604(sp)
 1003fdc:	d8803c17 	ldw	r2,240(sp)
 1003fe0:	d9003e17 	ldw	r4,248(sp)
 1003fe4:	3a400515 	stw	r9,20(r7)
 1003fe8:	d8c03d17 	ldw	r3,244(sp)
 1003fec:	d9403f17 	ldw	r5,252(sp)
 1003ff0:	3a000415 	stw	r8,16(r7)
 1003ff4:	38c00115 	stw	r3,4(r7)
 1003ff8:	39400315 	stw	r5,12(r7)
 1003ffc:	38800015 	stw	r2,0(r7)
 1004000:	39000215 	stw	r4,8(r7)
 1004004:	003f2906 	br	1003cac <__kernel_rem_pio2+0x910>
 1004008:	183f281e 	bne	r3,zero,1003cac <__kernel_rem_pio2+0x910>
 100400c:	d9408d17 	ldw	r5,564(sp)
 1004010:	28008016 	blt	r5,zero,1004214 <__kernel_rem_pio2+0xe78>
 1004014:	dc008d17 	ldw	r16,564(sp)
 1004018:	000d883a 	mov	r6,zero
 100401c:	000f883a 	mov	r7,zero
 1004020:	800490fa 	slli	r2,r16,3
 1004024:	04bfffc4 	movi	r18,-1
 1004028:	16e3883a 	add	r17,r2,sp
 100402c:	88803c17 	ldw	r2,240(r17)
 1004030:	88c03d17 	ldw	r3,244(r17)
 1004034:	380b883a 	mov	r5,r7
 1004038:	3009883a 	mov	r4,r6
 100403c:	180f883a 	mov	r7,r3
 1004040:	100d883a 	mov	r6,r2
 1004044:	1004e080 	call	1004e08 <__adddf3>
 1004048:	843fffc4 	addi	r16,r16,-1
 100404c:	8c7ffe04 	addi	r17,r17,-8
 1004050:	100d883a 	mov	r6,r2
 1004054:	180f883a 	mov	r7,r3
 1004058:	84bff41e 	bne	r16,r18,100402c <__kernel_rem_pio2+0xc90>
 100405c:	da809217 	ldw	r10,584(sp)
 1004060:	50000226 	beq	r10,zero,100406c <__kernel_rem_pio2+0xcd0>
 1004064:	38e0003c 	xorhi	r3,r7,32768
 1004068:	180f883a 	mov	r7,r3
 100406c:	d8809717 	ldw	r2,604(sp)
 1004070:	11c00115 	stw	r7,4(r2)
 1004074:	11800015 	stw	r6,0(r2)
 1004078:	003f0c06 	br	1003cac <__kernel_rem_pio2+0x910>
 100407c:	d8008c15 	stw	zero,560(sp)
 1004080:	003ce406 	br	1003414 <__kernel_rem_pio2+0x78>
 1004084:	d9c09317 	ldw	r7,588(sp)
 1004088:	880b883a 	mov	r5,r17
 100408c:	8009883a 	mov	r4,r16
 1004090:	01cdc83a 	sub	r6,zero,r7
 1004094:	10047740 	call	1004774 <scalbn>
 1004098:	0011883a 	mov	r8,zero
 100409c:	02505c34 	movhi	r9,16752
 10040a0:	480f883a 	mov	r7,r9
 10040a4:	1009883a 	mov	r4,r2
 10040a8:	180b883a 	mov	r5,r3
 10040ac:	400d883a 	mov	r6,r8
 10040b0:	102d883a 	mov	r22,r2
 10040b4:	182f883a 	mov	r23,r3
 10040b8:	10055a80 	call	10055a8 <__gedf2>
 10040bc:	10003716 	blt	r2,zero,100419c <__kernel_rem_pio2+0xe00>
 10040c0:	0005883a 	mov	r2,zero
 10040c4:	00cf9c34 	movhi	r3,15984
 10040c8:	180f883a 	mov	r7,r3
 10040cc:	100d883a 	mov	r6,r2
 10040d0:	b009883a 	mov	r4,r22
 10040d4:	b80b883a 	mov	r5,r23
 10040d8:	1004e7c0 	call	1004e7c <__muldf3>
 10040dc:	180b883a 	mov	r5,r3
 10040e0:	1009883a 	mov	r4,r2
 10040e4:	10058380 	call	1005838 <__fixdfsi>
 10040e8:	1009883a 	mov	r4,r2
 10040ec:	10057400 	call	1005740 <__floatsidf>
 10040f0:	da808d17 	ldw	r10,564(sp)
 10040f4:	1023883a 	mov	r17,r2
 10040f8:	1825883a 	mov	r18,r3
 10040fc:	0005883a 	mov	r2,zero
 1004100:	00f05c34 	movhi	r3,49520
 1004104:	180f883a 	mov	r7,r3
 1004108:	8809883a 	mov	r4,r17
 100410c:	900b883a 	mov	r5,r18
 1004110:	100d883a 	mov	r6,r2
 1004114:	52ab883a 	add	r21,r10,r10
 1004118:	1004e7c0 	call	1004e7c <__muldf3>
 100411c:	180f883a 	mov	r7,r3
 1004120:	b80b883a 	mov	r5,r23
 1004124:	100d883a 	mov	r6,r2
 1004128:	b009883a 	mov	r4,r22
 100412c:	1004e080 	call	1004e08 <__adddf3>
 1004130:	100d883a 	mov	r6,r2
 1004134:	d8808d17 	ldw	r2,564(sp)
 1004138:	180b883a 	mov	r5,r3
 100413c:	3009883a 	mov	r4,r6
 1004140:	10800044 	addi	r2,r2,1
 1004144:	ad6b883a 	add	r21,r21,r21
 1004148:	d8808d15 	stw	r2,564(sp)
 100414c:	10058380 	call	1005838 <__fixdfsi>
 1004150:	d8c08d17 	ldw	r3,564(sp)
 1004154:	aeeb883a 	add	r21,r21,sp
 1004158:	8809883a 	mov	r4,r17
 100415c:	900b883a 	mov	r5,r18
 1004160:	a8800015 	stw	r2,0(r21)
 1004164:	18e1883a 	add	r16,r3,r3
 1004168:	10058380 	call	1005838 <__fixdfsi>
 100416c:	d9009317 	ldw	r4,588(sp)
 1004170:	8421883a 	add	r16,r16,r16
 1004174:	86e1883a 	add	r16,r16,sp
 1004178:	21000604 	addi	r4,r4,24
 100417c:	d9009315 	stw	r4,588(sp)
 1004180:	80800015 	stw	r2,0(r16)
 1004184:	003e3a06 	br	1003a70 <__kernel_rem_pio2+0x6d4>
 1004188:	4009883a 	mov	r4,r8
 100418c:	4960003c 	xorhi	r5,r9,32768
 1004190:	003ea406 	br	1003c24 <__kernel_rem_pio2+0x888>
 1004194:	d9808d15 	stw	r6,564(sp)
 1004198:	003e3506 	br	1003a70 <__kernel_rem_pio2+0x6d4>
 100419c:	d9408d17 	ldw	r5,564(sp)
 10041a0:	b009883a 	mov	r4,r22
 10041a4:	2961883a 	add	r16,r5,r5
 10041a8:	8421883a 	add	r16,r16,r16
 10041ac:	b80b883a 	mov	r5,r23
 10041b0:	86e1883a 	add	r16,r16,sp
 10041b4:	10058380 	call	1005838 <__fixdfsi>
 10041b8:	80800015 	stw	r2,0(r16)
 10041bc:	003e2c06 	br	1003a70 <__kernel_rem_pio2+0x6d4>
 10041c0:	d8c03d17 	ldw	r3,244(sp)
 10041c4:	d9403f17 	ldw	r5,252(sp)
 10041c8:	da809717 	ldw	r10,604(sp)
 10041cc:	d8803c17 	ldw	r2,240(sp)
 10041d0:	d9003e17 	ldw	r4,248(sp)
 10041d4:	49e0003c 	xorhi	r7,r9,32768
 10041d8:	51c00515 	stw	r7,20(r10)
 10041dc:	19a0003c 	xorhi	r6,r3,32768
 10041e0:	29e0003c 	xorhi	r7,r5,32768
 10041e4:	51800115 	stw	r6,4(r10)
 10041e8:	51c00315 	stw	r7,12(r10)
 10041ec:	50800015 	stw	r2,0(r10)
 10041f0:	51000215 	stw	r4,8(r10)
 10041f4:	52000415 	stw	r8,16(r10)
 10041f8:	003eac06 	br	1003cac <__kernel_rem_pio2+0x910>
 10041fc:	0011883a 	mov	r8,zero
 1004200:	0013883a 	mov	r9,zero
 1004204:	003e8306 	br	1003c14 <__kernel_rem_pio2+0x878>
 1004208:	0011883a 	mov	r8,zero
 100420c:	0013883a 	mov	r9,zero
 1004210:	003f6f06 	br	1003fd0 <__kernel_rem_pio2+0xc34>
 1004214:	000d883a 	mov	r6,zero
 1004218:	000f883a 	mov	r7,zero
 100421c:	003f8f06 	br	100405c <__kernel_rem_pio2+0xcc0>

01004220 <__kernel_sin>:
 1004220:	00a00034 	movhi	r2,32768
 1004224:	10bfffc4 	addi	r2,r2,-1
 1004228:	deffef04 	addi	sp,sp,-68
 100422c:	1144703a 	and	r2,r2,r5
 1004230:	00cf9034 	movhi	r3,15936
 1004234:	18ffffc4 	addi	r3,r3,-1
 1004238:	dd400d15 	stw	r21,52(sp)
 100423c:	dd000c15 	stw	r20,48(sp)
 1004240:	dfc01015 	stw	ra,64(sp)
 1004244:	ddc00f15 	stw	r23,60(sp)
 1004248:	dd800e15 	stw	r22,56(sp)
 100424c:	dcc00b15 	stw	r19,44(sp)
 1004250:	dc800a15 	stw	r18,40(sp)
 1004254:	dc400915 	stw	r17,36(sp)
 1004258:	dc000815 	stw	r16,32(sp)
 100425c:	2029883a 	mov	r20,r4
 1004260:	282b883a 	mov	r21,r5
 1004264:	d9800415 	stw	r6,16(sp)
 1004268:	d9c00515 	stw	r7,20(sp)
 100426c:	18800216 	blt	r3,r2,1004278 <__kernel_sin+0x58>
 1004270:	10058380 	call	1005838 <__fixdfsi>
 1004274:	10008826 	beq	r2,zero,1004498 <__kernel_sin+0x278>
 1004278:	a009883a 	mov	r4,r20
 100427c:	a80b883a 	mov	r5,r21
 1004280:	a00d883a 	mov	r6,r20
 1004284:	a80f883a 	mov	r7,r21
 1004288:	1004e7c0 	call	1004e7c <__muldf3>
 100428c:	102d883a 	mov	r22,r2
 1004290:	a009883a 	mov	r4,r20
 1004294:	a80b883a 	mov	r5,r21
 1004298:	b00d883a 	mov	r6,r22
 100429c:	180f883a 	mov	r7,r3
 10042a0:	182f883a 	mov	r23,r3
 10042a4:	d8800215 	stw	r2,8(sp)
 10042a8:	d8c00315 	stw	r3,12(sp)
 10042ac:	1004e7c0 	call	1004e7c <__muldf3>
 10042b0:	d9000217 	ldw	r4,8(sp)
 10042b4:	0216b434 	movhi	r8,23248
 10042b8:	42355f04 	addi	r8,r8,-10884
 10042bc:	024f79b4 	movhi	r9,15846
 10042c0:	4a764e84 	addi	r9,r9,-9926
 10042c4:	480f883a 	mov	r7,r9
 10042c8:	400d883a 	mov	r6,r8
 10042cc:	b80b883a 	mov	r5,r23
 10042d0:	d8800615 	stw	r2,24(sp)
 10042d4:	d8c00715 	stw	r3,28(sp)
 10042d8:	1004e7c0 	call	1004e7c <__muldf3>
 10042dc:	02228b34 	movhi	r8,35372
 10042e0:	42273ac4 	addi	r8,r8,-25365
 10042e4:	024f96f4 	movhi	r9,15963
 10042e8:	4a797984 	addi	r9,r9,-6682
 10042ec:	480f883a 	mov	r7,r9
 10042f0:	400d883a 	mov	r6,r8
 10042f4:	180b883a 	mov	r5,r3
 10042f8:	1009883a 	mov	r4,r2
 10042fc:	1004d880 	call	1004d88 <__subdf3>
 1004300:	d9000217 	ldw	r4,8(sp)
 1004304:	180f883a 	mov	r7,r3
 1004308:	b80b883a 	mov	r5,r23
 100430c:	100d883a 	mov	r6,r2
 1004310:	1004e7c0 	call	1004e7c <__muldf3>
 1004314:	0215ecb4 	movhi	r8,22450
 1004318:	423f9f44 	addi	r8,r8,-387
 100431c:	024fb1f4 	movhi	r9,16071
 1004320:	4a4778c4 	addi	r9,r9,7651
 1004324:	480f883a 	mov	r7,r9
 1004328:	400d883a 	mov	r6,r8
 100432c:	180b883a 	mov	r5,r3
 1004330:	1009883a 	mov	r4,r2
 1004334:	1004e080 	call	1004e08 <__adddf3>
 1004338:	d9000217 	ldw	r4,8(sp)
 100433c:	180f883a 	mov	r7,r3
 1004340:	b80b883a 	mov	r5,r23
 1004344:	100d883a 	mov	r6,r2
 1004348:	1004e7c0 	call	1004e7c <__muldf3>
 100434c:	02067074 	movhi	r8,6593
 1004350:	42187544 	addi	r8,r8,25045
 1004354:	024fcab4 	movhi	r9,16170
 1004358:	4a406804 	addi	r9,r9,416
 100435c:	480f883a 	mov	r7,r9
 1004360:	400d883a 	mov	r6,r8
 1004364:	180b883a 	mov	r5,r3
 1004368:	1009883a 	mov	r4,r2
 100436c:	1004d880 	call	1004d88 <__subdf3>
 1004370:	d9000217 	ldw	r4,8(sp)
 1004374:	180f883a 	mov	r7,r3
 1004378:	b80b883a 	mov	r5,r23
 100437c:	100d883a 	mov	r6,r2
 1004380:	1004e7c0 	call	1004e7c <__muldf3>
 1004384:	02044474 	movhi	r8,4369
 1004388:	423e2984 	addi	r8,r8,-1882
 100438c:	024fe074 	movhi	r9,16257
 1004390:	4a444444 	addi	r9,r9,4369
 1004394:	180b883a 	mov	r5,r3
 1004398:	480f883a 	mov	r7,r9
 100439c:	1009883a 	mov	r4,r2
 10043a0:	400d883a 	mov	r6,r8
 10043a4:	1004e080 	call	1004e08 <__adddf3>
 10043a8:	1021883a 	mov	r16,r2
 10043ac:	d8800617 	ldw	r2,24(sp)
 10043b0:	1823883a 	mov	r17,r3
 10043b4:	d8800015 	stw	r2,0(sp)
 10043b8:	d8800717 	ldw	r2,28(sp)
 10043bc:	d8800115 	stw	r2,4(sp)
 10043c0:	d8801117 	ldw	r2,68(sp)
 10043c4:	10004126 	beq	r2,zero,10044cc <__kernel_sin+0x2ac>
 10043c8:	d9000417 	ldw	r4,16(sp)
 10043cc:	d9400517 	ldw	r5,20(sp)
 10043d0:	0005883a 	mov	r2,zero
 10043d4:	00cff834 	movhi	r3,16352
 10043d8:	180f883a 	mov	r7,r3
 10043dc:	100d883a 	mov	r6,r2
 10043e0:	1004e7c0 	call	1004e7c <__muldf3>
 10043e4:	d9000017 	ldw	r4,0(sp)
 10043e8:	d9400717 	ldw	r5,28(sp)
 10043ec:	800d883a 	mov	r6,r16
 10043f0:	880f883a 	mov	r7,r17
 10043f4:	1021883a 	mov	r16,r2
 10043f8:	1823883a 	mov	r17,r3
 10043fc:	1004e7c0 	call	1004e7c <__muldf3>
 1004400:	180f883a 	mov	r7,r3
 1004404:	880b883a 	mov	r5,r17
 1004408:	8009883a 	mov	r4,r16
 100440c:	100d883a 	mov	r6,r2
 1004410:	1004d880 	call	1004d88 <__subdf3>
 1004414:	d9000217 	ldw	r4,8(sp)
 1004418:	b80b883a 	mov	r5,r23
 100441c:	180f883a 	mov	r7,r3
 1004420:	100d883a 	mov	r6,r2
 1004424:	1004e7c0 	call	1004e7c <__muldf3>
 1004428:	d9c00517 	ldw	r7,20(sp)
 100442c:	d9800417 	ldw	r6,16(sp)
 1004430:	180b883a 	mov	r5,r3
 1004434:	1009883a 	mov	r4,r2
 1004438:	1004d880 	call	1004d88 <__subdf3>
 100443c:	d9000017 	ldw	r4,0(sp)
 1004440:	d9400717 	ldw	r5,28(sp)
 1004444:	02155574 	movhi	r8,21845
 1004448:	42155244 	addi	r8,r8,21833
 100444c:	024ff174 	movhi	r9,16325
 1004450:	4a555544 	addi	r9,r9,21845
 1004454:	480f883a 	mov	r7,r9
 1004458:	400d883a 	mov	r6,r8
 100445c:	1021883a 	mov	r16,r2
 1004460:	1823883a 	mov	r17,r3
 1004464:	1004e7c0 	call	1004e7c <__muldf3>
 1004468:	180f883a 	mov	r7,r3
 100446c:	880b883a 	mov	r5,r17
 1004470:	8009883a 	mov	r4,r16
 1004474:	100d883a 	mov	r6,r2
 1004478:	1004e080 	call	1004e08 <__adddf3>
 100447c:	180f883a 	mov	r7,r3
 1004480:	a80b883a 	mov	r5,r21
 1004484:	a009883a 	mov	r4,r20
 1004488:	100d883a 	mov	r6,r2
 100448c:	1004d880 	call	1004d88 <__subdf3>
 1004490:	1029883a 	mov	r20,r2
 1004494:	182b883a 	mov	r21,r3
 1004498:	a005883a 	mov	r2,r20
 100449c:	a807883a 	mov	r3,r21
 10044a0:	dfc01017 	ldw	ra,64(sp)
 10044a4:	ddc00f17 	ldw	r23,60(sp)
 10044a8:	dd800e17 	ldw	r22,56(sp)
 10044ac:	dd400d17 	ldw	r21,52(sp)
 10044b0:	dd000c17 	ldw	r20,48(sp)
 10044b4:	dcc00b17 	ldw	r19,44(sp)
 10044b8:	dc800a17 	ldw	r18,40(sp)
 10044bc:	dc400917 	ldw	r17,36(sp)
 10044c0:	dc000817 	ldw	r16,32(sp)
 10044c4:	dec01104 	addi	sp,sp,68
 10044c8:	f800283a 	ret
 10044cc:	d9000217 	ldw	r4,8(sp)
 10044d0:	b80b883a 	mov	r5,r23
 10044d4:	800d883a 	mov	r6,r16
 10044d8:	180f883a 	mov	r7,r3
 10044dc:	1004e7c0 	call	1004e7c <__muldf3>
 10044e0:	02155574 	movhi	r8,21845
 10044e4:	42155244 	addi	r8,r8,21833
 10044e8:	024ff174 	movhi	r9,16325
 10044ec:	4a555544 	addi	r9,r9,21845
 10044f0:	480f883a 	mov	r7,r9
 10044f4:	400d883a 	mov	r6,r8
 10044f8:	180b883a 	mov	r5,r3
 10044fc:	1009883a 	mov	r4,r2
 1004500:	1004d880 	call	1004d88 <__subdf3>
 1004504:	d9000017 	ldw	r4,0(sp)
 1004508:	d9400717 	ldw	r5,28(sp)
 100450c:	180f883a 	mov	r7,r3
 1004510:	100d883a 	mov	r6,r2
 1004514:	1004e7c0 	call	1004e7c <__muldf3>
 1004518:	180f883a 	mov	r7,r3
 100451c:	a80b883a 	mov	r5,r21
 1004520:	a009883a 	mov	r4,r20
 1004524:	100d883a 	mov	r6,r2
 1004528:	1004e080 	call	1004e08 <__adddf3>
 100452c:	1029883a 	mov	r20,r2
 1004530:	182b883a 	mov	r21,r3
 1004534:	003fd806 	br	1004498 <__kernel_sin+0x278>

01004538 <fabs>:
 1004538:	01e00034 	movhi	r7,32768
 100453c:	39ffffc4 	addi	r7,r7,-1
 1004540:	394e703a 	and	r7,r7,r5
 1004544:	2005883a 	mov	r2,r4
 1004548:	3807883a 	mov	r3,r7
 100454c:	f800283a 	ret

01004550 <floor>:
 1004550:	2805d53a 	srai	r2,r5,20
 1004554:	defff604 	addi	sp,sp,-40
 1004558:	dd800615 	stw	r22,24(sp)
 100455c:	10c1ffcc 	andi	r3,r2,2047
 1004560:	1dbf0044 	addi	r22,r3,-1023
 1004564:	008004c4 	movi	r2,19
 1004568:	ddc00715 	stw	r23,28(sp)
 100456c:	dc800215 	stw	r18,8(sp)
 1004570:	dc400115 	stw	r17,4(sp)
 1004574:	dc000015 	stw	r16,0(sp)
 1004578:	dfc00915 	stw	ra,36(sp)
 100457c:	df000815 	stw	fp,32(sp)
 1004580:	dd400515 	stw	r21,20(sp)
 1004584:	dd000415 	stw	r20,16(sp)
 1004588:	dcc00315 	stw	r19,12(sp)
 100458c:	2021883a 	mov	r16,r4
 1004590:	2823883a 	mov	r17,r5
 1004594:	282f883a 	mov	r23,r5
 1004598:	2025883a 	mov	r18,r4
 100459c:	15802916 	blt	r2,r22,1004644 <floor+0xf4>
 10045a0:	b0004816 	blt	r22,zero,10046c4 <floor+0x174>
 10045a4:	00800434 	movhi	r2,16
 10045a8:	10bfffc4 	addi	r2,r2,-1
 10045ac:	15b9d83a 	sra	fp,r2,r22
 10045b0:	282f883a 	mov	r23,r5
 10045b4:	e144703a 	and	r2,fp,r5
 10045b8:	1104b03a 	or	r2,r2,r4
 10045bc:	10001326 	beq	r2,zero,100460c <floor+0xbc>
 10045c0:	00a20034 	movhi	r2,34816
 10045c4:	109d6704 	addi	r2,r2,30108
 10045c8:	00df8e34 	movhi	r3,32312
 10045cc:	18f90f04 	addi	r3,r3,-7108
 10045d0:	180f883a 	mov	r7,r3
 10045d4:	100d883a 	mov	r6,r2
 10045d8:	1004e080 	call	1004e08 <__adddf3>
 10045dc:	180b883a 	mov	r5,r3
 10045e0:	000d883a 	mov	r6,zero
 10045e4:	000f883a 	mov	r7,zero
 10045e8:	1009883a 	mov	r4,r2
 10045ec:	10055200 	call	1005520 <__gtdf2>
 10045f0:	0080040e 	bge	zero,r2,1004604 <floor+0xb4>
 10045f4:	88004416 	blt	r17,zero,1004708 <floor+0x1b8>
 10045f8:	0704303a 	nor	r2,zero,fp
 10045fc:	b8ae703a 	and	r23,r23,r2
 1004600:	0025883a 	mov	r18,zero
 1004604:	9021883a 	mov	r16,r18
 1004608:	b823883a 	mov	r17,r23
 100460c:	8005883a 	mov	r2,r16
 1004610:	8807883a 	mov	r3,r17
 1004614:	dfc00917 	ldw	ra,36(sp)
 1004618:	df000817 	ldw	fp,32(sp)
 100461c:	ddc00717 	ldw	r23,28(sp)
 1004620:	dd800617 	ldw	r22,24(sp)
 1004624:	dd400517 	ldw	r21,20(sp)
 1004628:	dd000417 	ldw	r20,16(sp)
 100462c:	dcc00317 	ldw	r19,12(sp)
 1004630:	dc800217 	ldw	r18,8(sp)
 1004634:	dc400117 	ldw	r17,4(sp)
 1004638:	dc000017 	ldw	r16,0(sp)
 100463c:	dec00a04 	addi	sp,sp,40
 1004640:	f800283a 	ret
 1004644:	00800cc4 	movi	r2,51
 1004648:	15801616 	blt	r2,r22,10046a4 <floor+0x154>
 100464c:	18befb44 	addi	r2,r3,-1043
 1004650:	00ffffc4 	movi	r3,-1
 1004654:	18b8d83a 	srl	fp,r3,r2
 1004658:	e104703a 	and	r2,fp,r4
 100465c:	103feb26 	beq	r2,zero,100460c <floor+0xbc>
 1004660:	00a20034 	movhi	r2,34816
 1004664:	109d6704 	addi	r2,r2,30108
 1004668:	00df8e34 	movhi	r3,32312
 100466c:	18f90f04 	addi	r3,r3,-7108
 1004670:	180f883a 	mov	r7,r3
 1004674:	100d883a 	mov	r6,r2
 1004678:	1004e080 	call	1004e08 <__adddf3>
 100467c:	180b883a 	mov	r5,r3
 1004680:	000d883a 	mov	r6,zero
 1004684:	000f883a 	mov	r7,zero
 1004688:	1009883a 	mov	r4,r2
 100468c:	10055200 	call	1005520 <__gtdf2>
 1004690:	0080210e 	bge	zero,r2,1004718 <floor+0x1c8>
 1004694:	88002216 	blt	r17,zero,1004720 <floor+0x1d0>
 1004698:	0704303a 	nor	r2,zero,fp
 100469c:	90a4703a 	and	r18,r18,r2
 10046a0:	003fd806 	br	1004604 <floor+0xb4>
 10046a4:	00810004 	movi	r2,1024
 10046a8:	b0bfd81e 	bne	r22,r2,100460c <floor+0xbc>
 10046ac:	800d883a 	mov	r6,r16
 10046b0:	280f883a 	mov	r7,r5
 10046b4:	1004e080 	call	1004e08 <__adddf3>
 10046b8:	1021883a 	mov	r16,r2
 10046bc:	1823883a 	mov	r17,r3
 10046c0:	003fd206 	br	100460c <floor+0xbc>
 10046c4:	00a20034 	movhi	r2,34816
 10046c8:	109d6704 	addi	r2,r2,30108
 10046cc:	00df8e34 	movhi	r3,32312
 10046d0:	18f90f04 	addi	r3,r3,-7108
 10046d4:	180f883a 	mov	r7,r3
 10046d8:	100d883a 	mov	r6,r2
 10046dc:	1004e080 	call	1004e08 <__adddf3>
 10046e0:	180b883a 	mov	r5,r3
 10046e4:	000d883a 	mov	r6,zero
 10046e8:	000f883a 	mov	r7,zero
 10046ec:	1009883a 	mov	r4,r2
 10046f0:	10055200 	call	1005520 <__gtdf2>
 10046f4:	00bfc30e 	bge	zero,r2,1004604 <floor+0xb4>
 10046f8:	88001416 	blt	r17,zero,100474c <floor+0x1fc>
 10046fc:	002f883a 	mov	r23,zero
 1004700:	0025883a 	mov	r18,zero
 1004704:	003fbf06 	br	1004604 <floor+0xb4>
 1004708:	00800434 	movhi	r2,16
 100470c:	1585d83a 	sra	r2,r2,r22
 1004710:	88af883a 	add	r23,r17,r2
 1004714:	003fb806 	br	10045f8 <floor+0xa8>
 1004718:	882f883a 	mov	r23,r17
 100471c:	003fb906 	br	1004604 <floor+0xb4>
 1004720:	00800504 	movi	r2,20
 1004724:	b0801126 	beq	r22,r2,100476c <floor+0x21c>
 1004728:	00c00d04 	movi	r3,52
 100472c:	1d87c83a 	sub	r3,r3,r22
 1004730:	00800044 	movi	r2,1
 1004734:	10c4983a 	sll	r2,r2,r3
 1004738:	8085883a 	add	r2,r16,r2
 100473c:	1400012e 	bgeu	r2,r16,1004744 <floor+0x1f4>
 1004740:	8dc00044 	addi	r23,r17,1
 1004744:	1025883a 	mov	r18,r2
 1004748:	003fd306 	br	1004698 <floor+0x148>
 100474c:	00a00034 	movhi	r2,32768
 1004750:	10bfffc4 	addi	r2,r2,-1
 1004754:	8884703a 	and	r2,r17,r2
 1004758:	8084b03a 	or	r2,r16,r2
 100475c:	103fee26 	beq	r2,zero,1004718 <floor+0x1c8>
 1004760:	05effc34 	movhi	r23,49136
 1004764:	0025883a 	mov	r18,zero
 1004768:	003fa606 	br	1004604 <floor+0xb4>
 100476c:	8dc00044 	addi	r23,r17,1
 1004770:	003fc906 	br	1004698 <floor+0x148>

01004774 <scalbn>:
 1004774:	2011883a 	mov	r8,r4
 1004778:	291ffc2c 	andhi	r4,r5,32752
 100477c:	2009d53a 	srai	r4,r4,20
 1004780:	defffd04 	addi	sp,sp,-12
 1004784:	dc000015 	stw	r16,0(sp)
 1004788:	dfc00215 	stw	ra,8(sp)
 100478c:	dc400115 	stw	r17,4(sp)
 1004790:	2813883a 	mov	r9,r5
 1004794:	2815883a 	mov	r10,r5
 1004798:	3021883a 	mov	r16,r6
 100479c:	2000281e 	bne	r4,zero,1004840 <scalbn+0xcc>
 10047a0:	00a00034 	movhi	r2,32768
 10047a4:	10bfffc4 	addi	r2,r2,-1
 10047a8:	2884703a 	and	r2,r5,r2
 10047ac:	4084b03a 	or	r2,r8,r2
 10047b0:	10001826 	beq	r2,zero,1004814 <scalbn+0xa0>
 10047b4:	0005883a 	mov	r2,zero
 10047b8:	00d0d434 	movhi	r3,17232
 10047bc:	4009883a 	mov	r4,r8
 10047c0:	100d883a 	mov	r6,r2
 10047c4:	180f883a 	mov	r7,r3
 10047c8:	1004e7c0 	call	1004e7c <__muldf3>
 10047cc:	100b883a 	mov	r5,r2
 10047d0:	1011883a 	mov	r8,r2
 10047d4:	00bffff4 	movhi	r2,65535
 10047d8:	108f2c04 	addi	r2,r2,15536
 10047dc:	180d883a 	mov	r6,r3
 10047e0:	1813883a 	mov	r9,r3
 10047e4:	8080120e 	bge	r16,r2,1004830 <scalbn+0xbc>
 10047e8:	00b0be74 	movhi	r2,49913
 10047ec:	10bcd644 	addi	r2,r2,-3239
 10047f0:	00c06974 	movhi	r3,421
 10047f4:	18db87c4 	addi	r3,r3,28191
 10047f8:	2809883a 	mov	r4,r5
 10047fc:	180f883a 	mov	r7,r3
 1004800:	300b883a 	mov	r5,r6
 1004804:	100d883a 	mov	r6,r2
 1004808:	1004e7c0 	call	1004e7c <__muldf3>
 100480c:	1011883a 	mov	r8,r2
 1004810:	1813883a 	mov	r9,r3
 1004814:	4005883a 	mov	r2,r8
 1004818:	4807883a 	mov	r3,r9
 100481c:	dfc00217 	ldw	ra,8(sp)
 1004820:	dc400117 	ldw	r17,4(sp)
 1004824:	dc000017 	ldw	r16,0(sp)
 1004828:	dec00304 	addi	sp,sp,12
 100482c:	f800283a 	ret
 1004830:	189ffc2c 	andhi	r2,r3,32752
 1004834:	1005d53a 	srai	r2,r2,20
 1004838:	1815883a 	mov	r10,r3
 100483c:	113ff284 	addi	r4,r2,-54
 1004840:	0081ffc4 	movi	r2,2047
 1004844:	20801126 	beq	r4,r2,100488c <scalbn+0x118>
 1004848:	2409883a 	add	r4,r4,r16
 100484c:	0081ff84 	movi	r2,2046
 1004850:	11001c16 	blt	r2,r4,10048c4 <scalbn+0x150>
 1004854:	0100290e 	bge	zero,r4,10048fc <scalbn+0x188>
 1004858:	200a953a 	slli	r5,r4,20
 100485c:	01200434 	movhi	r4,32784
 1004860:	213fffc4 	addi	r4,r4,-1
 1004864:	5108703a 	and	r4,r10,r4
 1004868:	2148b03a 	or	r4,r4,r5
 100486c:	2013883a 	mov	r9,r4
 1004870:	4005883a 	mov	r2,r8
 1004874:	4807883a 	mov	r3,r9
 1004878:	dfc00217 	ldw	ra,8(sp)
 100487c:	dc400117 	ldw	r17,4(sp)
 1004880:	dc000017 	ldw	r16,0(sp)
 1004884:	dec00304 	addi	sp,sp,12
 1004888:	f800283a 	ret
 100488c:	480f883a 	mov	r7,r9
 1004890:	4009883a 	mov	r4,r8
 1004894:	480b883a 	mov	r5,r9
 1004898:	400d883a 	mov	r6,r8
 100489c:	1004e080 	call	1004e08 <__adddf3>
 10048a0:	1011883a 	mov	r8,r2
 10048a4:	1813883a 	mov	r9,r3
 10048a8:	4005883a 	mov	r2,r8
 10048ac:	4807883a 	mov	r3,r9
 10048b0:	dfc00217 	ldw	ra,8(sp)
 10048b4:	dc400117 	ldw	r17,4(sp)
 10048b8:	dc000017 	ldw	r16,0(sp)
 10048bc:	dec00304 	addi	sp,sp,12
 10048c0:	f800283a 	ret
 10048c4:	04220034 	movhi	r16,34816
 10048c8:	841d6704 	addi	r16,r16,30108
 10048cc:	045f8e34 	movhi	r17,32312
 10048d0:	8c790f04 	addi	r17,r17,-7108
 10048d4:	480f883a 	mov	r7,r9
 10048d8:	400d883a 	mov	r6,r8
 10048dc:	8009883a 	mov	r4,r16
 10048e0:	880b883a 	mov	r5,r17
 10048e4:	10049540 	call	1004954 <copysign>
 10048e8:	180b883a 	mov	r5,r3
 10048ec:	800d883a 	mov	r6,r16
 10048f0:	880f883a 	mov	r7,r17
 10048f4:	1009883a 	mov	r4,r2
 10048f8:	003fc306 	br	1004808 <scalbn+0x94>
 10048fc:	00bff284 	movi	r2,-54
 1004900:	11000716 	blt	r2,r4,1004920 <scalbn+0x1ac>
 1004904:	00b0d414 	movui	r2,50000
 1004908:	143fee16 	blt	r2,r16,10048c4 <scalbn+0x150>
 100490c:	0430be74 	movhi	r16,49913
 1004910:	843cd644 	addi	r16,r16,-3239
 1004914:	04406974 	movhi	r17,421
 1004918:	8c5b87c4 	addi	r17,r17,28191
 100491c:	003fed06 	br	10048d4 <scalbn+0x160>
 1004920:	21000d84 	addi	r4,r4,54
 1004924:	2008953a 	slli	r4,r4,20
 1004928:	01e00434 	movhi	r7,32784
 100492c:	39ffffc4 	addi	r7,r7,-1
 1004930:	51ce703a 	and	r7,r10,r7
 1004934:	390eb03a 	or	r7,r7,r4
 1004938:	024f2434 	movhi	r9,15504
 100493c:	4009883a 	mov	r4,r8
 1004940:	0011883a 	mov	r8,zero
 1004944:	380b883a 	mov	r5,r7
 1004948:	400d883a 	mov	r6,r8
 100494c:	480f883a 	mov	r7,r9
 1004950:	003fad06 	br	1004808 <scalbn+0x94>

01004954 <copysign>:
 1004954:	3813883a 	mov	r9,r7
 1004958:	01e00034 	movhi	r7,32768
 100495c:	39ffffc4 	addi	r7,r7,-1
 1004960:	394e703a 	and	r7,r7,r5
 1004964:	4aa0002c 	andhi	r10,r9,32768
 1004968:	3a8eb03a 	or	r7,r7,r10
 100496c:	2005883a 	mov	r2,r4
 1004970:	3807883a 	mov	r3,r7
 1004974:	f800283a 	ret

01004978 <_fpadd_parts>:
 1004978:	defff804 	addi	sp,sp,-32
 100497c:	dcc00315 	stw	r19,12(sp)
 1004980:	2027883a 	mov	r19,r4
 1004984:	21000017 	ldw	r4,0(r4)
 1004988:	00c00044 	movi	r3,1
 100498c:	dd400515 	stw	r21,20(sp)
 1004990:	dd000415 	stw	r20,16(sp)
 1004994:	ddc00715 	stw	r23,28(sp)
 1004998:	dd800615 	stw	r22,24(sp)
 100499c:	dc800215 	stw	r18,8(sp)
 10049a0:	dc400115 	stw	r17,4(sp)
 10049a4:	dc000015 	stw	r16,0(sp)
 10049a8:	282b883a 	mov	r21,r5
 10049ac:	3029883a 	mov	r20,r6
 10049b0:	1900632e 	bgeu	r3,r4,1004b40 <_fpadd_parts+0x1c8>
 10049b4:	28800017 	ldw	r2,0(r5)
 10049b8:	1880812e 	bgeu	r3,r2,1004bc0 <_fpadd_parts+0x248>
 10049bc:	00c00104 	movi	r3,4
 10049c0:	20c0dc26 	beq	r4,r3,1004d34 <_fpadd_parts+0x3bc>
 10049c4:	10c07e26 	beq	r2,r3,1004bc0 <_fpadd_parts+0x248>
 10049c8:	00c00084 	movi	r3,2
 10049cc:	10c06726 	beq	r2,r3,1004b6c <_fpadd_parts+0x1f4>
 10049d0:	20c07b26 	beq	r4,r3,1004bc0 <_fpadd_parts+0x248>
 10049d4:	9dc00217 	ldw	r23,8(r19)
 10049d8:	28c00217 	ldw	r3,8(r5)
 10049dc:	9c400317 	ldw	r17,12(r19)
 10049e0:	2bc00317 	ldw	r15,12(r5)
 10049e4:	b8cdc83a 	sub	r6,r23,r3
 10049e8:	9c800417 	ldw	r18,16(r19)
 10049ec:	2c000417 	ldw	r16,16(r5)
 10049f0:	3009883a 	mov	r4,r6
 10049f4:	30009716 	blt	r6,zero,1004c54 <_fpadd_parts+0x2dc>
 10049f8:	00800fc4 	movi	r2,63
 10049fc:	11806b16 	blt	r2,r6,1004bac <_fpadd_parts+0x234>
 1004a00:	0100a40e 	bge	zero,r4,1004c94 <_fpadd_parts+0x31c>
 1004a04:	35bff804 	addi	r22,r6,-32
 1004a08:	b000bc16 	blt	r22,zero,1004cfc <_fpadd_parts+0x384>
 1004a0c:	8596d83a 	srl	r11,r16,r22
 1004a10:	0019883a 	mov	r12,zero
 1004a14:	0013883a 	mov	r9,zero
 1004a18:	01000044 	movi	r4,1
 1004a1c:	0015883a 	mov	r10,zero
 1004a20:	b000be16 	blt	r22,zero,1004d1c <_fpadd_parts+0x3a4>
 1004a24:	2590983a 	sll	r8,r4,r22
 1004a28:	000f883a 	mov	r7,zero
 1004a2c:	00bfffc4 	movi	r2,-1
 1004a30:	3889883a 	add	r4,r7,r2
 1004a34:	408b883a 	add	r5,r8,r2
 1004a38:	21cd803a 	cmpltu	r6,r4,r7
 1004a3c:	314b883a 	add	r5,r6,r5
 1004a40:	7904703a 	and	r2,r15,r4
 1004a44:	8146703a 	and	r3,r16,r5
 1004a48:	10c4b03a 	or	r2,r2,r3
 1004a4c:	10000226 	beq	r2,zero,1004a58 <_fpadd_parts+0xe0>
 1004a50:	02400044 	movi	r9,1
 1004a54:	0015883a 	mov	r10,zero
 1004a58:	5a5eb03a 	or	r15,r11,r9
 1004a5c:	62a0b03a 	or	r16,r12,r10
 1004a60:	99400117 	ldw	r5,4(r19)
 1004a64:	a8800117 	ldw	r2,4(r21)
 1004a68:	28806e26 	beq	r5,r2,1004c24 <_fpadd_parts+0x2ac>
 1004a6c:	28006626 	beq	r5,zero,1004c08 <_fpadd_parts+0x290>
 1004a70:	7c45c83a 	sub	r2,r15,r17
 1004a74:	7889803a 	cmpltu	r4,r15,r2
 1004a78:	8487c83a 	sub	r3,r16,r18
 1004a7c:	1909c83a 	sub	r4,r3,r4
 1004a80:	100d883a 	mov	r6,r2
 1004a84:	200f883a 	mov	r7,r4
 1004a88:	38007716 	blt	r7,zero,1004c68 <_fpadd_parts+0x2f0>
 1004a8c:	a5c00215 	stw	r23,8(r20)
 1004a90:	a1c00415 	stw	r7,16(r20)
 1004a94:	a0000115 	stw	zero,4(r20)
 1004a98:	a1800315 	stw	r6,12(r20)
 1004a9c:	a2000317 	ldw	r8,12(r20)
 1004aa0:	a2400417 	ldw	r9,16(r20)
 1004aa4:	00bfffc4 	movi	r2,-1
 1004aa8:	408b883a 	add	r5,r8,r2
 1004aac:	2a09803a 	cmpltu	r4,r5,r8
 1004ab0:	488d883a 	add	r6,r9,r2
 1004ab4:	01c40034 	movhi	r7,4096
 1004ab8:	39ffffc4 	addi	r7,r7,-1
 1004abc:	218d883a 	add	r6,r4,r6
 1004ac0:	39801736 	bltu	r7,r6,1004b20 <_fpadd_parts+0x1a8>
 1004ac4:	31c06526 	beq	r6,r7,1004c5c <_fpadd_parts+0x2e4>
 1004ac8:	a3000217 	ldw	r12,8(r20)
 1004acc:	4209883a 	add	r4,r8,r8
 1004ad0:	00bfffc4 	movi	r2,-1
 1004ad4:	220f803a 	cmpltu	r7,r4,r8
 1004ad8:	4a4b883a 	add	r5,r9,r9
 1004adc:	394f883a 	add	r7,r7,r5
 1004ae0:	2095883a 	add	r10,r4,r2
 1004ae4:	3897883a 	add	r11,r7,r2
 1004ae8:	510d803a 	cmpltu	r6,r10,r4
 1004aec:	6099883a 	add	r12,r12,r2
 1004af0:	32d7883a 	add	r11,r6,r11
 1004af4:	00840034 	movhi	r2,4096
 1004af8:	10bfffc4 	addi	r2,r2,-1
 1004afc:	2011883a 	mov	r8,r4
 1004b00:	3813883a 	mov	r9,r7
 1004b04:	a1000315 	stw	r4,12(r20)
 1004b08:	a1c00415 	stw	r7,16(r20)
 1004b0c:	a3000215 	stw	r12,8(r20)
 1004b10:	12c00336 	bltu	r2,r11,1004b20 <_fpadd_parts+0x1a8>
 1004b14:	58bfed1e 	bne	r11,r2,1004acc <_fpadd_parts+0x154>
 1004b18:	00bfff84 	movi	r2,-2
 1004b1c:	12bfeb2e 	bgeu	r2,r10,1004acc <_fpadd_parts+0x154>
 1004b20:	a2800417 	ldw	r10,16(r20)
 1004b24:	008000c4 	movi	r2,3
 1004b28:	00c80034 	movhi	r3,8192
 1004b2c:	18ffffc4 	addi	r3,r3,-1
 1004b30:	a2400317 	ldw	r9,12(r20)
 1004b34:	a0800015 	stw	r2,0(r20)
 1004b38:	1a802336 	bltu	r3,r10,1004bc8 <_fpadd_parts+0x250>
 1004b3c:	a027883a 	mov	r19,r20
 1004b40:	9805883a 	mov	r2,r19
 1004b44:	ddc00717 	ldw	r23,28(sp)
 1004b48:	dd800617 	ldw	r22,24(sp)
 1004b4c:	dd400517 	ldw	r21,20(sp)
 1004b50:	dd000417 	ldw	r20,16(sp)
 1004b54:	dcc00317 	ldw	r19,12(sp)
 1004b58:	dc800217 	ldw	r18,8(sp)
 1004b5c:	dc400117 	ldw	r17,4(sp)
 1004b60:	dc000017 	ldw	r16,0(sp)
 1004b64:	dec00804 	addi	sp,sp,32
 1004b68:	f800283a 	ret
 1004b6c:	20fff41e 	bne	r4,r3,1004b40 <_fpadd_parts+0x1c8>
 1004b70:	31000015 	stw	r4,0(r6)
 1004b74:	98800117 	ldw	r2,4(r19)
 1004b78:	30800115 	stw	r2,4(r6)
 1004b7c:	98c00217 	ldw	r3,8(r19)
 1004b80:	30c00215 	stw	r3,8(r6)
 1004b84:	98800317 	ldw	r2,12(r19)
 1004b88:	30800315 	stw	r2,12(r6)
 1004b8c:	98c00417 	ldw	r3,16(r19)
 1004b90:	30c00415 	stw	r3,16(r6)
 1004b94:	98800117 	ldw	r2,4(r19)
 1004b98:	28c00117 	ldw	r3,4(r5)
 1004b9c:	3027883a 	mov	r19,r6
 1004ba0:	10c4703a 	and	r2,r2,r3
 1004ba4:	30800115 	stw	r2,4(r6)
 1004ba8:	003fe506 	br	1004b40 <_fpadd_parts+0x1c8>
 1004bac:	1dc02616 	blt	r3,r23,1004c48 <_fpadd_parts+0x2d0>
 1004bb0:	0023883a 	mov	r17,zero
 1004bb4:	182f883a 	mov	r23,r3
 1004bb8:	0025883a 	mov	r18,zero
 1004bbc:	003fa806 	br	1004a60 <_fpadd_parts+0xe8>
 1004bc0:	a827883a 	mov	r19,r21
 1004bc4:	003fde06 	br	1004b40 <_fpadd_parts+0x1c8>
 1004bc8:	01800044 	movi	r6,1
 1004bcc:	500497fa 	slli	r2,r10,31
 1004bd0:	4808d07a 	srli	r4,r9,1
 1004bd4:	518ad83a 	srl	r5,r10,r6
 1004bd8:	a2000217 	ldw	r8,8(r20)
 1004bdc:	1108b03a 	or	r4,r2,r4
 1004be0:	0007883a 	mov	r3,zero
 1004be4:	4984703a 	and	r2,r9,r6
 1004be8:	208cb03a 	or	r6,r4,r2
 1004bec:	28ceb03a 	or	r7,r5,r3
 1004bf0:	42000044 	addi	r8,r8,1
 1004bf4:	a027883a 	mov	r19,r20
 1004bf8:	a1c00415 	stw	r7,16(r20)
 1004bfc:	a2000215 	stw	r8,8(r20)
 1004c00:	a1800315 	stw	r6,12(r20)
 1004c04:	003fce06 	br	1004b40 <_fpadd_parts+0x1c8>
 1004c08:	8bc5c83a 	sub	r2,r17,r15
 1004c0c:	8889803a 	cmpltu	r4,r17,r2
 1004c10:	9407c83a 	sub	r3,r18,r16
 1004c14:	1909c83a 	sub	r4,r3,r4
 1004c18:	100d883a 	mov	r6,r2
 1004c1c:	200f883a 	mov	r7,r4
 1004c20:	003f9906 	br	1004a88 <_fpadd_parts+0x110>
 1004c24:	7c45883a 	add	r2,r15,r17
 1004c28:	13c9803a 	cmpltu	r4,r2,r15
 1004c2c:	8487883a 	add	r3,r16,r18
 1004c30:	20c9883a 	add	r4,r4,r3
 1004c34:	a1400115 	stw	r5,4(r20)
 1004c38:	a5c00215 	stw	r23,8(r20)
 1004c3c:	a0800315 	stw	r2,12(r20)
 1004c40:	a1000415 	stw	r4,16(r20)
 1004c44:	003fb606 	br	1004b20 <_fpadd_parts+0x1a8>
 1004c48:	001f883a 	mov	r15,zero
 1004c4c:	0021883a 	mov	r16,zero
 1004c50:	003f8306 	br	1004a60 <_fpadd_parts+0xe8>
 1004c54:	018dc83a 	sub	r6,zero,r6
 1004c58:	003f6706 	br	10049f8 <_fpadd_parts+0x80>
 1004c5c:	00bfff84 	movi	r2,-2
 1004c60:	117faf36 	bltu	r2,r5,1004b20 <_fpadd_parts+0x1a8>
 1004c64:	003f9806 	br	1004ac8 <_fpadd_parts+0x150>
 1004c68:	0005883a 	mov	r2,zero
 1004c6c:	1189c83a 	sub	r4,r2,r6
 1004c70:	1105803a 	cmpltu	r2,r2,r4
 1004c74:	01cbc83a 	sub	r5,zero,r7
 1004c78:	2885c83a 	sub	r2,r5,r2
 1004c7c:	01800044 	movi	r6,1
 1004c80:	a1800115 	stw	r6,4(r20)
 1004c84:	a5c00215 	stw	r23,8(r20)
 1004c88:	a1000315 	stw	r4,12(r20)
 1004c8c:	a0800415 	stw	r2,16(r20)
 1004c90:	003f8206 	br	1004a9c <_fpadd_parts+0x124>
 1004c94:	203f7226 	beq	r4,zero,1004a60 <_fpadd_parts+0xe8>
 1004c98:	35bff804 	addi	r22,r6,-32
 1004c9c:	b9af883a 	add	r23,r23,r6
 1004ca0:	b0003116 	blt	r22,zero,1004d68 <_fpadd_parts+0x3f0>
 1004ca4:	959ad83a 	srl	r13,r18,r22
 1004ca8:	001d883a 	mov	r14,zero
 1004cac:	000f883a 	mov	r7,zero
 1004cb0:	01000044 	movi	r4,1
 1004cb4:	0011883a 	mov	r8,zero
 1004cb8:	b0002516 	blt	r22,zero,1004d50 <_fpadd_parts+0x3d8>
 1004cbc:	2594983a 	sll	r10,r4,r22
 1004cc0:	0013883a 	mov	r9,zero
 1004cc4:	00bfffc4 	movi	r2,-1
 1004cc8:	4889883a 	add	r4,r9,r2
 1004ccc:	508b883a 	add	r5,r10,r2
 1004cd0:	224d803a 	cmpltu	r6,r4,r9
 1004cd4:	314b883a 	add	r5,r6,r5
 1004cd8:	8904703a 	and	r2,r17,r4
 1004cdc:	9146703a 	and	r3,r18,r5
 1004ce0:	10c4b03a 	or	r2,r2,r3
 1004ce4:	10000226 	beq	r2,zero,1004cf0 <_fpadd_parts+0x378>
 1004ce8:	01c00044 	movi	r7,1
 1004cec:	0011883a 	mov	r8,zero
 1004cf0:	69e2b03a 	or	r17,r13,r7
 1004cf4:	7224b03a 	or	r18,r14,r8
 1004cf8:	003f5906 	br	1004a60 <_fpadd_parts+0xe8>
 1004cfc:	8407883a 	add	r3,r16,r16
 1004d00:	008007c4 	movi	r2,31
 1004d04:	1185c83a 	sub	r2,r2,r6
 1004d08:	1886983a 	sll	r3,r3,r2
 1004d0c:	7996d83a 	srl	r11,r15,r6
 1004d10:	8198d83a 	srl	r12,r16,r6
 1004d14:	1ad6b03a 	or	r11,r3,r11
 1004d18:	003f3e06 	br	1004a14 <_fpadd_parts+0x9c>
 1004d1c:	2006d07a 	srli	r3,r4,1
 1004d20:	008007c4 	movi	r2,31
 1004d24:	1185c83a 	sub	r2,r2,r6
 1004d28:	1890d83a 	srl	r8,r3,r2
 1004d2c:	218e983a 	sll	r7,r4,r6
 1004d30:	003f3e06 	br	1004a2c <_fpadd_parts+0xb4>
 1004d34:	113f821e 	bne	r2,r4,1004b40 <_fpadd_parts+0x1c8>
 1004d38:	28c00117 	ldw	r3,4(r5)
 1004d3c:	98800117 	ldw	r2,4(r19)
 1004d40:	10ff7f26 	beq	r2,r3,1004b40 <_fpadd_parts+0x1c8>
 1004d44:	04c04134 	movhi	r19,260
 1004d48:	9cd9ba04 	addi	r19,r19,26344
 1004d4c:	003f7c06 	br	1004b40 <_fpadd_parts+0x1c8>
 1004d50:	2006d07a 	srli	r3,r4,1
 1004d54:	008007c4 	movi	r2,31
 1004d58:	1185c83a 	sub	r2,r2,r6
 1004d5c:	1894d83a 	srl	r10,r3,r2
 1004d60:	2192983a 	sll	r9,r4,r6
 1004d64:	003fd706 	br	1004cc4 <_fpadd_parts+0x34c>
 1004d68:	9487883a 	add	r3,r18,r18
 1004d6c:	008007c4 	movi	r2,31
 1004d70:	1185c83a 	sub	r2,r2,r6
 1004d74:	1886983a 	sll	r3,r3,r2
 1004d78:	899ad83a 	srl	r13,r17,r6
 1004d7c:	919cd83a 	srl	r14,r18,r6
 1004d80:	1b5ab03a 	or	r13,r3,r13
 1004d84:	003fc906 	br	1004cac <_fpadd_parts+0x334>

01004d88 <__subdf3>:
 1004d88:	deffea04 	addi	sp,sp,-88
 1004d8c:	dcc01415 	stw	r19,80(sp)
 1004d90:	dcc00404 	addi	r19,sp,16
 1004d94:	2011883a 	mov	r8,r4
 1004d98:	2813883a 	mov	r9,r5
 1004d9c:	dc401315 	stw	r17,76(sp)
 1004da0:	d809883a 	mov	r4,sp
 1004da4:	980b883a 	mov	r5,r19
 1004da8:	dc400904 	addi	r17,sp,36
 1004dac:	dfc01515 	stw	ra,84(sp)
 1004db0:	da400115 	stw	r9,4(sp)
 1004db4:	d9c00315 	stw	r7,12(sp)
 1004db8:	da000015 	stw	r8,0(sp)
 1004dbc:	d9800215 	stw	r6,8(sp)
 1004dc0:	1005f4c0 	call	1005f4c <__unpack_d>
 1004dc4:	d9000204 	addi	r4,sp,8
 1004dc8:	880b883a 	mov	r5,r17
 1004dcc:	1005f4c0 	call	1005f4c <__unpack_d>
 1004dd0:	d8800a17 	ldw	r2,40(sp)
 1004dd4:	880b883a 	mov	r5,r17
 1004dd8:	9809883a 	mov	r4,r19
 1004ddc:	d9800e04 	addi	r6,sp,56
 1004de0:	1080005c 	xori	r2,r2,1
 1004de4:	d8800a15 	stw	r2,40(sp)
 1004de8:	10049780 	call	1004978 <_fpadd_parts>
 1004dec:	1009883a 	mov	r4,r2
 1004df0:	1005c380 	call	1005c38 <__pack_d>
 1004df4:	dfc01517 	ldw	ra,84(sp)
 1004df8:	dcc01417 	ldw	r19,80(sp)
 1004dfc:	dc401317 	ldw	r17,76(sp)
 1004e00:	dec01604 	addi	sp,sp,88
 1004e04:	f800283a 	ret

01004e08 <__adddf3>:
 1004e08:	deffea04 	addi	sp,sp,-88
 1004e0c:	dcc01415 	stw	r19,80(sp)
 1004e10:	dcc00404 	addi	r19,sp,16
 1004e14:	2011883a 	mov	r8,r4
 1004e18:	2813883a 	mov	r9,r5
 1004e1c:	dc401315 	stw	r17,76(sp)
 1004e20:	d809883a 	mov	r4,sp
 1004e24:	980b883a 	mov	r5,r19
 1004e28:	dc400904 	addi	r17,sp,36
 1004e2c:	dfc01515 	stw	ra,84(sp)
 1004e30:	da400115 	stw	r9,4(sp)
 1004e34:	d9c00315 	stw	r7,12(sp)
 1004e38:	da000015 	stw	r8,0(sp)
 1004e3c:	d9800215 	stw	r6,8(sp)
 1004e40:	1005f4c0 	call	1005f4c <__unpack_d>
 1004e44:	d9000204 	addi	r4,sp,8
 1004e48:	880b883a 	mov	r5,r17
 1004e4c:	1005f4c0 	call	1005f4c <__unpack_d>
 1004e50:	d9800e04 	addi	r6,sp,56
 1004e54:	9809883a 	mov	r4,r19
 1004e58:	880b883a 	mov	r5,r17
 1004e5c:	10049780 	call	1004978 <_fpadd_parts>
 1004e60:	1009883a 	mov	r4,r2
 1004e64:	1005c380 	call	1005c38 <__pack_d>
 1004e68:	dfc01517 	ldw	ra,84(sp)
 1004e6c:	dcc01417 	ldw	r19,80(sp)
 1004e70:	dc401317 	ldw	r17,76(sp)
 1004e74:	dec01604 	addi	sp,sp,88
 1004e78:	f800283a 	ret

01004e7c <__muldf3>:
 1004e7c:	deffe004 	addi	sp,sp,-128
 1004e80:	dc401815 	stw	r17,96(sp)
 1004e84:	dc400404 	addi	r17,sp,16
 1004e88:	2011883a 	mov	r8,r4
 1004e8c:	2813883a 	mov	r9,r5
 1004e90:	dc001715 	stw	r16,92(sp)
 1004e94:	d809883a 	mov	r4,sp
 1004e98:	880b883a 	mov	r5,r17
 1004e9c:	dc000904 	addi	r16,sp,36
 1004ea0:	dfc01f15 	stw	ra,124(sp)
 1004ea4:	da400115 	stw	r9,4(sp)
 1004ea8:	d9c00315 	stw	r7,12(sp)
 1004eac:	da000015 	stw	r8,0(sp)
 1004eb0:	d9800215 	stw	r6,8(sp)
 1004eb4:	ddc01e15 	stw	r23,120(sp)
 1004eb8:	dd801d15 	stw	r22,116(sp)
 1004ebc:	dd401c15 	stw	r21,112(sp)
 1004ec0:	dd001b15 	stw	r20,108(sp)
 1004ec4:	dcc01a15 	stw	r19,104(sp)
 1004ec8:	dc801915 	stw	r18,100(sp)
 1004ecc:	1005f4c0 	call	1005f4c <__unpack_d>
 1004ed0:	d9000204 	addi	r4,sp,8
 1004ed4:	800b883a 	mov	r5,r16
 1004ed8:	1005f4c0 	call	1005f4c <__unpack_d>
 1004edc:	d9000417 	ldw	r4,16(sp)
 1004ee0:	00800044 	movi	r2,1
 1004ee4:	1100102e 	bgeu	r2,r4,1004f28 <__muldf3+0xac>
 1004ee8:	d8c00917 	ldw	r3,36(sp)
 1004eec:	10c0062e 	bgeu	r2,r3,1004f08 <__muldf3+0x8c>
 1004ef0:	00800104 	movi	r2,4
 1004ef4:	20800a26 	beq	r4,r2,1004f20 <__muldf3+0xa4>
 1004ef8:	1880cc26 	beq	r3,r2,100522c <__muldf3+0x3b0>
 1004efc:	00800084 	movi	r2,2
 1004f00:	20800926 	beq	r4,r2,1004f28 <__muldf3+0xac>
 1004f04:	1880191e 	bne	r3,r2,1004f6c <__muldf3+0xf0>
 1004f08:	d8c00a17 	ldw	r3,40(sp)
 1004f0c:	d8800517 	ldw	r2,20(sp)
 1004f10:	8009883a 	mov	r4,r16
 1004f14:	10c4c03a 	cmpne	r2,r2,r3
 1004f18:	d8800a15 	stw	r2,40(sp)
 1004f1c:	00000706 	br	1004f3c <__muldf3+0xc0>
 1004f20:	00800084 	movi	r2,2
 1004f24:	1880c326 	beq	r3,r2,1005234 <__muldf3+0x3b8>
 1004f28:	d8800517 	ldw	r2,20(sp)
 1004f2c:	d8c00a17 	ldw	r3,40(sp)
 1004f30:	8809883a 	mov	r4,r17
 1004f34:	10c4c03a 	cmpne	r2,r2,r3
 1004f38:	d8800515 	stw	r2,20(sp)
 1004f3c:	1005c380 	call	1005c38 <__pack_d>
 1004f40:	dfc01f17 	ldw	ra,124(sp)
 1004f44:	ddc01e17 	ldw	r23,120(sp)
 1004f48:	dd801d17 	ldw	r22,116(sp)
 1004f4c:	dd401c17 	ldw	r21,112(sp)
 1004f50:	dd001b17 	ldw	r20,108(sp)
 1004f54:	dcc01a17 	ldw	r19,104(sp)
 1004f58:	dc801917 	ldw	r18,100(sp)
 1004f5c:	dc401817 	ldw	r17,96(sp)
 1004f60:	dc001717 	ldw	r16,92(sp)
 1004f64:	dec02004 	addi	sp,sp,128
 1004f68:	f800283a 	ret
 1004f6c:	dd800717 	ldw	r22,28(sp)
 1004f70:	dc800c17 	ldw	r18,48(sp)
 1004f74:	002b883a 	mov	r21,zero
 1004f78:	0023883a 	mov	r17,zero
 1004f7c:	a80b883a 	mov	r5,r21
 1004f80:	b00d883a 	mov	r6,r22
 1004f84:	880f883a 	mov	r7,r17
 1004f88:	ddc00817 	ldw	r23,32(sp)
 1004f8c:	dcc00d17 	ldw	r19,52(sp)
 1004f90:	9009883a 	mov	r4,r18
 1004f94:	1005a940 	call	1005a94 <__muldi3>
 1004f98:	001b883a 	mov	r13,zero
 1004f9c:	680f883a 	mov	r7,r13
 1004fa0:	b009883a 	mov	r4,r22
 1004fa4:	000b883a 	mov	r5,zero
 1004fa8:	980d883a 	mov	r6,r19
 1004fac:	b82d883a 	mov	r22,r23
 1004fb0:	002f883a 	mov	r23,zero
 1004fb4:	db401615 	stw	r13,88(sp)
 1004fb8:	d8801315 	stw	r2,76(sp)
 1004fbc:	d8c01415 	stw	r3,80(sp)
 1004fc0:	dcc01515 	stw	r19,84(sp)
 1004fc4:	1005a940 	call	1005a94 <__muldi3>
 1004fc8:	b00d883a 	mov	r6,r22
 1004fcc:	000b883a 	mov	r5,zero
 1004fd0:	9009883a 	mov	r4,r18
 1004fd4:	b80f883a 	mov	r7,r23
 1004fd8:	1021883a 	mov	r16,r2
 1004fdc:	1823883a 	mov	r17,r3
 1004fe0:	1005a940 	call	1005a94 <__muldi3>
 1004fe4:	8085883a 	add	r2,r16,r2
 1004fe8:	140d803a 	cmpltu	r6,r2,r16
 1004fec:	88c7883a 	add	r3,r17,r3
 1004ff0:	30cd883a 	add	r6,r6,r3
 1004ff4:	1029883a 	mov	r20,r2
 1004ff8:	302b883a 	mov	r21,r6
 1004ffc:	da801317 	ldw	r10,76(sp)
 1005000:	dac01417 	ldw	r11,80(sp)
 1005004:	db001517 	ldw	r12,84(sp)
 1005008:	db401617 	ldw	r13,88(sp)
 100500c:	3440612e 	bgeu	r6,r17,1005194 <__muldf3+0x318>
 1005010:	0009883a 	mov	r4,zero
 1005014:	5105883a 	add	r2,r10,r4
 1005018:	128d803a 	cmpltu	r6,r2,r10
 100501c:	5d07883a 	add	r3,r11,r20
 1005020:	30cd883a 	add	r6,r6,r3
 1005024:	0021883a 	mov	r16,zero
 1005028:	04400044 	movi	r17,1
 100502c:	1025883a 	mov	r18,r2
 1005030:	3027883a 	mov	r19,r6
 1005034:	32c06236 	bltu	r6,r11,10051c0 <__muldf3+0x344>
 1005038:	59807a26 	beq	r11,r6,1005224 <__muldf3+0x3a8>
 100503c:	680b883a 	mov	r5,r13
 1005040:	b80f883a 	mov	r7,r23
 1005044:	6009883a 	mov	r4,r12
 1005048:	b00d883a 	mov	r6,r22
 100504c:	1005a940 	call	1005a94 <__muldi3>
 1005050:	1009883a 	mov	r4,r2
 1005054:	000f883a 	mov	r7,zero
 1005058:	1545883a 	add	r2,r2,r21
 100505c:	1111803a 	cmpltu	r8,r2,r4
 1005060:	19c7883a 	add	r3,r3,r7
 1005064:	40c7883a 	add	r3,r8,r3
 1005068:	88cb883a 	add	r5,r17,r3
 100506c:	d8c00617 	ldw	r3,24(sp)
 1005070:	8089883a 	add	r4,r16,r2
 1005074:	d8800b17 	ldw	r2,44(sp)
 1005078:	18c00104 	addi	r3,r3,4
 100507c:	240d803a 	cmpltu	r6,r4,r16
 1005080:	10c7883a 	add	r3,r2,r3
 1005084:	2013883a 	mov	r9,r4
 1005088:	d8800a17 	ldw	r2,40(sp)
 100508c:	d9000517 	ldw	r4,20(sp)
 1005090:	314d883a 	add	r6,r6,r5
 1005094:	3015883a 	mov	r10,r6
 1005098:	2088c03a 	cmpne	r4,r4,r2
 100509c:	00880034 	movhi	r2,8192
 10050a0:	10bfffc4 	addi	r2,r2,-1
 10050a4:	d9000f15 	stw	r4,60(sp)
 10050a8:	d8c01015 	stw	r3,64(sp)
 10050ac:	1180162e 	bgeu	r2,r6,1005108 <__muldf3+0x28c>
 10050b0:	1811883a 	mov	r8,r3
 10050b4:	101f883a 	mov	r15,r2
 10050b8:	980497fa 	slli	r2,r19,31
 10050bc:	9016d07a 	srli	r11,r18,1
 10050c0:	500697fa 	slli	r3,r10,31
 10050c4:	480cd07a 	srli	r6,r9,1
 10050c8:	500ed07a 	srli	r7,r10,1
 10050cc:	12d6b03a 	or	r11,r2,r11
 10050d0:	00800044 	movi	r2,1
 10050d4:	198cb03a 	or	r6,r3,r6
 10050d8:	4888703a 	and	r4,r9,r2
 10050dc:	9818d07a 	srli	r12,r19,1
 10050e0:	001b883a 	mov	r13,zero
 10050e4:	03a00034 	movhi	r14,32768
 10050e8:	3013883a 	mov	r9,r6
 10050ec:	3815883a 	mov	r10,r7
 10050f0:	4091883a 	add	r8,r8,r2
 10050f4:	20000226 	beq	r4,zero,1005100 <__muldf3+0x284>
 10050f8:	5b64b03a 	or	r18,r11,r13
 10050fc:	63a6b03a 	or	r19,r12,r14
